(dp0
S'userxmin'
p1
(lp2
F9.0
aF0.0
aF-1.0
aF70.0
aF1.0
aF7.0
aF31.0
asS'workoutxseriesmax'
p3
(lp4
F1.0
aF1.0
aF0.0
aF1.0
aF1.0
aF0.0
aF1.0
aF1.0
aF0.0
aF0.0
aF0.0
aF0.0
aF0.0
aF0.0
aF3.0
aF0.0
aF0.0
aF161.0
aF12.0
aF12.0
aF21.0
aF0.0
aF2.71
aF2.52
aF0.47
aF0.47
aF2.41
aF2.2
aF1.89
aF2.2
aF2.25
aF1.89
aF1.76
aF0.92
aF265.0
aF0.0
asS'dayseriesxmin'
p5
(lp6
F-1.0
aF-1.0
aF-1.0
aF-1.0
aF-1.0
aF-1.0
aF-1.0
aF-1.0
aF-1.0
aF-1.0
aF-1.0
aF-1.0
aF-1.0
aF-1.0
aF-1.0
aF-1.0
aF-1.0
aF-1.0
aF-1.0
aF-1.0
aF-1.0
aF-1.0
aF-1.0
aF-1.0
aF-1.0
asS'dayymin'
p7
(lp8
F-1.0
aF-1.0
aF-1.0
aF-1.0
aF-1.0
aF-1.0
aF-1.0
asS'workoutymin'
p9
(lp10
F0.0
aF80.0
aF1.0
aF0.28
aF0.0
aF0.0
aF0.0
aF0.0
aF0.0
aF0.0
aF0.0
aF0.0
aF0.0
aF0.0
aF0.0
aF0.0
asS'workoutxseriesmin'
p11
(lp12
F0.0
aF0.0
aF0.0
aF0.0
aF0.0
aF0.0
aF0.0
aF0.0
aF0.0
aF0.0
aF0.0
aF0.0
aF0.0
aF0.0
aF1.0
aF0.0
aF-1.0
aF-1.0
aF-1.0
aF-1.0
aF0.0
aF0.0
aF0.0
aF0.0
aF0.0
aF0.0
aF0.0
aF0.0
aF0.0
aF0.0
aF0.0
aF0.0
aF0.0
aF0.0
aF-1.0
aF-1.0
asS'daysseriesxmax'
p13
(lp14
F2.0
aF1.0
aF0.0
aF-1.0
aF-1.0
aF-1.0
aF-1.0
aF-1.0
aF-1.0
aF1440.0
aF1440.0
aF4.833333333333333
aF1440.0
aF5.116666666666666
aF97.0
aF5.216666666666667
aF1440.0
aF5.0
aF16.1
aF56.9
aF4.0
aF98.0
aF82.0
aF7.8
aF164.1
asS'dayymax'
p15
(lp16
F16.6
aF57.5
aF4.1
aF98.0
aF83.0
aF7.8
aF165.6
asS'workoutymax'
p17
(lp18
F1.0
aF161.0
aF12.0
aF2.71
aF2.52
aF0.47
aF0.47
aF2.41
aF2.2
aF1.89
aF2.2
aF2.25
aF1.89
aF1.76
aF0.92
aF1.0
asS'userxmax'
p19
(lp20
F9.0
aF0.0
aF-1.0
aF70.0
aF1.0
aF7.0
aF31.0
as.