(dp0
S'userxmin'
p1
(lp2
F9.0
aF0.0
aF-1.0
aF70.0
aF1.0
aF7.0
aF31.0
asS'workoutxseriesmax'
p3
(lp4
F1.0
aF1.0
aF0.0
aF1.0
aF1.0
aF0.0
aF0.0
aF0.0
aF0.0
aF0.0
aF0.0
aF7.0
aF0.0
aF154.0
aF11.0
aF11.0
aF0.0
aF1.43
aF1.34
aF0.42
aF0.0
aF1.17
aF1.17
aF1.2
aF1.19
aF1.01
aF1.2
aF1.13
aF0.92
aF265.0
aF1.0
asS'dayseriesxmin'
p5
(lp6
F-1.0
aF-1.0
aF-1.0
aF-1.0
aF-1.0
aF-1.0
aF-1.0
aF-1.0
aF-1.0
aF-1.0
aF-1.0
aF-1.0
aF-1.0
aF-1.0
aF-1.0
aF-1.0
aF-1.0
aF-1.0
aF-1.0
aF-1.0
aF-1.0
aF-1.0
aF-1.0
asS'workoutymin'
p7
(lp8
F0.0
aF88.0
aF1.0
aF0.28
aF0.0
aF0.0
aF0.0
aF0.0
aF0.0
aF0.0
aF0.0
aF0.0
aF0.0
aF0.0
aF0.0
aF0.0
asS'workoutxseriesmin'
p9
(lp10
F0.0
aF0.0
aF0.0
aF0.0
aF0.0
aF0.0
aF0.0
aF0.0
aF0.0
aF0.0
aF0.0
aF0.0
aF-1.0
aF-1.0
aF-1.0
aF-1.0
aF0.0
aF0.0
aF0.0
aF0.0
aF0.0
aF0.0
aF0.0
aF0.0
aF0.0
aF0.0
aF0.0
aF0.0
aF0.0
aF-1.0
aF-1.0
asS'daysseriesxmax'
p11
(lp12
F7.0
aF-1.0
aF-1.0
aF-1.0
aF-1.0
aF-1.0
aF-1.0
aF579.0
aF600.0
aF7.65
aF1436.0
aF5.483333333333333
aF96.0
aF5.2
aF600.0
aF5.0
aF14.5
aF57.4
aF4.1
aF98.0
aF82.8
aF7.8
aF162.0
asS'workoutymax'
p13
(lp14
F1.0
aF154.0
aF11.0
aF1.43
aF1.34
aF0.42
aF0.0
aF1.17
aF1.17
aF1.2
aF1.19
aF1.01
aF1.2
aF1.13
aF0.92
aF1.0
asS'userxmax'
p15
(lp16
F9.0
aF0.0
aF-1.0
aF70.0
aF1.0
aF7.0
aF31.0
as.