(dp0
S'userxmin'
p1
(lp2
F9.0
aF0.0
aF-1.0
aF70.0
aF1.0
aF7.0
aF31.0
asS'workoutxseriesmax'
p3
(lp4
F1.0
aF1.0
aF0.0
aF1.0
aF1.0
aF0.0
aF0.0
aF0.0
aF0.0
aF0.0
aF0.0
aF0.0
aF0.0
aF154.0
aF12.0
aF12.0
aF0.0
aF1.43
aF1.34
aF0.47
aF0.47
aF1.29
aF1.29
aF1.62
aF1.19
aF1.01
aF1.2
aF1.13
aF0.92
aF265.0
aF0.0
asS'dayseriesxmin'
p5
(lp6
F-1.0
aF-1.0
aF-1.0
aF-1.0
aF-1.0
aF-1.0
aF-1.0
aF-1.0
aF-1.0
aF-1.0
aF-1.0
aF-1.0
aF-1.0
aF-1.0
aF-1.0
aF-1.0
aF-1.0
aF-1.0
aF-1.0
aF-1.0
aF-1.0
aF-1.0
aF-1.0
asS'workoutymin'
p7
(lp8
F0.0
aF88.0
aF1.0
aF0.28
aF0.0
aF0.0
aF0.0
aF0.0
aF0.0
aF0.0
aF0.0
aF0.0
aF0.0
aF0.0
aF0.0
aF0.0
asS'workoutxseriesmin'
p9
(lp10
F0.0
aF0.0
aF0.0
aF0.0
aF0.0
aF0.0
aF0.0
aF0.0
aF0.0
aF0.0
aF0.0
aF0.0
aF-1.0
aF-1.0
aF-1.0
aF-1.0
aF0.0
aF0.0
aF0.0
aF0.0
aF0.0
aF0.0
aF0.0
aF0.0
aF0.0
aF0.0
aF0.0
aF0.0
aF0.0
aF-1.0
aF-1.0
asS'daysseriesxmax'
p11
(lp12
F0.0
aF-1.0
aF-1.0
aF-1.0
aF-1.0
aF-1.0
aF-1.0
aF469.0
aF470.0
aF0.31666666666666665
aF1430.0
aF3.9833333333333334
aF95.0
aF3.65
aF469.0
aF0.0
aF14.9
aF56.3
aF4.0
aF87.0
aF81.1
aF7.4
aF163.2
asS'workoutymax'
p13
(lp14
F1.0
aF154.0
aF12.0
aF1.43
aF1.34
aF0.47
aF0.47
aF1.29
aF1.29
aF1.62
aF1.19
aF1.01
aF1.2
aF1.13
aF0.92
aF1.0
asS'userxmax'
p15
(lp16
F9.0
aF0.0
aF-1.0
aF70.0
aF1.0
aF7.0
aF31.0
as.