(dp0
S'userxmin'
p1
(lp2
F9.0
aF0.0
aF-1.0
aF70.0
aF1.0
aF7.0
aF31.0
asS'workoutxseriesmax'
p3
(lp4
F1.0
aF1.0
aF0.0
aF1.0
aF1.0
aF0.0
aF1.0
aF0.0
aF0.0
aF0.0
aF0.0
aF8.0
aF2.0
aF0.0
aF154.0
aF12.0
aF12.0
aF21.0
aF0.0
aF1.92
aF2.12
aF0.47
aF0.47
aF2.41
aF1.96
aF1.82
aF1.82
aF1.01
aF1.2
aF1.13
aF0.92
aF265.0
aF0.0
asS'dayseriesxmin'
p5
(lp6
F-1.0
aF-1.0
aF-1.0
aF-1.0
aF-1.0
aF-1.0
aF-1.0
aF-1.0
aF-1.0
aF-1.0
aF-1.0
aF-1.0
aF-1.0
aF-1.0
aF-1.0
aF-1.0
aF-1.0
aF-1.0
aF-1.0
aF-1.0
aF-1.0
aF-1.0
aF-1.0
aF-1.0
aF-1.0
asS'dayymin'
p7
(lp8
F-1.0
aF-1.0
aF-1.0
aF-1.0
aF-1.0
aF-1.0
asS'workoutymin'
p9
(lp10
F0.0
aF80.0
aF1.0
aF0.28
aF0.0
aF0.0
aF0.0
aF0.0
aF0.0
aF0.0
aF0.0
aF0.0
aF0.0
aF0.0
aF0.0
aF0.0
asS'workoutxseriesmin'
p11
(lp12
F0.0
aF0.0
aF0.0
aF0.0
aF0.0
aF0.0
aF0.0
aF0.0
aF0.0
aF0.0
aF0.0
aF1.0
aF0.0
aF-1.0
aF-1.0
aF-1.0
aF-1.0
aF0.0
aF0.0
aF0.0
aF0.0
aF0.0
aF0.0
aF0.0
aF0.0
aF0.0
aF0.0
aF0.0
aF0.0
aF0.0
aF0.0
aF-1.0
aF-1.0
asS'daysseriesxmax'
p13
(lp14
F7.0
aF1.0
aF3.0
aF-1.0
aF-1.0
aF-1.0
aF-1.0
aF-1.0
aF-1.0
aF1440.0
aF1440.0
aF4.833333333333333
aF1440.0
aF5.116666666666666
aF96.0
aF5.216666666666667
aF1440.0
aF5.0
aF16.3
aF57.1
aF4.0
aF98.0
aF82.2
aF7.8
aF165.0
asS'dayymax'
p15
(lp16
F58.3
aF4.1
aF98.0
aF84.1
aF7.8
aF165.6
asS'workoutymax'
p17
(lp18
F1.0
aF154.0
aF12.0
aF1.92
aF2.12
aF0.47
aF0.47
aF2.41
aF1.96
aF1.82
aF1.82
aF1.01
aF1.2
aF1.13
aF0.92
aF1.0
asS'userxmax'
p19
(lp20
F9.0
aF0.0
aF-1.0
aF70.0
aF1.0
aF7.0
aF31.0
as.