(dp0
S'userx'
p1
(dp2
S'wrist_width_inches'
p3
I7
sS'height_inches'
p4
F70.0
sS'harris_benedict_bmr'
p5
I-1
sS'genetically_gifted'
p6
I0
sS'years_old'
p7
I31
sS'ankle_width_inches'
p8
I9
sS'sex_is_male'
p9
I1
ssS'dayseriesx'
p10
(lp11
(dp12
S'sleeptime_awake_hrs'
p13
I-1
sS'withings_body_water_percent'
p14
I-1
sS'heart_rate_variability_rmssd'
p15
I-1
sS'sleeptime_deep_rem_hrs'
p16
I-1
sS'withings_body_fat_percent'
p17
I-1
sS'withings_weight_lbs'
p18
I-1
sS'sleeptime_efficiency_percent'
p19
I-1
sS'post_day_calories_in'
p20
I-1
sS'post_day_fat_g'
p21
I-1
sS'sleeptime_bed_time_ampm_index'
p22
I-1
sS'withings_muscle_mass_percent'
p23
I-1
sS'sleeptime_alarm_ring_ampm_index'
p24
I-1
sS'withings_bone_mass_percent'
p25
I-1
sS'sleeptime_snoozed'
p26
I-1
sS'sleeptime_light_sleep_hrs'
p27
I-1
sS'withings_heart_rate_bpm'
p28
I-1
sS'sleeptime_alarm_set_ampm_index'
p29
I-1
sS'post_day_protein_g'
p30
I-1
sS'post_day_wearable_calories_burned'
p31
I-1
sS'withings_pulse_wave_velocity_m_per_s'
p32
I-1
sS'sleeptime_rise_time_ampm_index'
p33
I-1
sS'days_since_last_workout'
p34
I-1
sS'post_day_carbs_g'
p35
I-1
sag12
ag12
ag12
ag12
ag12
ag12
ag12
ag12
ag12
a(dp36
g13
F0.25
sg14
F56.9
sg15
I-1
sg16
F2.1
sg17
F14.0
sg18
F160.8
sg19
I95
sg20
I-1
sg21
I-1
sg22
I74
sg23
F82.0
sg24
I403
sg25
F4.0
sg26
I5
sg27
F3.7333333333333334
sg28
I83
sg29
I425
sg30
I-1
sg31
I-1
sg32
F7.6
sg33
I441
sg34
I0
sg35
I-1
sasS'workouty'
p37
(dp38
S'velocities_arr_0'
p39
F1.05
sS'velocities_arr_1'
p40
F1.34
sS'velocities_arr_2'
p41
F0.93
sS'velocities_arr_3'
p42
F1.16
sS'velocities_arr_4'
p43
F1.2
sS'velocities_arr_5'
p44
F1.19
sS'velocities_arr_6'
p45
F1.01
sS'velocities_arr_7'
p46
F1.2
sS'reps_completed'
p47
I10
sS'velocities_arr_9'
p48
F0.92
sS'postset_heartrate'
p49
I99
sS'went_to_failure'
p50
I0
sS'velocities_arr_8'
p51
F1.13
sS'velocities_arr_10'
p52
I0
sS'velocities_arr_11'
p53
I0
sS'did_pull_muscle'
p54
I0
ssS'workoutxseries'
p55
(lp56
(dp57
S'velocities_arr_0'
p58
I0
sS'velocities_arr_1'
p59
I0
sS'velocities_arr_2'
p60
I0
sS'velocities_arr_3'
p61
I0
sS'velocities_arr_4'
p62
I0
sS'velocities_arr_5'
p63
I0
sS'velocities_arr_6'
p64
I0
sS'velocities_arr_7'
p65
I0
sS'velocities_arr_8'
p66
I0
sS'velocities_arr_9'
p67
I0
sg49
I-1
sS'weight_lbs'
p68
I-1
sS'category_exercise_name_10'
p69
I0
sS'category_exercise_name_2'
p70
I0
sg47
I-1
sS'reps_planned'
p71
I-1
sS'category_exercise_name_0'
p72
I0
sS'category_exercise_name_1'
p73
I0
sS'velocities_arr_10'
p74
I0
sS'category_exercise_name_3'
p75
I0
sS'category_exercise_name_4'
p76
I0
sS'category_exercise_name_5'
p77
I0
sS'category_exercise_name_6'
p78
I0
sS'category_exercise_name_7'
p79
I0
sS'category_exercise_name_8'
p80
I0
sS'category_exercise_name_9'
p81
I0
sS'set_number_of_the_day'
p82
I9
sg50
I0
sS'used_lifting_gear'
p83
I0
sS'velocities_arr_11'
p84
I0
sg54
I0
sg34
I0
sag57
ag57
ag57
ag57
ag57
ag57
ag57
ag57
ag57
ag57
ag57
ag57
ag57
ag57
ag57
ag57
ag57
ag57
ag57
ag57
ag57
ag57
a(dp85
S'velocities_arr_0'
p86
F1.31
sS'velocities_arr_1'
p87
F0.7
sS'velocities_arr_2'
p88
F1.12
sS'velocities_arr_3'
p89
F1.04
sS'velocities_arr_4'
p90
I0
sS'velocities_arr_5'
p91
I0
sS'velocities_arr_6'
p92
I0
sS'velocities_arr_7'
p93
I0
sS'velocities_arr_8'
p94
I0
sS'velocities_arr_9'
p95
I0
sg49
I88
sg68
I45
sS'category_exercise_name_10'
p96
I0
sS'velocities_arr_10'
p97
I0
sg47
I4
sg71
I4
sS'category_exercise_name_0'
p98
I0
sS'category_exercise_name_1'
p99
I0
sS'category_exercise_name_2'
p100
I1
sS'category_exercise_name_3'
p101
I0
sS'category_exercise_name_4'
p102
I0
sS'category_exercise_name_5'
p103
I0
sS'category_exercise_name_6'
p104
I0
sS'category_exercise_name_7'
p105
I0
sS'category_exercise_name_8'
p106
I0
sS'category_exercise_name_9'
p107
I0
sg82
I0
sg50
I0
sg83
I0
sS'velocities_arr_11'
p108
I0
sg54
I0
sg34
I0
sa(dp109
S'velocities_arr_0'
p110
F0.94
sS'velocities_arr_1'
p111
F0.63
sS'velocities_arr_2'
p112
F0.9
sS'velocities_arr_3'
p113
F0.89
sS'velocities_arr_4'
p114
F0.88
sS'velocities_arr_5'
p115
F0.88
sS'velocities_arr_6'
p116
I0
sS'velocities_arr_7'
p117
I0
sS'velocities_arr_8'
p118
I0
sS'velocities_arr_9'
p119
I0
sg49
I110
sg68
I95
sS'category_exercise_name_10'
p120
I0
sS'velocities_arr_10'
p121
I0
sg47
I6
sg71
I6
sS'category_exercise_name_0'
p122
I0
sS'category_exercise_name_1'
p123
I0
sS'category_exercise_name_2'
p124
I1
sS'category_exercise_name_3'
p125
I0
sS'category_exercise_name_4'
p126
I0
sS'category_exercise_name_5'
p127
I0
sS'category_exercise_name_6'
p128
I0
sS'category_exercise_name_7'
p129
I0
sS'category_exercise_name_8'
p130
I0
sS'category_exercise_name_9'
p131
I0
sg82
I1
sg50
I0
sg83
I0
sS'velocities_arr_11'
p132
I0
sg54
I0
sg34
I0
sa(dp133
S'velocities_arr_0'
p134
F0.88
sS'velocities_arr_1'
p135
F0.87
sS'velocities_arr_2'
p136
F0.86
sS'velocities_arr_3'
p137
F0.86
sS'velocities_arr_4'
p138
F0.86
sS'velocities_arr_5'
p139
F0.85
sS'velocities_arr_6'
p140
I0
sS'velocities_arr_7'
p141
I0
sS'velocities_arr_8'
p142
I0
sS'velocities_arr_9'
p143
I0
sg49
I113
sg68
I115
sS'category_exercise_name_10'
p144
I0
sS'velocities_arr_10'
p145
I0
sg47
I6
sg71
I6
sS'category_exercise_name_0'
p146
I0
sS'category_exercise_name_1'
p147
I0
sS'category_exercise_name_2'
p148
I1
sS'category_exercise_name_3'
p149
I0
sS'category_exercise_name_4'
p150
I0
sS'category_exercise_name_5'
p151
I0
sS'category_exercise_name_6'
p152
I0
sS'category_exercise_name_7'
p153
I0
sS'category_exercise_name_8'
p154
I0
sS'category_exercise_name_9'
p155
I0
sg82
I2
sg50
I0
sg83
I0
sS'velocities_arr_11'
p156
I0
sg54
I0
sg34
I0
sa(dp157
S'velocities_arr_0'
p158
F0.88
sS'velocities_arr_1'
p159
F0.77
sS'velocities_arr_2'
p160
F0.72
sS'velocities_arr_3'
p161
F0.68
sS'velocities_arr_4'
p162
F0.67
sS'velocities_arr_5'
p163
F0.67
sS'velocities_arr_6'
p164
F0.67
sS'velocities_arr_7'
p165
I0
sS'velocities_arr_8'
p166
I0
sS'velocities_arr_9'
p167
I0
sg49
I128
sg68
I135
sS'category_exercise_name_10'
p168
I0
sS'velocities_arr_10'
p169
I0
sg47
I7
sg71
I7
sS'category_exercise_name_0'
p170
I0
sS'category_exercise_name_1'
p171
I0
sS'category_exercise_name_2'
p172
I1
sS'category_exercise_name_3'
p173
I0
sS'category_exercise_name_4'
p174
I0
sS'category_exercise_name_5'
p175
I0
sS'category_exercise_name_6'
p176
I0
sS'category_exercise_name_7'
p177
I0
sS'category_exercise_name_8'
p178
I0
sS'category_exercise_name_9'
p179
I0
sg82
I3
sg50
I0
sg83
I0
sS'velocities_arr_11'
p180
I0
sg54
I0
sg34
I0
sa(dp181
S'velocities_arr_0'
p182
F0.66
sS'velocities_arr_1'
p183
F0.66
sS'velocities_arr_2'
p184
F0.58
sS'velocities_arr_3'
p185
F0.54
sS'velocities_arr_4'
p186
F0.54
sS'velocities_arr_5'
p187
I0
sS'velocities_arr_6'
p188
I0
sS'velocities_arr_7'
p189
I0
sS'velocities_arr_8'
p190
I0
sS'velocities_arr_9'
p191
I0
sg49
I130
sg68
I155
sS'category_exercise_name_10'
p192
I0
sS'velocities_arr_10'
p193
I0
sg47
I5
sg71
I5
sS'category_exercise_name_0'
p194
I0
sS'category_exercise_name_1'
p195
I0
sS'category_exercise_name_2'
p196
I1
sS'category_exercise_name_3'
p197
I0
sS'category_exercise_name_4'
p198
I0
sS'category_exercise_name_5'
p199
I0
sS'category_exercise_name_6'
p200
I0
sS'category_exercise_name_7'
p201
I0
sS'category_exercise_name_8'
p202
I0
sS'category_exercise_name_9'
p203
I0
sg82
I4
sg50
I0
sg83
I0
sS'velocities_arr_11'
p204
I0
sg54
I0
sg34
I0
sa(dp205
S'velocities_arr_0'
p206
F0.61
sS'velocities_arr_1'
p207
F0.58
sS'velocities_arr_2'
p208
I0
sS'velocities_arr_3'
p209
I0
sS'velocities_arr_4'
p210
I0
sS'velocities_arr_5'
p211
I0
sS'velocities_arr_6'
p212
I0
sS'velocities_arr_7'
p213
I0
sS'velocities_arr_8'
p214
I0
sS'velocities_arr_9'
p215
I0
sg49
I124
sg68
I195
sS'category_exercise_name_10'
p216
I0
sS'velocities_arr_10'
p217
I0
sg47
I2
sg71
I2
sS'category_exercise_name_0'
p218
I0
sS'category_exercise_name_1'
p219
I0
sS'category_exercise_name_2'
p220
I1
sS'category_exercise_name_3'
p221
I0
sS'category_exercise_name_4'
p222
I0
sS'category_exercise_name_5'
p223
I0
sS'category_exercise_name_6'
p224
I0
sS'category_exercise_name_7'
p225
I0
sS'category_exercise_name_8'
p226
I0
sS'category_exercise_name_9'
p227
I0
sg82
I5
sg50
I0
sg83
I0
sS'velocities_arr_11'
p228
I0
sg54
I0
sg34
I0
sa(dp229
S'velocities_arr_0'
p230
F0.6
sS'velocities_arr_1'
p231
F0.57
sS'velocities_arr_2'
p232
F0.57
sS'velocities_arr_3'
p233
I0
sS'velocities_arr_4'
p234
I0
sS'velocities_arr_5'
p235
I0
sS'velocities_arr_6'
p236
I0
sS'velocities_arr_7'
p237
I0
sS'velocities_arr_8'
p238
I0
sS'velocities_arr_9'
p239
I0
sg49
I134
sg68
I205
sS'category_exercise_name_10'
p240
I0
sS'velocities_arr_10'
p241
I0
sg47
I3
sg71
I3
sS'category_exercise_name_0'
p242
I0
sS'category_exercise_name_1'
p243
I0
sS'category_exercise_name_2'
p244
I1
sS'category_exercise_name_3'
p245
I0
sS'category_exercise_name_4'
p246
I0
sS'category_exercise_name_5'
p247
I0
sS'category_exercise_name_6'
p248
I0
sS'category_exercise_name_7'
p249
I0
sS'category_exercise_name_8'
p250
I0
sS'category_exercise_name_9'
p251
I0
sg82
I6
sg50
I0
sg83
I0
sS'velocities_arr_11'
p252
I0
sg54
I0
sg34
I0
sa(dp253
S'velocities_arr_0'
p254
F0.58
sS'velocities_arr_1'
p255
F0.53
sS'velocities_arr_2'
p256
I0
sS'velocities_arr_3'
p257
I0
sS'velocities_arr_4'
p258
I0
sS'velocities_arr_5'
p259
I0
sS'velocities_arr_6'
p260
I0
sS'velocities_arr_7'
p261
I0
sS'velocities_arr_8'
p262
I0
sS'velocities_arr_9'
p263
I0
sg49
I133
sg68
I215
sS'category_exercise_name_10'
p264
I0
sS'velocities_arr_10'
p265
I0
sg47
I2
sg71
I2
sS'category_exercise_name_0'
p266
I0
sS'category_exercise_name_1'
p267
I0
sS'category_exercise_name_2'
p268
I1
sS'category_exercise_name_3'
p269
I0
sS'category_exercise_name_4'
p270
I0
sS'category_exercise_name_5'
p271
I0
sS'category_exercise_name_6'
p272
I0
sS'category_exercise_name_7'
p273
I0
sS'category_exercise_name_8'
p274
I0
sS'category_exercise_name_9'
p275
I0
sg82
I7
sg50
I0
sg83
I0
sS'velocities_arr_11'
p276
I0
sg54
I0
sg34
I0
sa(dp277
S'velocities_arr_0'
p278
F0.84
sS'velocities_arr_1'
p279
F0.75
sS'velocities_arr_2'
p280
F0.74
sS'velocities_arr_3'
p281
F0.76
sS'velocities_arr_4'
p282
F0.69
sS'velocities_arr_5'
p283
F0.66
sS'velocities_arr_6'
p284
F0.65
sS'velocities_arr_7'
p285
F0.65
sS'velocities_arr_8'
p286
I0
sS'velocities_arr_9'
p287
I0
sg49
I135
sg68
I135
sS'category_exercise_name_10'
p288
I0
sS'velocities_arr_10'
p289
I0
sg47
I8
sg71
I8
sS'category_exercise_name_0'
p290
I0
sS'category_exercise_name_1'
p291
I0
sS'category_exercise_name_2'
p292
I1
sS'category_exercise_name_3'
p293
I0
sS'category_exercise_name_4'
p294
I0
sS'category_exercise_name_5'
p295
I0
sS'category_exercise_name_6'
p296
I0
sS'category_exercise_name_7'
p297
I0
sS'category_exercise_name_8'
p298
I0
sS'category_exercise_name_9'
p299
I0
sg82
I8
sg50
I0
sg83
I0
sS'velocities_arr_11'
p300
I0
sg54
I0
sg34
I0
sa(dp301
g58
I0
sg59
I0
sg60
I0
sg61
I0
sg62
I0
sg63
I0
sg64
I0
sg65
I0
sg66
I0
sg67
I0
sg49
I-1
sg68
I65
sg69
I0
sg47
I-1
sg71
I10
sg72
I0
sg73
I0
sg74
I0
sg75
I1
sg76
I0
sg77
I0
sg78
I0
sg79
I0
sg80
I0
sg81
I0
sg82
I9
sg50
I-1
sg70
I0
sg83
I0
sg84
I0
sg54
I-1
sg34
I0
sasS'dayy'
p302
(dp303
g13
F0.25
sg14
F56.9
sg15
I-1
sg16
F2.1
sg17
F14.0
sg18
F160.8
sg19
I95
sg20
I-1
sg21
I-1
sg22
I74
sg23
F82.0
sg24
I403
sg25
F4.0
sg26
I5
sg27
F3.7333333333333334
sg28
I83
sg29
I425
sg30
I-1
sg31
I-1
sg32
F7.6
sg33
I441
sg34
F0.0
sg35
I-1
ss.