(dp0
S'userx'
p1
(dp2
S'wrist_width_inches'
p3
I7
sS'height_inches'
p4
F70.0
sS'harris_benedict_bmr'
p5
I-1
sS'genetically_gifted'
p6
I0
sS'years_old'
p7
I31
sS'ankle_width_inches'
p8
I9
sS'sex_is_male'
p9
I1
ssS'dayseriesx'
p10
(lp11
(dp12
S'sleeptime_awake_hrs'
p13
I-1
sS'withings_body_water_percent'
p14
I-1
sS'heart_rate_variability_rmssd'
p15
I-1
sS'sleeptime_deep_rem_hrs'
p16
I-1
sS'withings_body_fat_percent'
p17
I-1
sS'withings_weight_lbs'
p18
I-1
sS'sleeptime_efficiency_percent'
p19
I-1
sS'post_day_calories_in'
p20
I-1
sS'post_day_fat_g'
p21
I-1
sS'sleeptime_bed_time_ampm_index'
p22
I-1
sS'withings_muscle_mass_percent'
p23
I-1
sS'sleeptime_alarm_ring_ampm_index'
p24
I-1
sS'withings_bone_mass_percent'
p25
I-1
sS'sleeptime_snoozed'
p26
I-1
sS'sleeptime_light_sleep_hrs'
p27
I-1
sS'withings_heart_rate_bpm'
p28
I-1
sS'sleeptime_alarm_set_ampm_index'
p29
I-1
sS'post_day_protein_g'
p30
I-1
sS'post_day_wearable_calories_burned'
p31
I-1
sS'withings_pulse_wave_velocity_m_per_s'
p32
I-1
sS'sleeptime_rise_time_ampm_index'
p33
I-1
sS'days_since_last_workout'
p34
I-1
sS'post_day_carbs_g'
p35
I-1
sag12
ag12
ag12
a(dp36
g13
F2.0166666666666666
sg14
I-1
sg15
I-1
sg16
F5.116666666666666
sg17
I-1
sg18
I-1
sg19
I74
sg20
I-1
sg21
I-1
sg22
I1397
sg23
I-1
sg24
I415
sg25
I-1
sg26
I5
sg27
F0.9166666666666666
sg28
I-1
sg29
I425
sg30
I-1
sg31
I-1
sg32
I-1
sg33
I441
sg34
I0
sg35
I-1
sa(dp37
g13
F1.4833333333333334
sg14
F56.6
sg15
I-1
sg16
F3.8333333333333335
sg17
F14.5
sg18
F160.7
sg19
I81
sg20
I-1
sg21
I-1
sg22
I1386
sg23
F81.5
sg24
I414
sg25
F4.0
sg26
I3
sg27
F2.8166666666666664
sg28
I94
sg29
I425
sg30
I-1
sg31
I-1
sg32
F7.4
sg33
I435
sg34
F1.0
sg35
I-1
sa(dp38
g13
F0.25
sg14
F56.7
sg15
I-1
sg16
F2.216666666666667
sg17
F14.3
sg18
F161.5
sg19
I96
sg20
I-1
sg21
I-1
sg22
I45
sg23
F81.7
sg24
I400
sg25
F4.0
sg26
I5
sg27
F4.133333333333334
sg28
I88
sg29
I425
sg30
I-1
sg31
I-1
sg32
F7.4
sg33
I441
sg34
F2.0
sg35
I-1
sa(dp39
g13
F1.1166666666666667
sg14
I-1
sg15
I-1
sg16
F2.9333333333333336
sg17
I-1
sg18
I-1
sg19
I82
sg20
I-1
sg21
I-1
sg22
I46
sg23
I-1
sg24
I399
sg25
I-1
sg26
I3
sg27
F2.3666666666666667
sg28
I-1
sg29
I425
sg30
I-1
sg31
I-1
sg32
I-1
sg33
I432
sg34
F3.0
sg35
I-1
sa(dp40
g13
F7.65
sg14
F57.4
sg15
I-1
sg16
I-1
sg17
F13.1
sg18
F160.2
sg19
I-1
sg20
I-1
sg21
I-1
sg22
I46
sg23
F82.8
sg24
I489
sg25
F4.1
sg26
I3
sg27
I-1
sg28
I75
sg29
I490
sg30
I-1
sg31
I-1
sg32
F7.5
sg33
I506
sg34
F4.0
sg35
I-1
sa(dp41
g13
F1.5
sg14
F57.4
sg15
I-1
sg16
F5.483333333333333
sg17
F13.1
sg18
F160.2
sg19
I85
sg20
I-1
sg21
I-1
sg22
I1421
sg23
F82.8
sg24
I579
sg25
F4.1
sg26
I2
sg27
F3.3166666666666664
sg28
I75
sg29
I600
sg30
I-1
sg31
I-1
sg32
F7.5
sg33
I600
sg34
F5.0
sg35
I-1
sa(dp42
g13
F1.1833333333333333
sg14
F56.9
sg15
I-1
sg16
F3.65
sg17
F13.9
sg18
F161.3
sg19
I83
sg20
I-1
sg21
I-1
sg22
I4
sg23
F82.0
sg24
I414
sg25
F4.0
sg26
I4
sg27
F2.4333333333333336
sg28
I90
sg29
I425
sg30
I-1
sg31
I-1
sg32
F7.4
sg33
I441
sg34
F7.0
sg35
I-1
sasS'workouty'
p43
(dp44
S'velocities_arr_0'
p45
F0.6
sS'velocities_arr_1'
p46
F0.64
sS'velocities_arr_2'
p47
F0.66
sS'velocities_arr_3'
p48
F0.65
sS'velocities_arr_4'
p49
F0.61
sS'velocities_arr_5'
p50
F0.58
sS'velocities_arr_6'
p51
F0.55
sS'velocities_arr_7'
p52
F0.55
sS'reps_completed'
p53
I10
sS'velocities_arr_9'
p54
F0.55
sS'postset_heartrate'
p55
I120
sS'went_to_failure'
p56
I0
sS'velocities_arr_8'
p57
F0.55
sS'velocities_arr_10'
p58
I0
sS'velocities_arr_11'
p59
I0
sS'did_pull_muscle'
p60
I0
ssS'workoutxseries'
p61
(lp62
(dp63
S'velocities_arr_0'
p64
I0
sS'velocities_arr_1'
p65
I0
sS'velocities_arr_2'
p66
I0
sS'velocities_arr_3'
p67
I0
sS'velocities_arr_4'
p68
I0
sS'velocities_arr_5'
p69
I0
sS'velocities_arr_6'
p70
I0
sS'velocities_arr_7'
p71
I0
sS'velocities_arr_8'
p72
I0
sS'velocities_arr_9'
p73
I0
sg55
I-1
sS'weight_lbs'
p74
I-1
sS'category_exercise_name_10'
p75
I0
sS'category_exercise_name_2'
p76
I0
sg53
I-1
sS'reps_planned'
p77
I-1
sS'category_exercise_name_0'
p78
I0
sS'category_exercise_name_1'
p79
I0
sS'velocities_arr_10'
p80
I0
sS'category_exercise_name_3'
p81
I0
sS'category_exercise_name_4'
p82
I0
sS'category_exercise_name_5'
p83
I0
sS'category_exercise_name_6'
p84
I0
sS'category_exercise_name_7'
p85
I0
sS'category_exercise_name_8'
p86
I0
sS'category_exercise_name_9'
p87
I0
sg56
I0
sS'used_lifting_gear'
p88
I0
sS'velocities_arr_11'
p89
I0
sg60
I0
sg34
I0
sag63
ag63
ag63
ag63
ag63
ag63
ag63
ag63
ag63
ag63
ag63
a(dp90
S'velocities_arr_0'
p91
I0
sS'velocities_arr_1'
p92
I0
sS'velocities_arr_2'
p93
I0
sS'velocities_arr_3'
p94
I0
sS'velocities_arr_4'
p95
I0
sS'velocities_arr_5'
p96
I0
sS'velocities_arr_6'
p97
I0
sS'velocities_arr_7'
p98
I0
sS'velocities_arr_8'
p99
I0
sS'velocities_arr_9'
p100
I0
sg55
I-1
sg74
I45
sS'category_exercise_name_10'
p101
I0
sS'velocities_arr_10'
p102
I0
sg53
I5
sg77
I5
sS'category_exercise_name_0'
p103
I0
sS'category_exercise_name_1'
p104
I0
sS'category_exercise_name_2'
p105
I1
sS'category_exercise_name_3'
p106
I0
sS'category_exercise_name_4'
p107
I0
sS'category_exercise_name_5'
p108
I0
sS'category_exercise_name_6'
p109
I0
sS'category_exercise_name_7'
p110
I0
sS'category_exercise_name_8'
p111
I0
sS'category_exercise_name_9'
p112
I0
sg56
I0
sg88
I0
sS'velocities_arr_11'
p113
I0
sg60
I0
sg34
I0
sa(dp114
S'velocities_arr_0'
p115
I0
sS'velocities_arr_1'
p116
I0
sS'velocities_arr_2'
p117
I0
sS'velocities_arr_3'
p118
I0
sS'velocities_arr_4'
p119
I0
sS'velocities_arr_5'
p120
I0
sS'velocities_arr_6'
p121
I0
sS'velocities_arr_7'
p122
I0
sS'velocities_arr_8'
p123
I0
sS'velocities_arr_9'
p124
I0
sg55
I112
sg74
I45
sS'category_exercise_name_10'
p125
I0
sS'velocities_arr_10'
p126
I0
sg53
I5
sg77
I5
sS'category_exercise_name_0'
p127
I0
sS'category_exercise_name_1'
p128
I0
sS'category_exercise_name_2'
p129
I1
sS'category_exercise_name_3'
p130
I0
sS'category_exercise_name_4'
p131
I0
sS'category_exercise_name_5'
p132
I0
sS'category_exercise_name_6'
p133
I0
sS'category_exercise_name_7'
p134
I0
sS'category_exercise_name_8'
p135
I0
sS'category_exercise_name_9'
p136
I0
sg56
I0
sg88
I0
sS'velocities_arr_11'
p137
I0
sg60
I0
sg34
I0
sa(dp138
S'velocities_arr_0'
p139
I0
sS'velocities_arr_1'
p140
I0
sS'velocities_arr_2'
p141
I0
sS'velocities_arr_3'
p142
I0
sS'velocities_arr_4'
p143
I0
sS'velocities_arr_5'
p144
I0
sS'velocities_arr_6'
p145
I0
sS'velocities_arr_7'
p146
I0
sS'velocities_arr_8'
p147
I0
sS'velocities_arr_9'
p148
I0
sg55
I101
sg74
I135
sS'category_exercise_name_10'
p149
I0
sS'velocities_arr_10'
p150
I0
sg53
I2
sg77
I2
sS'category_exercise_name_0'
p151
I0
sS'category_exercise_name_1'
p152
I0
sS'category_exercise_name_2'
p153
I1
sS'category_exercise_name_3'
p154
I0
sS'category_exercise_name_4'
p155
I0
sS'category_exercise_name_5'
p156
I0
sS'category_exercise_name_6'
p157
I0
sS'category_exercise_name_7'
p158
I0
sS'category_exercise_name_8'
p159
I0
sS'category_exercise_name_9'
p160
I0
sg56
I0
sg88
I0
sS'velocities_arr_11'
p161
I0
sg60
I0
sg34
I0
sa(dp162
S'velocities_arr_0'
p163
I0
sS'velocities_arr_1'
p164
I0
sS'velocities_arr_2'
p165
I0
sS'velocities_arr_3'
p166
I0
sS'velocities_arr_4'
p167
I0
sS'velocities_arr_5'
p168
I0
sS'velocities_arr_6'
p169
I0
sS'velocities_arr_7'
p170
I0
sS'velocities_arr_8'
p171
I0
sS'velocities_arr_9'
p172
I0
sg55
I111
sg74
I185
sS'category_exercise_name_10'
p173
I0
sS'velocities_arr_10'
p174
I0
sg53
I2
sg77
I2
sS'category_exercise_name_0'
p175
I0
sS'category_exercise_name_1'
p176
I0
sS'category_exercise_name_2'
p177
I1
sS'category_exercise_name_3'
p178
I0
sS'category_exercise_name_4'
p179
I0
sS'category_exercise_name_5'
p180
I0
sS'category_exercise_name_6'
p181
I0
sS'category_exercise_name_7'
p182
I0
sS'category_exercise_name_8'
p183
I0
sS'category_exercise_name_9'
p184
I0
sg56
I0
sg88
I0
sS'velocities_arr_11'
p185
I0
sg60
I0
sg34
I0
sa(dp186
S'velocities_arr_0'
p187
F0.43
sS'velocities_arr_1'
p188
F0.43
sS'velocities_arr_2'
p189
I0
sS'velocities_arr_3'
p190
I0
sS'velocities_arr_4'
p191
I0
sS'velocities_arr_5'
p192
I0
sS'velocities_arr_6'
p193
I0
sS'velocities_arr_7'
p194
I0
sS'velocities_arr_8'
p195
I0
sS'velocities_arr_9'
p196
I0
sg55
I110
sg74
I225
sS'category_exercise_name_10'
p197
I0
sS'velocities_arr_10'
p198
I0
sg53
I2
sg77
I2
sS'category_exercise_name_0'
p199
I0
sS'category_exercise_name_1'
p200
I0
sS'category_exercise_name_2'
p201
I1
sS'category_exercise_name_3'
p202
I0
sS'category_exercise_name_4'
p203
I0
sS'category_exercise_name_5'
p204
I0
sS'category_exercise_name_6'
p205
I0
sS'category_exercise_name_7'
p206
I0
sS'category_exercise_name_8'
p207
I0
sS'category_exercise_name_9'
p208
I0
sg56
I0
sg88
I0
sS'velocities_arr_11'
p209
I0
sg60
I0
sg34
I0
sa(dp210
S'velocities_arr_0'
p211
F0.43
sS'velocities_arr_1'
p212
F0.43
sS'velocities_arr_2'
p213
F0.43
sS'velocities_arr_3'
p214
I0
sS'velocities_arr_4'
p215
I0
sS'velocities_arr_5'
p216
I0
sS'velocities_arr_6'
p217
I0
sS'velocities_arr_7'
p218
I0
sS'velocities_arr_8'
p219
I0
sS'velocities_arr_9'
p220
I0
sg55
I130
sg74
I245
sS'category_exercise_name_10'
p221
I0
sS'velocities_arr_10'
p222
I0
sg53
I3
sg77
I3
sS'category_exercise_name_0'
p223
I0
sS'category_exercise_name_1'
p224
I0
sS'category_exercise_name_2'
p225
I1
sS'category_exercise_name_3'
p226
I0
sS'category_exercise_name_4'
p227
I0
sS'category_exercise_name_5'
p228
I0
sS'category_exercise_name_6'
p229
I0
sS'category_exercise_name_7'
p230
I0
sS'category_exercise_name_8'
p231
I0
sS'category_exercise_name_9'
p232
I0
sg56
I0
sg88
I0
sS'velocities_arr_11'
p233
I0
sg60
I0
sg34
I0
sa(dp234
S'velocities_arr_0'
p235
F0.38
sS'velocities_arr_1'
p236
I0
sS'velocities_arr_2'
p237
I0
sS'velocities_arr_3'
p238
I0
sS'velocities_arr_4'
p239
I0
sS'velocities_arr_5'
p240
I0
sS'velocities_arr_6'
p241
I0
sS'velocities_arr_7'
p242
I0
sS'velocities_arr_8'
p243
I0
sS'velocities_arr_9'
p244
I0
sg55
I111
sg74
I265
sS'category_exercise_name_10'
p245
I0
sS'velocities_arr_10'
p246
I0
sg53
I1
sg77
I1
sS'category_exercise_name_0'
p247
I0
sS'category_exercise_name_1'
p248
I0
sS'category_exercise_name_2'
p249
I1
sS'category_exercise_name_3'
p250
I0
sS'category_exercise_name_4'
p251
I0
sS'category_exercise_name_5'
p252
I0
sS'category_exercise_name_6'
p253
I0
sS'category_exercise_name_7'
p254
I0
sS'category_exercise_name_8'
p255
I0
sS'category_exercise_name_9'
p256
I0
sg56
I0
sg88
I0
sS'velocities_arr_11'
p257
I0
sg60
I0
sg34
I0
sa(dp258
S'velocities_arr_0'
p259
F0.61
sS'velocities_arr_1'
p260
F0.71
sS'velocities_arr_2'
p261
F0.77
sS'velocities_arr_3'
p262
F0.7
sS'velocities_arr_4'
p263
F0.68
sS'velocities_arr_5'
p264
F0.71
sS'velocities_arr_6'
p265
F0.63
sS'velocities_arr_7'
p266
F0.63
sS'velocities_arr_8'
p267
F0.63
sS'velocities_arr_9'
p268
F0.63
sg55
I109
sg74
I95
sS'category_exercise_name_10'
p269
I0
sS'velocities_arr_10'
p270
I0
sg53
I10
sg77
I10
sS'category_exercise_name_0'
p271
I0
sS'category_exercise_name_1'
p272
I0
sS'category_exercise_name_2'
p273
I0
sS'category_exercise_name_3'
p274
I1
sS'category_exercise_name_4'
p275
I0
sS'category_exercise_name_5'
p276
I0
sS'category_exercise_name_6'
p277
I0
sS'category_exercise_name_7'
p278
I0
sS'category_exercise_name_8'
p279
I0
sS'category_exercise_name_9'
p280
I0
sg56
I0
sg88
I0
sS'velocities_arr_11'
p281
I0
sg60
I0
sg34
I0
sa(dp282
S'velocities_arr_0'
p283
F0.56
sS'velocities_arr_1'
p284
F0.55
sS'velocities_arr_2'
p285
F0.58
sS'velocities_arr_3'
p286
F0.52
sS'velocities_arr_4'
p287
F0.36
sS'velocities_arr_5'
p288
F0.36
sS'velocities_arr_6'
p289
F0.36
sS'velocities_arr_7'
p290
I0
sS'velocities_arr_8'
p291
I0
sS'velocities_arr_9'
p292
I0
sg55
I107
sg74
I105
sS'category_exercise_name_10'
p293
I0
sS'velocities_arr_10'
p294
I0
sg53
I7
sg77
I7
sS'category_exercise_name_0'
p295
I0
sS'category_exercise_name_1'
p296
I0
sS'category_exercise_name_2'
p297
I0
sS'category_exercise_name_3'
p298
I1
sS'category_exercise_name_4'
p299
I0
sS'category_exercise_name_5'
p300
I0
sS'category_exercise_name_6'
p301
I0
sS'category_exercise_name_7'
p302
I0
sS'category_exercise_name_8'
p303
I0
sS'category_exercise_name_9'
p304
I0
sg56
I0
sg88
I0
sS'velocities_arr_11'
p305
I0
sg60
I0
sg34
I0
sa(dp306
S'velocities_arr_0'
p307
F0.55
sS'velocities_arr_1'
p308
F0.29
sS'velocities_arr_2'
p309
F0.48
sS'velocities_arr_3'
p310
F0.38
sS'velocities_arr_4'
p311
F0.38
sS'velocities_arr_5'
p312
I0
sS'velocities_arr_6'
p313
I0
sS'velocities_arr_7'
p314
I0
sS'velocities_arr_8'
p315
I0
sS'velocities_arr_9'
p316
I0
sg55
I111
sg74
I115
sS'category_exercise_name_10'
p317
I0
sS'velocities_arr_10'
p318
I0
sg53
I5
sg77
I5
sS'category_exercise_name_0'
p319
I0
sS'category_exercise_name_1'
p320
I0
sS'category_exercise_name_2'
p321
I0
sS'category_exercise_name_3'
p322
I1
sS'category_exercise_name_4'
p323
I0
sS'category_exercise_name_5'
p324
I0
sS'category_exercise_name_6'
p325
I0
sS'category_exercise_name_7'
p326
I0
sS'category_exercise_name_8'
p327
I0
sS'category_exercise_name_9'
p328
I0
sg56
I0
sg88
I0
sS'velocities_arr_11'
p329
I0
sg60
I0
sg34
I0
sa(dp330
S'velocities_arr_0'
p331
F0.37
sS'velocities_arr_1'
p332
F0.34
sS'velocities_arr_2'
p333
F0.34
sS'velocities_arr_3'
p334
I0
sS'velocities_arr_4'
p335
I0
sS'velocities_arr_5'
p336
I0
sS'velocities_arr_6'
p337
I0
sS'velocities_arr_7'
p338
I0
sS'velocities_arr_8'
p339
I0
sS'velocities_arr_9'
p340
I0
sg55
I111
sg74
I125
sS'category_exercise_name_10'
p341
I0
sS'velocities_arr_10'
p342
I0
sg53
I3
sg77
I3
sS'category_exercise_name_0'
p343
I0
sS'category_exercise_name_1'
p344
I0
sS'category_exercise_name_2'
p345
I0
sS'category_exercise_name_3'
p346
I1
sS'category_exercise_name_4'
p347
I0
sS'category_exercise_name_5'
p348
I0
sS'category_exercise_name_6'
p349
I0
sS'category_exercise_name_7'
p350
I0
sS'category_exercise_name_8'
p351
I0
sS'category_exercise_name_9'
p352
I0
sg56
I0
sg88
I0
sS'velocities_arr_11'
p353
I0
sg60
I0
sg34
I0
sa(dp354
S'velocities_arr_0'
p355
F0.73
sS'velocities_arr_1'
p356
F0.68
sS'velocities_arr_2'
p357
F0.63
sS'velocities_arr_3'
p358
F0.82
sS'velocities_arr_4'
p359
F0.82
sS'velocities_arr_5'
p360
I0
sS'velocities_arr_6'
p361
I0
sS'velocities_arr_7'
p362
I0
sS'velocities_arr_8'
p363
I0
sS'velocities_arr_9'
p364
I0
sg55
I147
sg74
I135
sS'category_exercise_name_10'
p365
I0
sS'velocities_arr_10'
p366
I0
sg53
I5
sg77
I5
sS'category_exercise_name_0'
p367
I1
sS'category_exercise_name_1'
p368
I0
sS'category_exercise_name_2'
p369
I0
sS'category_exercise_name_3'
p370
I0
sS'category_exercise_name_4'
p371
I0
sS'category_exercise_name_5'
p372
I0
sS'category_exercise_name_6'
p373
I0
sS'category_exercise_name_7'
p374
I0
sS'category_exercise_name_8'
p375
I0
sS'category_exercise_name_9'
p376
I0
sg56
I0
sg88
I0
sS'velocities_arr_11'
p377
I0
sg60
I0
sg34
I0
sa(dp378
S'velocities_arr_0'
p379
F0.73
sS'velocities_arr_1'
p380
F0.68
sS'velocities_arr_2'
p381
F0.63
sS'velocities_arr_3'
p382
F0.82
sS'velocities_arr_4'
p383
I0
sS'velocities_arr_5'
p384
I0
sS'velocities_arr_6'
p385
I0
sS'velocities_arr_7'
p386
I0
sS'velocities_arr_8'
p387
I0
sS'velocities_arr_9'
p388
I0
sg55
I147
sg74
I225
sS'category_exercise_name_10'
p389
I0
sS'velocities_arr_10'
p390
I0
sg53
I4
sg77
I4
sS'category_exercise_name_0'
p391
I1
sS'category_exercise_name_1'
p392
I0
sS'category_exercise_name_2'
p393
I0
sS'category_exercise_name_3'
p394
I0
sS'category_exercise_name_4'
p395
I0
sS'category_exercise_name_5'
p396
I0
sS'category_exercise_name_6'
p397
I0
sS'category_exercise_name_7'
p398
I0
sS'category_exercise_name_8'
p399
I0
sS'category_exercise_name_9'
p400
I0
sg56
I0
sg88
I0
sS'velocities_arr_11'
p401
I0
sg60
I0
sg34
I0
sa(dp402
S'velocities_arr_0'
p403
F0.53
sS'velocities_arr_1'
p404
F0.61
sS'velocities_arr_2'
p405
F0.69
sS'velocities_arr_3'
p406
I0
sS'velocities_arr_4'
p407
I0
sS'velocities_arr_5'
p408
I0
sS'velocities_arr_6'
p409
I0
sS'velocities_arr_7'
p410
I0
sS'velocities_arr_8'
p411
I0
sS'velocities_arr_9'
p412
I0
sg55
I125
sg74
I245
sS'category_exercise_name_10'
p413
I0
sS'velocities_arr_10'
p414
I0
sg53
I3
sg77
I3
sS'category_exercise_name_0'
p415
I1
sS'category_exercise_name_1'
p416
I0
sS'category_exercise_name_2'
p417
I0
sS'category_exercise_name_3'
p418
I0
sS'category_exercise_name_4'
p419
I0
sS'category_exercise_name_5'
p420
I0
sS'category_exercise_name_6'
p421
I0
sS'category_exercise_name_7'
p422
I0
sS'category_exercise_name_8'
p423
I0
sS'category_exercise_name_9'
p424
I0
sg56
I1
sg88
I0
sS'velocities_arr_11'
p425
I0
sg60
I0
sg34
I0
sa(dp426
S'velocities_arr_0'
p427
I1
sS'velocities_arr_1'
p428
F0.98
sS'velocities_arr_2'
p429
F0.98
sS'velocities_arr_3'
p430
F1.04
sS'velocities_arr_4'
p431
F1.03
sS'velocities_arr_5'
p432
I0
sS'velocities_arr_6'
p433
I0
sS'velocities_arr_7'
p434
I0
sS'velocities_arr_8'
p435
I0
sS'velocities_arr_9'
p436
I0
sg55
I112
sg74
I45
sS'category_exercise_name_10'
p437
I0
sS'velocities_arr_10'
p438
I0
sg53
I5
sg77
I5
sS'category_exercise_name_0'
p439
I0
sS'category_exercise_name_1'
p440
I0
sS'category_exercise_name_2'
p441
I1
sS'category_exercise_name_3'
p442
I0
sS'category_exercise_name_4'
p443
I0
sS'category_exercise_name_5'
p444
I0
sS'category_exercise_name_6'
p445
I0
sS'category_exercise_name_7'
p446
I0
sS'category_exercise_name_8'
p447
I0
sS'category_exercise_name_9'
p448
I0
sg56
I0
sg88
I0
sS'velocities_arr_11'
p449
I0
sg60
I0
sg34
F7.0
sa(dp450
S'velocities_arr_0'
p451
F0.73
sS'velocities_arr_1'
p452
F0.7
sS'velocities_arr_2'
p453
F0.7
sS'velocities_arr_3'
p454
I0
sS'velocities_arr_4'
p455
I0
sS'velocities_arr_5'
p456
I0
sS'velocities_arr_6'
p457
I0
sS'velocities_arr_7'
p458
I0
sS'velocities_arr_8'
p459
I0
sS'velocities_arr_9'
p460
I0
sg55
I119
sg74
I135
sS'category_exercise_name_10'
p461
I0
sS'velocities_arr_10'
p462
I0
sg53
I3
sg77
I3
sS'category_exercise_name_0'
p463
I0
sS'category_exercise_name_1'
p464
I0
sS'category_exercise_name_2'
p465
I1
sS'category_exercise_name_3'
p466
I0
sS'category_exercise_name_4'
p467
I0
sS'category_exercise_name_5'
p468
I0
sS'category_exercise_name_6'
p469
I0
sS'category_exercise_name_7'
p470
I0
sS'category_exercise_name_8'
p471
I0
sS'category_exercise_name_9'
p472
I0
sg56
I0
sg88
I0
sS'velocities_arr_11'
p473
I0
sg60
I0
sg34
F7.0
sa(dp474
S'velocities_arr_0'
p475
F0.58
sS'velocities_arr_1'
p476
F0.54
sS'velocities_arr_2'
p477
F0.57
sS'velocities_arr_3'
p478
I0
sS'velocities_arr_4'
p479
I0
sS'velocities_arr_5'
p480
I0
sS'velocities_arr_6'
p481
I0
sS'velocities_arr_7'
p482
I0
sS'velocities_arr_8'
p483
I0
sS'velocities_arr_9'
p484
I0
sg55
I126
sg74
I185
sS'category_exercise_name_10'
p485
I0
sS'velocities_arr_10'
p486
I0
sg53
I3
sg77
I3
sS'category_exercise_name_0'
p487
I0
sS'category_exercise_name_1'
p488
I0
sS'category_exercise_name_2'
p489
I1
sS'category_exercise_name_3'
p490
I0
sS'category_exercise_name_4'
p491
I0
sS'category_exercise_name_5'
p492
I0
sS'category_exercise_name_6'
p493
I0
sS'category_exercise_name_7'
p494
I0
sS'category_exercise_name_8'
p495
I0
sS'category_exercise_name_9'
p496
I0
sg56
I0
sg88
I0
sS'velocities_arr_11'
p497
I0
sg60
I0
sg34
F7.0
sa(dp498
S'velocities_arr_0'
p499
F0.51
sS'velocities_arr_1'
p500
F0.48
sS'velocities_arr_2'
p501
F0.45
sS'velocities_arr_3'
p502
I0
sS'velocities_arr_4'
p503
I0
sS'velocities_arr_5'
p504
I0
sS'velocities_arr_6'
p505
I0
sS'velocities_arr_7'
p506
I0
sS'velocities_arr_8'
p507
I0
sS'velocities_arr_9'
p508
I0
sg55
I127
sg74
I225
sS'category_exercise_name_10'
p509
I0
sS'velocities_arr_10'
p510
I0
sg53
I3
sg77
I3
sS'category_exercise_name_0'
p511
I0
sS'category_exercise_name_1'
p512
I0
sS'category_exercise_name_2'
p513
I1
sS'category_exercise_name_3'
p514
I0
sS'category_exercise_name_4'
p515
I0
sS'category_exercise_name_5'
p516
I0
sS'category_exercise_name_6'
p517
I0
sS'category_exercise_name_7'
p518
I0
sS'category_exercise_name_8'
p519
I0
sS'category_exercise_name_9'
p520
I0
sg56
I0
sg88
I0
sS'velocities_arr_11'
p521
I0
sg60
I0
sg34
F7.0
sa(dp522
S'velocities_arr_0'
p523
F0.28
sS'velocities_arr_1'
p524
F0.48
sS'velocities_arr_2'
p525
F0.44
sS'velocities_arr_3'
p526
F0.41
sS'velocities_arr_4'
p527
I0
sS'velocities_arr_5'
p528
I0
sS'velocities_arr_6'
p529
I0
sS'velocities_arr_7'
p530
I0
sS'velocities_arr_8'
p531
I0
sS'velocities_arr_9'
p532
I0
sg55
I149
sg74
I245
sS'category_exercise_name_10'
p533
I0
sS'velocities_arr_10'
p534
I0
sg53
I4
sg77
I4
sS'category_exercise_name_0'
p535
I0
sS'category_exercise_name_1'
p536
I0
sS'category_exercise_name_2'
p537
I1
sS'category_exercise_name_3'
p538
I0
sS'category_exercise_name_4'
p539
I0
sS'category_exercise_name_5'
p540
I0
sS'category_exercise_name_6'
p541
I0
sS'category_exercise_name_7'
p542
I0
sS'category_exercise_name_8'
p543
I0
sS'category_exercise_name_9'
p544
I0
sg56
I0
sg88
I0
sS'velocities_arr_11'
p545
I0
sg60
I0
sg34
F7.0
sa(dp546
S'velocities_arr_0'
p547
F0.59
sS'velocities_arr_1'
p548
F0.58
sS'velocities_arr_2'
p549
F0.62
sS'velocities_arr_3'
p550
F0.57
sS'velocities_arr_4'
p551
F0.55
sS'velocities_arr_5'
p552
F0.52
sS'velocities_arr_6'
p553
I0
sS'velocities_arr_7'
p554
I0
sS'velocities_arr_8'
p555
I0
sS'velocities_arr_9'
p556
I0
sg55
I150
sg74
I185
sS'category_exercise_name_10'
p557
I0
sS'velocities_arr_10'
p558
I0
sg53
I6
sg77
I6
sS'category_exercise_name_0'
p559
I0
sS'category_exercise_name_1'
p560
I0
sS'category_exercise_name_2'
p561
I1
sS'category_exercise_name_3'
p562
I0
sS'category_exercise_name_4'
p563
I0
sS'category_exercise_name_5'
p564
I0
sS'category_exercise_name_6'
p565
I0
sS'category_exercise_name_7'
p566
I0
sS'category_exercise_name_8'
p567
I0
sS'category_exercise_name_9'
p568
I0
sg56
I0
sg88
I0
sS'velocities_arr_11'
p569
I0
sg60
I0
sg34
F7.0
sa(dp570
g64
I0
sg65
I0
sg66
I0
sg67
I0
sg68
I0
sg69
I0
sg70
I0
sg71
I0
sg72
I0
sg73
I0
sg55
I-1
sg74
I105
sg75
I0
sg53
I-1
sg77
I10
sg78
I0
sg79
I0
sg80
I0
sg81
I1
sg82
I0
sg83
I0
sg84
I0
sg85
I0
sg86
I0
sg87
I0
sg56
I-1
sg76
I0
sg88
I0
sg89
I0
sg60
I-1
sg34
F7.0
sas.