(dp0
S'userx'
p1
(dp2
S'wrist_width_inches'
p3
I7
sS'height_inches'
p4
F70.0
sS'harris_benedict_bmr'
p5
I-1
sS'genetically_gifted'
p6
I0
sS'years_old'
p7
I31
sS'ankle_width_inches'
p8
I9
sS'sex_is_male'
p9
I1
ssS'dayseriesx'
p10
(lp11
(dp12
S'sleeptime_awake_hrs'
p13
I-1
sS'withings_body_water_percent'
p14
I-1
sS'heart_rate_variability_rmssd'
p15
I-1
sS'sleeptime_deep_rem_hrs'
p16
I-1
sS'withings_body_fat_percent'
p17
I-1
sS'withings_weight_lbs'
p18
I-1
sS'sleeptime_efficiency_percent'
p19
I-1
sS'post_day_calories_in'
p20
I-1
sS'post_day_fat_g'
p21
I-1
sS'sleeptime_bed_time_ampm_index'
p22
I-1
sS'withings_muscle_mass_percent'
p23
I-1
sS'sleeptime_alarm_ring_ampm_index'
p24
I-1
sS'withings_bone_mass_percent'
p25
I-1
sS'sleeptime_snoozed'
p26
I-1
sS'sleeptime_light_sleep_hrs'
p27
I-1
sS'withings_heart_rate_bpm'
p28
I-1
sS'sleeptime_alarm_set_ampm_index'
p29
I-1
sS'post_day_protein_g'
p30
I-1
sS'post_day_wearable_calories_burned'
p31
I-1
sS'withings_pulse_wave_velocity_m_per_s'
p32
I-1
sS'sleeptime_rise_time_ampm_index'
p33
I-1
sS'days_since_last_workout'
p34
I-1
sS'post_day_carbs_g'
p35
I-1
sag12
ag12
ag12
ag12
ag12
ag12
ag12
ag12
ag12
a(dp36
g13
F4.833333333333333
sg14
F55.7
sg15
I-1
sg16
F2.9166666666666665
sg17
F16.0
sg18
F163.5
sg19
F47.0
sg20
I-1
sg21
I-1
sg22
I566
sg23
F80.0
sg24
I1440
sg25
F4.0
sg26
I0
sg27
F1.3666666666666667
sg28
I77
sg29
I421
sg30
I-1
sg31
I-1
sg32
F7.8
sg33
I395
sg34
I0
sg35
I-1
sasS'workouty'
p37
(dp38
S'velocities_arr_0'
p39
F0.77
sS'velocities_arr_1'
p40
F0.82
sS'velocities_arr_2'
p41
F0.83
sS'velocities_arr_3'
p42
F0.79
sS'velocities_arr_4'
p43
F0.77
sS'velocities_arr_5'
p44
I0
sS'velocities_arr_6'
p45
I0
sS'velocities_arr_7'
p46
I0
sS'reps_completed'
p47
I5
sS'velocities_arr_9'
p48
I0
sS'postset_heartrate'
p49
I125
sS'went_to_failure'
p50
I0
sS'velocities_arr_8'
p51
I0
sS'velocities_arr_10'
p52
I0
sS'velocities_arr_11'
p53
I0
sS'did_pull_muscle'
p54
I0
ssS'workoutxseries'
p55
(lp56
(dp57
S'velocities_arr_0'
p58
I0
sS'velocities_arr_1'
p59
I0
sS'velocities_arr_2'
p60
I0
sS'velocities_arr_3'
p61
I0
sS'velocities_arr_4'
p62
I0
sS'velocities_arr_5'
p63
I0
sS'velocities_arr_6'
p64
I0
sS'velocities_arr_7'
p65
I0
sS'velocities_arr_8'
p66
I0
sS'velocities_arr_9'
p67
I0
sg49
I-1
sS'weight_lbs'
p68
I-1
sS'category_exercise_name_10'
p69
I0
sS'category_exercise_name_2'
p70
I0
sg47
I-1
sS'reps_planned'
p71
I-1
sS'category_exercise_name_0'
p72
I0
sS'category_exercise_name_1'
p73
I0
sS'velocities_arr_10'
p74
I0
sS'category_exercise_name_3'
p75
I0
sS'category_exercise_name_4'
p76
I0
sS'category_exercise_name_5'
p77
I0
sS'category_exercise_name_6'
p78
I0
sS'category_exercise_name_7'
p79
I0
sS'category_exercise_name_8'
p80
I0
sS'category_exercise_name_9'
p81
I0
sS'set_number_of_the_day'
p82
I1
sg50
I0
sS'used_lifting_gear'
p83
I0
sS'velocities_arr_11'
p84
I0
sg54
I0
sg34
I0
sag57
ag57
ag57
ag57
ag57
ag57
ag57
ag57
ag57
ag57
ag57
ag57
ag57
ag57
ag57
ag57
ag57
ag57
ag57
ag57
ag57
ag57
ag57
ag57
ag57
ag57
ag57
ag57
ag57
ag57
a(dp85
S'velocities_arr_0'
p86
F1.11
sS'velocities_arr_1'
p87
F1.07
sS'velocities_arr_2'
p88
F1.08
sS'velocities_arr_3'
p89
F1.12
sS'velocities_arr_4'
p90
F1.62
sS'velocities_arr_5'
p91
I0
sS'velocities_arr_6'
p92
I0
sS'velocities_arr_7'
p93
I0
sS'velocities_arr_8'
p94
I0
sS'velocities_arr_9'
p95
I0
sg49
I107
sg68
I45
sS'category_exercise_name_10'
p96
I0
sS'velocities_arr_10'
p97
I0
sg47
I5
sg71
I5
sS'category_exercise_name_0'
p98
I0
sS'category_exercise_name_1'
p99
I0
sS'category_exercise_name_2'
p100
I1
sS'category_exercise_name_3'
p101
I0
sS'category_exercise_name_4'
p102
I0
sS'category_exercise_name_5'
p103
I0
sS'category_exercise_name_6'
p104
I0
sS'category_exercise_name_7'
p105
I0
sS'category_exercise_name_8'
p106
I0
sS'category_exercise_name_9'
p107
I0
sg82
I0
sg50
I0
sg83
I0
sS'velocities_arr_11'
p108
I0
sg54
I0
sg34
I0
sa(dp109
g58
I0
sg59
I0
sg60
I0
sg61
I0
sg62
I0
sg63
I0
sg64
I0
sg65
I0
sg66
I0
sg67
I0
sg49
I-1
sg68
I135
sg69
I0
sg47
I-1
sg71
I5
sg72
I0
sg73
I0
sg74
I0
sg75
I0
sg76
I0
sg77
I0
sg78
I0
sg79
I0
sg80
I0
sg81
I0
sg82
I1
sg50
I-1
sg70
I1
sg83
I0
sg84
I0
sg54
I-1
sg34
I0
sasS'dayy'
p110
(dp111
g13
F4.833333333333333
sg14
F55.7
sg15
I-1
sg16
F2.9166666666666665
sg17
F16.0
sg18
F163.5
sg19
F47.0
sg20
I-1
sg21
I-1
sg22
I566
sg23
F80.0
sg24
I1440
sg25
F4.0
sg26
I0
sg27
F1.3666666666666667
sg28
I77
sg29
I421
sg30
I-1
sg31
I-1
sg32
F7.8
sg33
I395
sg34
F0.0
sg35
I-1
ss.