(dp0
S'userx'
p1
(dp2
S'wrist_width_inches'
p3
I7
sS'height_inches'
p4
F70.0
sS'harris_benedict_bmr'
p5
I-1
sS'genetically_gifted'
p6
I0
sS'years_old'
p7
I31
sS'ankle_width_inches'
p8
I9
sS'sex_is_male'
p9
I1
ssS'dayseriesx'
p10
(lp11
(dp12
S'sleeptime_awake_hrs'
p13
F2.0166666666666666
sS'withings_body_water_percent'
p14
I-1
sS'heart_rate_variability_rmssd'
p15
I-1
sS'sleeptime_deep_rem_hrs'
p16
F5.116666666666666
sS'withings_body_fat_percent'
p17
I-1
sS'withings_weight_lbs'
p18
I-1
sS'sleeptime_efficiency_percent'
p19
I74
sS'post_day_calories_in'
p20
I-1
sS'post_day_fat_g'
p21
I-1
sS'sleeptime_bed_time_ampm_index'
p22
I1397
sS'withings_muscle_mass_percent'
p23
I-1
sS'sleeptime_alarm_ring_ampm_index'
p24
I415
sS'withings_bone_mass_percent'
p25
I-1
sS'sleeptime_snoozed'
p26
I5
sS'sleeptime_light_sleep_hrs'
p27
F0.9166666666666666
sS'withings_heart_rate_bpm'
p28
I-1
sS'sleeptime_alarm_set_ampm_index'
p29
I425
sS'post_day_protein_g'
p30
I-1
sS'post_day_wearable_calories_burned'
p31
I-1
sS'withings_pulse_wave_velocity_m_per_s'
p32
I-1
sS'sleeptime_rise_time_ampm_index'
p33
I441
sS'days_since_last_workout'
p34
I0
sS'post_day_carbs_g'
p35
I-1
sa(dp36
g13
F1.4833333333333334
sg14
F56.6
sg15
I-1
sg16
F3.8333333333333335
sg17
F14.5
sg18
F160.7
sg19
I81
sg20
I-1
sg21
I-1
sg22
I1386
sg23
F81.5
sg24
I414
sg25
F4.0
sg26
I3
sg27
F2.8166666666666664
sg28
I94
sg29
I425
sg30
I-1
sg31
I-1
sg32
F7.4
sg33
I435
sg34
F1.0
sg35
I-1
sa(dp37
g13
F0.25
sg14
F56.7
sg15
I-1
sg16
F2.216666666666667
sg17
F14.3
sg18
F161.5
sg19
I96
sg20
I-1
sg21
I-1
sg22
I45
sg23
F81.7
sg24
I400
sg25
F4.0
sg26
I5
sg27
F4.133333333333334
sg28
I88
sg29
I425
sg30
I-1
sg31
I-1
sg32
F7.4
sg33
I441
sg34
F2.0
sg35
I-1
sa(dp38
g13
F1.1166666666666667
sg14
I-1
sg15
I-1
sg16
F2.9333333333333336
sg17
I-1
sg18
I-1
sg19
I82
sg20
I-1
sg21
I-1
sg22
I46
sg23
I-1
sg24
I399
sg25
I-1
sg26
I3
sg27
F2.3666666666666667
sg28
I-1
sg29
I425
sg30
I-1
sg31
I-1
sg32
I-1
sg33
I432
sg34
F3.0
sg35
I-1
sa(dp39
g13
F7.65
sg14
F57.4
sg15
I-1
sg16
I-1
sg17
F13.1
sg18
F160.2
sg19
I-1
sg20
I-1
sg21
I-1
sg22
I46
sg23
F82.8
sg24
I489
sg25
F4.1
sg26
I3
sg27
I-1
sg28
I75
sg29
I490
sg30
I-1
sg31
I-1
sg32
F7.5
sg33
I506
sg34
F4.0
sg35
I-1
sa(dp40
g13
F1.5
sg14
F57.4
sg15
I-1
sg16
F5.483333333333333
sg17
F13.1
sg18
F160.2
sg19
I85
sg20
I-1
sg21
I-1
sg22
I1421
sg23
F82.8
sg24
I579
sg25
F4.1
sg26
I2
sg27
F3.3166666666666664
sg28
I75
sg29
I600
sg30
I-1
sg31
I-1
sg32
F7.5
sg33
I600
sg34
F5.0
sg35
I-1
sa(dp41
g13
F1.1833333333333333
sg14
F56.9
sg15
I-1
sg16
F3.65
sg17
F13.9
sg18
F161.3
sg19
I83
sg20
I-1
sg21
I-1
sg22
I4
sg23
F82.0
sg24
I414
sg25
F4.0
sg26
I4
sg27
F2.4333333333333336
sg28
I90
sg29
I425
sg30
I-1
sg31
I-1
sg32
F7.4
sg33
I441
sg34
F7.0
sg35
I-1
sa(dp42
g13
F1.85
sg14
F56.5
sg15
I-1
sg16
F4.266666666666667
sg17
F14.5
sg18
F161.4
sg19
I76
sg20
I-1
sg21
I-1
sg22
I1400
sg23
F81.4
sg24
I413
sg25
F4.0
sg26
I5
sg27
F1.9
sg28
I85
sg29
I425
sg30
I-1
sg31
I-1
sg32
F7.3
sg33
I442
sg34
F1.0
sg35
I-1
sa(dp43
g13
F0.2833333333333333
sg14
F56.9
sg15
I-1
sg16
F2.7
sg17
F13.9
sg18
F162.0
sg19
I95
sg20
I-1
sg21
I-1
sg22
I15
sg23
F82.1
sg24
I402
sg25
F4.0
sg26
I3
sg27
F3.9
sg28
I82
sg29
I422
sg30
I-1
sg31
I-1
sg32
F7.2
sg33
I429
sg34
F2.0
sg35
I-1
sa(dp44
g13
F1.4833333333333334
sg14
F56.7
sg15
I-1
sg16
F3.15
sg17
F14.3
sg18
F161.4
sg19
I80
sg20
I-1
sg21
I-1
sg22
I699
sg23
F81.6
sg24
I400
sg25
F4.0
sg26
I5
sg27
F3.033333333333333
sg28
I80
sg29
I425
sg30
I-1
sg31
I-1
sg32
F7.5
sg33
I441
sg34
F3.0
sg35
I-1
sa(dp45
g13
F0.6
sg14
F56.5
sg15
I-1
sg16
F2.6333333333333333
sg17
F14.5
sg18
F161.1
sg19
I92
sg20
I-1
sg21
I-1
sg22
I676
sg23
F81.4
sg24
I423
sg25
F4.0
sg26
I5
sg27
F5.2
sg28
I98
sg29
I446
sg30
I-1
sg31
I-1
sg32
F7.4
sg33
I465
sg34
F4.0
sg35
I-1
sasS'workouty'
p46
(dp47
S'velocities_arr_0'
p48
F0.69
sS'velocities_arr_1'
p49
F0.78
sS'velocities_arr_2'
p50
F0.74
sS'velocities_arr_3'
p51
F0.77
sS'velocities_arr_4'
p52
F0.65
sS'velocities_arr_5'
p53
F0.65
sS'velocities_arr_6'
p54
F0.66
sS'velocities_arr_7'
p55
F0.62
sS'reps_completed'
p56
I8
sS'velocities_arr_9'
p57
I0
sS'postset_heartrate'
p58
I152
sS'went_to_failure'
p59
I0
sS'velocities_arr_8'
p60
I0
sS'velocities_arr_10'
p61
I0
sS'velocities_arr_11'
p62
I0
sS'did_pull_muscle'
p63
I0
ssS'workoutxseries'
p64
(lp65
(dp66
S'velocities_arr_0'
p67
I0
sS'velocities_arr_1'
p68
I0
sS'velocities_arr_2'
p69
I0
sS'velocities_arr_3'
p70
I0
sS'velocities_arr_4'
p71
I0
sS'velocities_arr_5'
p72
I0
sS'velocities_arr_6'
p73
I0
sS'velocities_arr_7'
p74
I0
sS'velocities_arr_8'
p75
I0
sS'velocities_arr_9'
p76
I0
sg58
I-1
sS'weight_lbs'
p77
I-1
sS'category_exercise_name_10'
p78
I0
sS'category_exercise_name_2'
p79
I0
sg56
I-1
sS'reps_planned'
p80
I-1
sS'category_exercise_name_0'
p81
I0
sS'category_exercise_name_1'
p82
I0
sS'velocities_arr_10'
p83
I0
sS'category_exercise_name_3'
p84
I0
sS'category_exercise_name_4'
p85
I0
sS'category_exercise_name_5'
p86
I0
sS'category_exercise_name_6'
p87
I0
sS'category_exercise_name_7'
p88
I0
sS'category_exercise_name_8'
p89
I0
sS'category_exercise_name_9'
p90
I0
sg59
I0
sS'used_lifting_gear'
p91
I0
sS'velocities_arr_11'
p92
I0
sg63
I0
sg34
I0
sag66
ag66
ag66
a(dp93
S'velocities_arr_0'
p94
I0
sS'velocities_arr_1'
p95
I0
sS'velocities_arr_2'
p96
I0
sS'velocities_arr_3'
p97
I0
sS'velocities_arr_4'
p98
I0
sS'velocities_arr_5'
p99
I0
sS'velocities_arr_6'
p100
I0
sS'velocities_arr_7'
p101
I0
sS'velocities_arr_8'
p102
I0
sS'velocities_arr_9'
p103
I0
sg58
I-1
sg77
I45
sS'category_exercise_name_10'
p104
I0
sS'velocities_arr_10'
p105
I0
sg56
I5
sg80
I5
sS'category_exercise_name_0'
p106
I0
sS'category_exercise_name_1'
p107
I0
sS'category_exercise_name_2'
p108
I1
sS'category_exercise_name_3'
p109
I0
sS'category_exercise_name_4'
p110
I0
sS'category_exercise_name_5'
p111
I0
sS'category_exercise_name_6'
p112
I0
sS'category_exercise_name_7'
p113
I0
sS'category_exercise_name_8'
p114
I0
sS'category_exercise_name_9'
p115
I0
sg59
I0
sg91
I0
sS'velocities_arr_11'
p116
I0
sg63
I0
sg34
I0
sa(dp117
S'velocities_arr_0'
p118
I0
sS'velocities_arr_1'
p119
I0
sS'velocities_arr_2'
p120
I0
sS'velocities_arr_3'
p121
I0
sS'velocities_arr_4'
p122
I0
sS'velocities_arr_5'
p123
I0
sS'velocities_arr_6'
p124
I0
sS'velocities_arr_7'
p125
I0
sS'velocities_arr_8'
p126
I0
sS'velocities_arr_9'
p127
I0
sg58
I112
sg77
I45
sS'category_exercise_name_10'
p128
I0
sS'velocities_arr_10'
p129
I0
sg56
I5
sg80
I5
sS'category_exercise_name_0'
p130
I0
sS'category_exercise_name_1'
p131
I0
sS'category_exercise_name_2'
p132
I1
sS'category_exercise_name_3'
p133
I0
sS'category_exercise_name_4'
p134
I0
sS'category_exercise_name_5'
p135
I0
sS'category_exercise_name_6'
p136
I0
sS'category_exercise_name_7'
p137
I0
sS'category_exercise_name_8'
p138
I0
sS'category_exercise_name_9'
p139
I0
sg59
I0
sg91
I0
sS'velocities_arr_11'
p140
I0
sg63
I0
sg34
I0
sa(dp141
S'velocities_arr_0'
p142
I0
sS'velocities_arr_1'
p143
I0
sS'velocities_arr_2'
p144
I0
sS'velocities_arr_3'
p145
I0
sS'velocities_arr_4'
p146
I0
sS'velocities_arr_5'
p147
I0
sS'velocities_arr_6'
p148
I0
sS'velocities_arr_7'
p149
I0
sS'velocities_arr_8'
p150
I0
sS'velocities_arr_9'
p151
I0
sg58
I101
sg77
I135
sS'category_exercise_name_10'
p152
I0
sS'velocities_arr_10'
p153
I0
sg56
I2
sg80
I2
sS'category_exercise_name_0'
p154
I0
sS'category_exercise_name_1'
p155
I0
sS'category_exercise_name_2'
p156
I1
sS'category_exercise_name_3'
p157
I0
sS'category_exercise_name_4'
p158
I0
sS'category_exercise_name_5'
p159
I0
sS'category_exercise_name_6'
p160
I0
sS'category_exercise_name_7'
p161
I0
sS'category_exercise_name_8'
p162
I0
sS'category_exercise_name_9'
p163
I0
sg59
I0
sg91
I0
sS'velocities_arr_11'
p164
I0
sg63
I0
sg34
I0
sa(dp165
S'velocities_arr_0'
p166
I0
sS'velocities_arr_1'
p167
I0
sS'velocities_arr_2'
p168
I0
sS'velocities_arr_3'
p169
I0
sS'velocities_arr_4'
p170
I0
sS'velocities_arr_5'
p171
I0
sS'velocities_arr_6'
p172
I0
sS'velocities_arr_7'
p173
I0
sS'velocities_arr_8'
p174
I0
sS'velocities_arr_9'
p175
I0
sg58
I111
sg77
I185
sS'category_exercise_name_10'
p176
I0
sS'velocities_arr_10'
p177
I0
sg56
I2
sg80
I2
sS'category_exercise_name_0'
p178
I0
sS'category_exercise_name_1'
p179
I0
sS'category_exercise_name_2'
p180
I1
sS'category_exercise_name_3'
p181
I0
sS'category_exercise_name_4'
p182
I0
sS'category_exercise_name_5'
p183
I0
sS'category_exercise_name_6'
p184
I0
sS'category_exercise_name_7'
p185
I0
sS'category_exercise_name_8'
p186
I0
sS'category_exercise_name_9'
p187
I0
sg59
I0
sg91
I0
sS'velocities_arr_11'
p188
I0
sg63
I0
sg34
I0
sa(dp189
S'velocities_arr_0'
p190
F0.43
sS'velocities_arr_1'
p191
F0.43
sS'velocities_arr_2'
p192
I0
sS'velocities_arr_3'
p193
I0
sS'velocities_arr_4'
p194
I0
sS'velocities_arr_5'
p195
I0
sS'velocities_arr_6'
p196
I0
sS'velocities_arr_7'
p197
I0
sS'velocities_arr_8'
p198
I0
sS'velocities_arr_9'
p199
I0
sg58
I110
sg77
I225
sS'category_exercise_name_10'
p200
I0
sS'velocities_arr_10'
p201
I0
sg56
I2
sg80
I2
sS'category_exercise_name_0'
p202
I0
sS'category_exercise_name_1'
p203
I0
sS'category_exercise_name_2'
p204
I1
sS'category_exercise_name_3'
p205
I0
sS'category_exercise_name_4'
p206
I0
sS'category_exercise_name_5'
p207
I0
sS'category_exercise_name_6'
p208
I0
sS'category_exercise_name_7'
p209
I0
sS'category_exercise_name_8'
p210
I0
sS'category_exercise_name_9'
p211
I0
sg59
I0
sg91
I0
sS'velocities_arr_11'
p212
I0
sg63
I0
sg34
I0
sa(dp213
S'velocities_arr_0'
p214
F0.43
sS'velocities_arr_1'
p215
F0.43
sS'velocities_arr_2'
p216
F0.43
sS'velocities_arr_3'
p217
I0
sS'velocities_arr_4'
p218
I0
sS'velocities_arr_5'
p219
I0
sS'velocities_arr_6'
p220
I0
sS'velocities_arr_7'
p221
I0
sS'velocities_arr_8'
p222
I0
sS'velocities_arr_9'
p223
I0
sg58
I130
sg77
I245
sS'category_exercise_name_10'
p224
I0
sS'velocities_arr_10'
p225
I0
sg56
I3
sg80
I3
sS'category_exercise_name_0'
p226
I0
sS'category_exercise_name_1'
p227
I0
sS'category_exercise_name_2'
p228
I1
sS'category_exercise_name_3'
p229
I0
sS'category_exercise_name_4'
p230
I0
sS'category_exercise_name_5'
p231
I0
sS'category_exercise_name_6'
p232
I0
sS'category_exercise_name_7'
p233
I0
sS'category_exercise_name_8'
p234
I0
sS'category_exercise_name_9'
p235
I0
sg59
I0
sg91
I0
sS'velocities_arr_11'
p236
I0
sg63
I0
sg34
I0
sa(dp237
S'velocities_arr_0'
p238
F0.38
sS'velocities_arr_1'
p239
I0
sS'velocities_arr_2'
p240
I0
sS'velocities_arr_3'
p241
I0
sS'velocities_arr_4'
p242
I0
sS'velocities_arr_5'
p243
I0
sS'velocities_arr_6'
p244
I0
sS'velocities_arr_7'
p245
I0
sS'velocities_arr_8'
p246
I0
sS'velocities_arr_9'
p247
I0
sg58
I111
sg77
I265
sS'category_exercise_name_10'
p248
I0
sS'velocities_arr_10'
p249
I0
sg56
I1
sg80
I1
sS'category_exercise_name_0'
p250
I0
sS'category_exercise_name_1'
p251
I0
sS'category_exercise_name_2'
p252
I1
sS'category_exercise_name_3'
p253
I0
sS'category_exercise_name_4'
p254
I0
sS'category_exercise_name_5'
p255
I0
sS'category_exercise_name_6'
p256
I0
sS'category_exercise_name_7'
p257
I0
sS'category_exercise_name_8'
p258
I0
sS'category_exercise_name_9'
p259
I0
sg59
I0
sg91
I0
sS'velocities_arr_11'
p260
I0
sg63
I0
sg34
I0
sa(dp261
S'velocities_arr_0'
p262
F0.61
sS'velocities_arr_1'
p263
F0.71
sS'velocities_arr_2'
p264
F0.77
sS'velocities_arr_3'
p265
F0.7
sS'velocities_arr_4'
p266
F0.68
sS'velocities_arr_5'
p267
F0.71
sS'velocities_arr_6'
p268
F0.63
sS'velocities_arr_7'
p269
F0.63
sS'velocities_arr_8'
p270
F0.63
sS'velocities_arr_9'
p271
F0.63
sg58
I109
sg77
I95
sS'category_exercise_name_10'
p272
I0
sS'velocities_arr_10'
p273
I0
sg56
I10
sg80
I10
sS'category_exercise_name_0'
p274
I0
sS'category_exercise_name_1'
p275
I0
sS'category_exercise_name_2'
p276
I0
sS'category_exercise_name_3'
p277
I1
sS'category_exercise_name_4'
p278
I0
sS'category_exercise_name_5'
p279
I0
sS'category_exercise_name_6'
p280
I0
sS'category_exercise_name_7'
p281
I0
sS'category_exercise_name_8'
p282
I0
sS'category_exercise_name_9'
p283
I0
sg59
I0
sg91
I0
sS'velocities_arr_11'
p284
I0
sg63
I0
sg34
I0
sa(dp285
S'velocities_arr_0'
p286
F0.56
sS'velocities_arr_1'
p287
F0.55
sS'velocities_arr_2'
p288
F0.58
sS'velocities_arr_3'
p289
F0.52
sS'velocities_arr_4'
p290
F0.36
sS'velocities_arr_5'
p291
F0.36
sS'velocities_arr_6'
p292
F0.36
sS'velocities_arr_7'
p293
I0
sS'velocities_arr_8'
p294
I0
sS'velocities_arr_9'
p295
I0
sg58
I107
sg77
I105
sS'category_exercise_name_10'
p296
I0
sS'velocities_arr_10'
p297
I0
sg56
I7
sg80
I7
sS'category_exercise_name_0'
p298
I0
sS'category_exercise_name_1'
p299
I0
sS'category_exercise_name_2'
p300
I0
sS'category_exercise_name_3'
p301
I1
sS'category_exercise_name_4'
p302
I0
sS'category_exercise_name_5'
p303
I0
sS'category_exercise_name_6'
p304
I0
sS'category_exercise_name_7'
p305
I0
sS'category_exercise_name_8'
p306
I0
sS'category_exercise_name_9'
p307
I0
sg59
I0
sg91
I0
sS'velocities_arr_11'
p308
I0
sg63
I0
sg34
I0
sa(dp309
S'velocities_arr_0'
p310
F0.55
sS'velocities_arr_1'
p311
F0.29
sS'velocities_arr_2'
p312
F0.48
sS'velocities_arr_3'
p313
F0.38
sS'velocities_arr_4'
p314
F0.38
sS'velocities_arr_5'
p315
I0
sS'velocities_arr_6'
p316
I0
sS'velocities_arr_7'
p317
I0
sS'velocities_arr_8'
p318
I0
sS'velocities_arr_9'
p319
I0
sg58
I111
sg77
I115
sS'category_exercise_name_10'
p320
I0
sS'velocities_arr_10'
p321
I0
sg56
I5
sg80
I5
sS'category_exercise_name_0'
p322
I0
sS'category_exercise_name_1'
p323
I0
sS'category_exercise_name_2'
p324
I0
sS'category_exercise_name_3'
p325
I1
sS'category_exercise_name_4'
p326
I0
sS'category_exercise_name_5'
p327
I0
sS'category_exercise_name_6'
p328
I0
sS'category_exercise_name_7'
p329
I0
sS'category_exercise_name_8'
p330
I0
sS'category_exercise_name_9'
p331
I0
sg59
I0
sg91
I0
sS'velocities_arr_11'
p332
I0
sg63
I0
sg34
I0
sa(dp333
S'velocities_arr_0'
p334
F0.37
sS'velocities_arr_1'
p335
F0.34
sS'velocities_arr_2'
p336
F0.34
sS'velocities_arr_3'
p337
I0
sS'velocities_arr_4'
p338
I0
sS'velocities_arr_5'
p339
I0
sS'velocities_arr_6'
p340
I0
sS'velocities_arr_7'
p341
I0
sS'velocities_arr_8'
p342
I0
sS'velocities_arr_9'
p343
I0
sg58
I111
sg77
I125
sS'category_exercise_name_10'
p344
I0
sS'velocities_arr_10'
p345
I0
sg56
I3
sg80
I3
sS'category_exercise_name_0'
p346
I0
sS'category_exercise_name_1'
p347
I0
sS'category_exercise_name_2'
p348
I0
sS'category_exercise_name_3'
p349
I1
sS'category_exercise_name_4'
p350
I0
sS'category_exercise_name_5'
p351
I0
sS'category_exercise_name_6'
p352
I0
sS'category_exercise_name_7'
p353
I0
sS'category_exercise_name_8'
p354
I0
sS'category_exercise_name_9'
p355
I0
sg59
I0
sg91
I0
sS'velocities_arr_11'
p356
I0
sg63
I0
sg34
I0
sa(dp357
S'velocities_arr_0'
p358
F0.73
sS'velocities_arr_1'
p359
F0.68
sS'velocities_arr_2'
p360
F0.63
sS'velocities_arr_3'
p361
F0.82
sS'velocities_arr_4'
p362
F0.82
sS'velocities_arr_5'
p363
I0
sS'velocities_arr_6'
p364
I0
sS'velocities_arr_7'
p365
I0
sS'velocities_arr_8'
p366
I0
sS'velocities_arr_9'
p367
I0
sg58
I147
sg77
I135
sS'category_exercise_name_10'
p368
I0
sS'velocities_arr_10'
p369
I0
sg56
I5
sg80
I5
sS'category_exercise_name_0'
p370
I1
sS'category_exercise_name_1'
p371
I0
sS'category_exercise_name_2'
p372
I0
sS'category_exercise_name_3'
p373
I0
sS'category_exercise_name_4'
p374
I0
sS'category_exercise_name_5'
p375
I0
sS'category_exercise_name_6'
p376
I0
sS'category_exercise_name_7'
p377
I0
sS'category_exercise_name_8'
p378
I0
sS'category_exercise_name_9'
p379
I0
sg59
I0
sg91
I0
sS'velocities_arr_11'
p380
I0
sg63
I0
sg34
I0
sa(dp381
S'velocities_arr_0'
p382
F0.73
sS'velocities_arr_1'
p383
F0.68
sS'velocities_arr_2'
p384
F0.63
sS'velocities_arr_3'
p385
F0.82
sS'velocities_arr_4'
p386
I0
sS'velocities_arr_5'
p387
I0
sS'velocities_arr_6'
p388
I0
sS'velocities_arr_7'
p389
I0
sS'velocities_arr_8'
p390
I0
sS'velocities_arr_9'
p391
I0
sg58
I147
sg77
I225
sS'category_exercise_name_10'
p392
I0
sS'velocities_arr_10'
p393
I0
sg56
I4
sg80
I4
sS'category_exercise_name_0'
p394
I1
sS'category_exercise_name_1'
p395
I0
sS'category_exercise_name_2'
p396
I0
sS'category_exercise_name_3'
p397
I0
sS'category_exercise_name_4'
p398
I0
sS'category_exercise_name_5'
p399
I0
sS'category_exercise_name_6'
p400
I0
sS'category_exercise_name_7'
p401
I0
sS'category_exercise_name_8'
p402
I0
sS'category_exercise_name_9'
p403
I0
sg59
I0
sg91
I0
sS'velocities_arr_11'
p404
I0
sg63
I0
sg34
I0
sa(dp405
S'velocities_arr_0'
p406
F0.53
sS'velocities_arr_1'
p407
F0.61
sS'velocities_arr_2'
p408
F0.69
sS'velocities_arr_3'
p409
I0
sS'velocities_arr_4'
p410
I0
sS'velocities_arr_5'
p411
I0
sS'velocities_arr_6'
p412
I0
sS'velocities_arr_7'
p413
I0
sS'velocities_arr_8'
p414
I0
sS'velocities_arr_9'
p415
I0
sg58
I125
sg77
I245
sS'category_exercise_name_10'
p416
I0
sS'velocities_arr_10'
p417
I0
sg56
I3
sg80
I3
sS'category_exercise_name_0'
p418
I1
sS'category_exercise_name_1'
p419
I0
sS'category_exercise_name_2'
p420
I0
sS'category_exercise_name_3'
p421
I0
sS'category_exercise_name_4'
p422
I0
sS'category_exercise_name_5'
p423
I0
sS'category_exercise_name_6'
p424
I0
sS'category_exercise_name_7'
p425
I0
sS'category_exercise_name_8'
p426
I0
sS'category_exercise_name_9'
p427
I0
sg59
I1
sg91
I0
sS'velocities_arr_11'
p428
I0
sg63
I0
sg34
I0
sa(dp429
S'velocities_arr_0'
p430
I1
sS'velocities_arr_1'
p431
F0.98
sS'velocities_arr_2'
p432
F0.98
sS'velocities_arr_3'
p433
F1.04
sS'velocities_arr_4'
p434
F1.03
sS'velocities_arr_5'
p435
I0
sS'velocities_arr_6'
p436
I0
sS'velocities_arr_7'
p437
I0
sS'velocities_arr_8'
p438
I0
sS'velocities_arr_9'
p439
I0
sg58
I112
sg77
I45
sS'category_exercise_name_10'
p440
I0
sS'velocities_arr_10'
p441
I0
sg56
I5
sg80
I5
sS'category_exercise_name_0'
p442
I0
sS'category_exercise_name_1'
p443
I0
sS'category_exercise_name_2'
p444
I1
sS'category_exercise_name_3'
p445
I0
sS'category_exercise_name_4'
p446
I0
sS'category_exercise_name_5'
p447
I0
sS'category_exercise_name_6'
p448
I0
sS'category_exercise_name_7'
p449
I0
sS'category_exercise_name_8'
p450
I0
sS'category_exercise_name_9'
p451
I0
sg59
I0
sg91
I0
sS'velocities_arr_11'
p452
I0
sg63
I0
sg34
F7.0
sa(dp453
S'velocities_arr_0'
p454
F0.73
sS'velocities_arr_1'
p455
F0.7
sS'velocities_arr_2'
p456
F0.7
sS'velocities_arr_3'
p457
I0
sS'velocities_arr_4'
p458
I0
sS'velocities_arr_5'
p459
I0
sS'velocities_arr_6'
p460
I0
sS'velocities_arr_7'
p461
I0
sS'velocities_arr_8'
p462
I0
sS'velocities_arr_9'
p463
I0
sg58
I119
sg77
I135
sS'category_exercise_name_10'
p464
I0
sS'velocities_arr_10'
p465
I0
sg56
I3
sg80
I3
sS'category_exercise_name_0'
p466
I0
sS'category_exercise_name_1'
p467
I0
sS'category_exercise_name_2'
p468
I1
sS'category_exercise_name_3'
p469
I0
sS'category_exercise_name_4'
p470
I0
sS'category_exercise_name_5'
p471
I0
sS'category_exercise_name_6'
p472
I0
sS'category_exercise_name_7'
p473
I0
sS'category_exercise_name_8'
p474
I0
sS'category_exercise_name_9'
p475
I0
sg59
I0
sg91
I0
sS'velocities_arr_11'
p476
I0
sg63
I0
sg34
F7.0
sa(dp477
S'velocities_arr_0'
p478
F0.58
sS'velocities_arr_1'
p479
F0.54
sS'velocities_arr_2'
p480
F0.57
sS'velocities_arr_3'
p481
I0
sS'velocities_arr_4'
p482
I0
sS'velocities_arr_5'
p483
I0
sS'velocities_arr_6'
p484
I0
sS'velocities_arr_7'
p485
I0
sS'velocities_arr_8'
p486
I0
sS'velocities_arr_9'
p487
I0
sg58
I126
sg77
I185
sS'category_exercise_name_10'
p488
I0
sS'velocities_arr_10'
p489
I0
sg56
I3
sg80
I3
sS'category_exercise_name_0'
p490
I0
sS'category_exercise_name_1'
p491
I0
sS'category_exercise_name_2'
p492
I1
sS'category_exercise_name_3'
p493
I0
sS'category_exercise_name_4'
p494
I0
sS'category_exercise_name_5'
p495
I0
sS'category_exercise_name_6'
p496
I0
sS'category_exercise_name_7'
p497
I0
sS'category_exercise_name_8'
p498
I0
sS'category_exercise_name_9'
p499
I0
sg59
I0
sg91
I0
sS'velocities_arr_11'
p500
I0
sg63
I0
sg34
F7.0
sa(dp501
S'velocities_arr_0'
p502
F0.51
sS'velocities_arr_1'
p503
F0.48
sS'velocities_arr_2'
p504
F0.45
sS'velocities_arr_3'
p505
I0
sS'velocities_arr_4'
p506
I0
sS'velocities_arr_5'
p507
I0
sS'velocities_arr_6'
p508
I0
sS'velocities_arr_7'
p509
I0
sS'velocities_arr_8'
p510
I0
sS'velocities_arr_9'
p511
I0
sg58
I127
sg77
I225
sS'category_exercise_name_10'
p512
I0
sS'velocities_arr_10'
p513
I0
sg56
I3
sg80
I3
sS'category_exercise_name_0'
p514
I0
sS'category_exercise_name_1'
p515
I0
sS'category_exercise_name_2'
p516
I1
sS'category_exercise_name_3'
p517
I0
sS'category_exercise_name_4'
p518
I0
sS'category_exercise_name_5'
p519
I0
sS'category_exercise_name_6'
p520
I0
sS'category_exercise_name_7'
p521
I0
sS'category_exercise_name_8'
p522
I0
sS'category_exercise_name_9'
p523
I0
sg59
I0
sg91
I0
sS'velocities_arr_11'
p524
I0
sg63
I0
sg34
F7.0
sa(dp525
S'velocities_arr_0'
p526
F0.28
sS'velocities_arr_1'
p527
F0.48
sS'velocities_arr_2'
p528
F0.44
sS'velocities_arr_3'
p529
F0.41
sS'velocities_arr_4'
p530
I0
sS'velocities_arr_5'
p531
I0
sS'velocities_arr_6'
p532
I0
sS'velocities_arr_7'
p533
I0
sS'velocities_arr_8'
p534
I0
sS'velocities_arr_9'
p535
I0
sg58
I149
sg77
I245
sS'category_exercise_name_10'
p536
I0
sS'velocities_arr_10'
p537
I0
sg56
I4
sg80
I4
sS'category_exercise_name_0'
p538
I0
sS'category_exercise_name_1'
p539
I0
sS'category_exercise_name_2'
p540
I1
sS'category_exercise_name_3'
p541
I0
sS'category_exercise_name_4'
p542
I0
sS'category_exercise_name_5'
p543
I0
sS'category_exercise_name_6'
p544
I0
sS'category_exercise_name_7'
p545
I0
sS'category_exercise_name_8'
p546
I0
sS'category_exercise_name_9'
p547
I0
sg59
I0
sg91
I0
sS'velocities_arr_11'
p548
I0
sg63
I0
sg34
F7.0
sa(dp549
S'velocities_arr_0'
p550
F0.59
sS'velocities_arr_1'
p551
F0.58
sS'velocities_arr_2'
p552
F0.62
sS'velocities_arr_3'
p553
F0.57
sS'velocities_arr_4'
p554
F0.55
sS'velocities_arr_5'
p555
F0.52
sS'velocities_arr_6'
p556
I0
sS'velocities_arr_7'
p557
I0
sS'velocities_arr_8'
p558
I0
sS'velocities_arr_9'
p559
I0
sg58
I150
sg77
I185
sS'category_exercise_name_10'
p560
I0
sS'velocities_arr_10'
p561
I0
sg56
I6
sg80
I6
sS'category_exercise_name_0'
p562
I0
sS'category_exercise_name_1'
p563
I0
sS'category_exercise_name_2'
p564
I1
sS'category_exercise_name_3'
p565
I0
sS'category_exercise_name_4'
p566
I0
sS'category_exercise_name_5'
p567
I0
sS'category_exercise_name_6'
p568
I0
sS'category_exercise_name_7'
p569
I0
sS'category_exercise_name_8'
p570
I0
sS'category_exercise_name_9'
p571
I0
sg59
I0
sg91
I0
sS'velocities_arr_11'
p572
I0
sg63
I0
sg34
F7.0
sa(dp573
S'velocities_arr_0'
p574
F0.6
sS'velocities_arr_1'
p575
F0.64
sS'velocities_arr_2'
p576
F0.66
sS'velocities_arr_3'
p577
F0.65
sS'velocities_arr_4'
p578
F0.61
sS'velocities_arr_5'
p579
F0.58
sS'velocities_arr_6'
p580
F0.55
sS'velocities_arr_7'
p581
F0.55
sS'velocities_arr_8'
p582
F0.55
sS'velocities_arr_9'
p583
F0.55
sg58
I120
sg77
I105
sS'category_exercise_name_10'
p584
I0
sS'velocities_arr_10'
p585
I0
sg56
I10
sg80
I10
sS'category_exercise_name_0'
p586
I0
sS'category_exercise_name_1'
p587
I0
sS'category_exercise_name_2'
p588
I0
sS'category_exercise_name_3'
p589
I1
sS'category_exercise_name_4'
p590
I0
sS'category_exercise_name_5'
p591
I0
sS'category_exercise_name_6'
p592
I0
sS'category_exercise_name_7'
p593
I0
sS'category_exercise_name_8'
p594
I0
sS'category_exercise_name_9'
p595
I0
sg59
I0
sg91
I0
sS'velocities_arr_11'
p596
I0
sg63
I0
sg34
F7.0
sa(dp597
S'velocities_arr_0'
p598
F0.59
sS'velocities_arr_1'
p599
F0.51
sS'velocities_arr_2'
p600
F0.51
sS'velocities_arr_3'
p601
F0.51
sS'velocities_arr_4'
p602
F0.45
sS'velocities_arr_5'
p603
F0.45
sS'velocities_arr_6'
p604
I0
sS'velocities_arr_7'
p605
I0
sS'velocities_arr_8'
p606
I0
sS'velocities_arr_9'
p607
I0
sg58
I114
sg77
I115
sS'category_exercise_name_10'
p608
I0
sS'velocities_arr_10'
p609
I0
sg56
I6
sg80
I6
sS'category_exercise_name_0'
p610
I0
sS'category_exercise_name_1'
p611
I0
sS'category_exercise_name_2'
p612
I0
sS'category_exercise_name_3'
p613
I1
sS'category_exercise_name_4'
p614
I0
sS'category_exercise_name_5'
p615
I0
sS'category_exercise_name_6'
p616
I0
sS'category_exercise_name_7'
p617
I0
sS'category_exercise_name_8'
p618
I0
sS'category_exercise_name_9'
p619
I0
sg59
I0
sg91
I0
sS'velocities_arr_11'
p620
I0
sg63
I0
sg34
F7.0
sa(dp621
S'velocities_arr_0'
p622
F0.41
sS'velocities_arr_1'
p623
F0.38
sS'velocities_arr_2'
p624
F0.41
sS'velocities_arr_3'
p625
F0.41
sS'velocities_arr_4'
p626
I0
sS'velocities_arr_5'
p627
I0
sS'velocities_arr_6'
p628
I0
sS'velocities_arr_7'
p629
I0
sS'velocities_arr_8'
p630
I0
sS'velocities_arr_9'
p631
I0
sg58
I114
sg77
I125
sS'category_exercise_name_10'
p632
I0
sS'velocities_arr_10'
p633
I0
sg56
I4
sg80
I4
sS'category_exercise_name_0'
p634
I0
sS'category_exercise_name_1'
p635
I0
sS'category_exercise_name_2'
p636
I0
sS'category_exercise_name_3'
p637
I1
sS'category_exercise_name_4'
p638
I0
sS'category_exercise_name_5'
p639
I0
sS'category_exercise_name_6'
p640
I0
sS'category_exercise_name_7'
p641
I0
sS'category_exercise_name_8'
p642
I0
sS'category_exercise_name_9'
p643
I0
sg59
I0
sg91
I0
sS'velocities_arr_11'
p644
I0
sg63
I0
sg34
F7.0
sa(dp645
S'velocities_arr_0'
p646
F0.99
sS'velocities_arr_1'
p647
F1.02
sS'velocities_arr_2'
p648
F1.03
sS'velocities_arr_3'
p649
F1.03
sS'velocities_arr_4'
p650
F1.07
sS'velocities_arr_5'
p651
I0
sS'velocities_arr_6'
p652
I0
sS'velocities_arr_7'
p653
I0
sS'velocities_arr_8'
p654
I0
sS'velocities_arr_9'
p655
I0
sg58
I110
sg77
I45
sS'category_exercise_name_10'
p656
I0
sS'velocities_arr_10'
p657
I0
sg56
I5
sg80
I5
sS'category_exercise_name_0'
p658
I0
sS'category_exercise_name_1'
p659
I0
sS'category_exercise_name_2'
p660
I1
sS'category_exercise_name_3'
p661
I0
sS'category_exercise_name_4'
p662
I0
sS'category_exercise_name_5'
p663
I0
sS'category_exercise_name_6'
p664
I0
sS'category_exercise_name_7'
p665
I0
sS'category_exercise_name_8'
p666
I0
sS'category_exercise_name_9'
p667
I0
sg59
I0
sg91
I0
sS'velocities_arr_11'
p668
I0
sg63
I0
sg34
F4.0
sa(dp669
S'velocities_arr_0'
p670
F0.75
sS'velocities_arr_1'
p671
F0.84
sS'velocities_arr_2'
p672
F0.77
sS'velocities_arr_3'
p673
F0.78
sS'velocities_arr_4'
p674
F0.73
sS'velocities_arr_5'
p675
I0
sS'velocities_arr_6'
p676
I0
sS'velocities_arr_7'
p677
I0
sS'velocities_arr_8'
p678
I0
sS'velocities_arr_9'
p679
I0
sg58
I130
sg77
I135
sS'category_exercise_name_10'
p680
I0
sS'velocities_arr_10'
p681
I0
sg56
I5
sg80
I5
sS'category_exercise_name_0'
p682
I0
sS'category_exercise_name_1'
p683
I0
sS'category_exercise_name_2'
p684
I1
sS'category_exercise_name_3'
p685
I0
sS'category_exercise_name_4'
p686
I0
sS'category_exercise_name_5'
p687
I0
sS'category_exercise_name_6'
p688
I0
sS'category_exercise_name_7'
p689
I0
sS'category_exercise_name_8'
p690
I0
sS'category_exercise_name_9'
p691
I0
sg59
I0
sg91
I0
sS'velocities_arr_11'
p692
I0
sg63
I0
sg34
F4.0
sa(dp693
S'velocities_arr_0'
p694
F0.64
sS'velocities_arr_1'
p695
F0.59
sS'velocities_arr_2'
p696
F0.61
sS'velocities_arr_3'
p697
F0.55
sS'velocities_arr_4'
p698
F0.53
sS'velocities_arr_5'
p699
I0
sS'velocities_arr_6'
p700
I0
sS'velocities_arr_7'
p701
I0
sS'velocities_arr_8'
p702
I0
sS'velocities_arr_9'
p703
I0
sg58
I137
sg77
I185
sS'category_exercise_name_10'
p704
I0
sS'velocities_arr_10'
p705
I0
sg56
I5
sg80
I5
sS'category_exercise_name_0'
p706
I0
sS'category_exercise_name_1'
p707
I0
sS'category_exercise_name_2'
p708
I1
sS'category_exercise_name_3'
p709
I0
sS'category_exercise_name_4'
p710
I0
sS'category_exercise_name_5'
p711
I0
sS'category_exercise_name_6'
p712
I0
sS'category_exercise_name_7'
p713
I0
sS'category_exercise_name_8'
p714
I0
sS'category_exercise_name_9'
p715
I0
sg59
I0
sg91
I0
sS'velocities_arr_11'
p716
I0
sg63
I0
sg34
F4.0
sa(dp717
S'velocities_arr_0'
p718
F0.55
sS'velocities_arr_1'
p719
F0.48
sS'velocities_arr_2'
p720
F0.47
sS'velocities_arr_3'
p721
F0.46
sS'velocities_arr_4'
p722
F0.42
sS'velocities_arr_5'
p723
I0
sS'velocities_arr_6'
p724
I0
sS'velocities_arr_7'
p725
I0
sS'velocities_arr_8'
p726
I0
sS'velocities_arr_9'
p727
I0
sg58
I152
sg77
I225
sS'category_exercise_name_10'
p728
I0
sS'velocities_arr_10'
p729
I0
sg56
I5
sg80
I5
sS'category_exercise_name_0'
p730
I0
sS'category_exercise_name_1'
p731
I0
sS'category_exercise_name_2'
p732
I1
sS'category_exercise_name_3'
p733
I0
sS'category_exercise_name_4'
p734
I0
sS'category_exercise_name_5'
p735
I0
sS'category_exercise_name_6'
p736
I0
sS'category_exercise_name_7'
p737
I0
sS'category_exercise_name_8'
p738
I0
sS'category_exercise_name_9'
p739
I0
sg59
I0
sg91
I0
sS'velocities_arr_11'
p740
I0
sg63
I0
sg34
F4.0
sa(dp741
S'velocities_arr_0'
p742
F0.5
sS'velocities_arr_1'
p743
F0.44
sS'velocities_arr_2'
p744
F0.42
sS'velocities_arr_3'
p745
F0.37
sS'velocities_arr_4'
p746
F0.36
sS'velocities_arr_5'
p747
I0
sS'velocities_arr_6'
p748
I0
sS'velocities_arr_7'
p749
I0
sS'velocities_arr_8'
p750
I0
sS'velocities_arr_9'
p751
I0
sg58
I154
sg77
I245
sS'category_exercise_name_10'
p752
I0
sS'velocities_arr_10'
p753
I0
sg56
I5
sg80
I5
sS'category_exercise_name_0'
p754
I0
sS'category_exercise_name_1'
p755
I0
sS'category_exercise_name_2'
p756
I1
sS'category_exercise_name_3'
p757
I0
sS'category_exercise_name_4'
p758
I0
sS'category_exercise_name_5'
p759
I0
sS'category_exercise_name_6'
p760
I0
sS'category_exercise_name_7'
p761
I0
sS'category_exercise_name_8'
p762
I0
sS'category_exercise_name_9'
p763
I0
sg59
I0
sg91
I0
sS'velocities_arr_11'
p764
I0
sg63
I0
sg34
F4.0
sa(dp765
g67
I0
sg68
I0
sg69
I0
sg70
I0
sg71
I0
sg72
I0
sg73
I0
sg74
I0
sg75
I0
sg76
I0
sg58
I-1
sg77
I135
sg78
I0
sg56
I-1
sg80
I8
sg81
I0
sg82
I0
sg83
I0
sg84
I0
sg85
I0
sg86
I0
sg87
I0
sg88
I0
sg89
I0
sg90
I0
sg59
I-1
sg79
I1
sg91
I0
sg92
I0
sg63
I-1
sg34
F4.0
sas.