(dp0
S'userx'
p1
(dp2
S'wrist_width_inches'
p3
I7
sS'height_inches'
p4
F70.0
sS'harris_benedict_bmr'
p5
I-1
sS'genetically_gifted'
p6
I0
sS'years_old'
p7
I31
sS'ankle_width_inches'
p8
I9
sS'sex_is_male'
p9
I1
ssS'dayseriesx'
p10
(lp11
(dp12
S'sleeptime_awake_hrs'
p13
I-1
sS'withings_body_water_percent'
p14
I-1
sS'heart_rate_variability_rmssd'
p15
I-1
sS'sleeptime_deep_rem_hrs'
p16
I-1
sS'withings_body_fat_percent'
p17
I-1
sS'withings_weight_lbs'
p18
I-1
sS'sleeptime_efficiency_percent'
p19
I-1
sS'post_day_calories_in'
p20
I-1
sS'post_day_fat_g'
p21
I-1
sS'sleeptime_bed_time_ampm_index'
p22
I-1
sS'withings_muscle_mass_percent'
p23
I-1
sS'sleeptime_alarm_ring_ampm_index'
p24
I-1
sS'withings_bone_mass_percent'
p25
I-1
sS'sleeptime_snoozed'
p26
I-1
sS'sleeptime_light_sleep_hrs'
p27
I-1
sS'withings_heart_rate_bpm'
p28
I-1
sS'sleeptime_alarm_set_ampm_index'
p29
I-1
sS'post_day_protein_g'
p30
I-1
sS'post_day_wearable_calories_burned'
p31
I-1
sS'withings_pulse_wave_velocity_m_per_s'
p32
I-1
sS'sleeptime_rise_time_ampm_index'
p33
I-1
sS'days_since_last_workout'
p34
I-1
sS'post_day_carbs_g'
p35
I-1
sag12
ag12
a(dp36
g13
F4.833333333333333
sg14
F55.7
sg15
I-1
sg16
F2.9166666666666665
sg17
F16.0
sg18
F163.5
sg19
F47.0
sg20
I-1
sg21
I-1
sg22
I566
sg23
F80.0
sg24
I1440
sg25
F4.0
sg26
I0
sg27
F1.3666666666666667
sg28
I77
sg29
I421
sg30
I-1
sg31
I-1
sg32
F7.8
sg33
I395
sg34
I0
sg35
I-1
sa(dp37
g13
F0.3333333333333333
sg14
F55.4
sg15
I-1
sg16
F2.8
sg17
F16.6
sg18
F162.5
sg19
F96.0
sg20
I-1
sg21
I-1
sg22
I710
sg23
F79.4
sg24
I1440
sg25
F4.0
sg26
I0
sg27
F5.866666666666667
sg28
I75
sg29
I589
sg30
I-1
sg31
I-1
sg32
F7.7
sg33
I532
sg34
F1.0
sg35
I-1
sa(dp38
g13
F0.9833333333333333
sg14
F55.9
sg15
I-1
sg16
F4.466666666666667
sg17
F15.7
sg18
F163.5
sg19
F89.0
sg20
I-1
sg21
I-1
sg22
I1419
sg23
F80.4
sg24
I1440
sg25
F4.0
sg26
I0
sg27
F4.016666666666667
sg28
I-1
sg29
I589
sg30
I-1
sg31
I-1
sg32
I-1
sg33
I548
sg34
F2.0
sg35
I-1
sa(dp39
g13
F0.9166666666666666
sg14
F56.4
sg15
I-1
sg16
F4.1
sg17
F14.8
sg18
F163.7
sg19
F88.0
sg20
I-1
sg21
I-1
sg22
I1389
sg23
F81.2
sg24
I411
sg25
F4.0
sg26
I4
sg27
F3.1666666666666665
sg28
I86
sg29
I425
sg30
I-1
sg31
I-1
sg32
F7.4
sg33
I441
sg34
F3.0
sg35
I-1
sa(dp40
g13
F1.5166666666666666
sg14
F55.9
sg15
I-1
sg16
F3.8666666666666667
sg17
F14.8
sg18
F163.8
sg19
F79.0
sg20
I-1
sg21
I-1
sg22
I1434
sg23
F80.4
sg24
I407
sg25
F4.0
sg26
I5
sg27
F2.033333333333333
sg28
I87
sg29
I425
sg30
I-1
sg31
I-1
sg32
F7.4
sg33
I441
sg34
F1.0
sg35
I-1
sa(dp41
g13
F1.25
sg14
F56.4
sg15
I-1
sg16
F1.8
sg17
F14.8
sg18
F163.2
sg19
F84.0
sg20
I-1
sg21
I-1
sg22
I1393
sg23
F81.2
sg24
I424
sg25
F4.0
sg26
I2
sg27
F5.033333333333333
sg28
I84
sg29
I425
sg30
I-1
sg31
I-1
sg32
F7.5
sg33
I440
sg34
F2.0
sg35
I-1
sa(dp42
g13
F1.9833333333333334
sg14
F56.4
sg15
I-1
sg16
F3.7333333333333334
sg17
F14.8
sg18
F163.2
sg19
F73.0
sg20
I-1
sg21
I-1
sg22
I1426
sg23
F81.1
sg24
I396
sg25
F4.0
sg26
I5
sg27
F1.85
sg28
I86
sg29
I425
sg30
I-1
sg31
I-1
sg32
F7.4
sg33
I441
sg34
F3.0
sg35
I-1
sa(dp43
g13
F0.31666666666666665
sg14
F56.3
sg15
I-1
sg16
F3.9833333333333334
sg17
F14.9
sg18
F163.2
sg19
F95.0
sg20
I-1
sg21
I-1
sg22
I1430
sg23
F81.1
sg24
I469
sg25
F4.0
sg26
I0
sg27
F3.65
sg28
I87
sg29
I470
sg30
I-1
sg31
I-1
sg32
F7.4
sg33
I469
sg34
F4.0
sg35
I-1
sasS'workouty'
p44
(dp45
S'velocities_arr_0'
p46
F0.8
sS'velocities_arr_1'
p47
F0.89
sS'velocities_arr_2'
p48
F0.78
sS'velocities_arr_3'
p49
F0.77
sS'velocities_arr_4'
p50
F0.74
sS'velocities_arr_5'
p51
I0
sS'velocities_arr_6'
p52
I0
sS'velocities_arr_7'
p53
I0
sS'reps_completed'
p54
I5
sS'velocities_arr_9'
p55
I0
sS'postset_heartrate'
p56
I120
sS'went_to_failure'
p57
I0
sS'velocities_arr_8'
p58
I0
sS'velocities_arr_10'
p59
I0
sS'velocities_arr_11'
p60
I0
sS'did_pull_muscle'
p61
I0
ssS'workoutxseries'
p62
(lp63
(dp64
S'velocities_arr_0'
p65
I0
sS'velocities_arr_1'
p66
I0
sS'velocities_arr_2'
p67
I0
sS'velocities_arr_3'
p68
I0
sS'velocities_arr_4'
p69
I0
sS'velocities_arr_5'
p70
I0
sS'velocities_arr_6'
p71
I0
sS'velocities_arr_7'
p72
I0
sS'velocities_arr_8'
p73
I0
sS'velocities_arr_9'
p74
I0
sg56
I-1
sS'weight_lbs'
p75
I-1
sS'category_exercise_name_10'
p76
I0
sS'category_exercise_name_2'
p77
I0
sg54
I-1
sS'reps_planned'
p78
I-1
sS'category_exercise_name_0'
p79
I0
sS'category_exercise_name_1'
p80
I0
sS'velocities_arr_10'
p81
I0
sS'category_exercise_name_3'
p82
I0
sS'category_exercise_name_4'
p83
I0
sS'category_exercise_name_5'
p84
I0
sS'category_exercise_name_6'
p85
I0
sS'category_exercise_name_7'
p86
I0
sS'category_exercise_name_8'
p87
I0
sS'category_exercise_name_9'
p88
I0
sg57
I0
sS'used_lifting_gear'
p89
I0
sS'velocities_arr_11'
p90
I0
sg61
I0
sg34
I0
sag64
ag64
ag64
ag64
ag64
ag64
ag64
ag64
ag64
ag64
ag64
ag64
ag64
ag64
ag64
ag64
ag64
ag64
a(dp91
S'velocities_arr_0'
p92
F1.11
sS'velocities_arr_1'
p93
F1.07
sS'velocities_arr_2'
p94
F1.08
sS'velocities_arr_3'
p95
F1.12
sS'velocities_arr_4'
p96
F1.62
sS'velocities_arr_5'
p97
I0
sS'velocities_arr_6'
p98
I0
sS'velocities_arr_7'
p99
I0
sS'velocities_arr_8'
p100
I0
sS'velocities_arr_9'
p101
I0
sg56
I107
sg75
I45
sS'category_exercise_name_10'
p102
I0
sS'velocities_arr_10'
p103
I0
sg54
I5
sg78
I5
sS'category_exercise_name_0'
p104
I0
sS'category_exercise_name_1'
p105
I0
sS'category_exercise_name_2'
p106
I1
sS'category_exercise_name_3'
p107
I0
sS'category_exercise_name_4'
p108
I0
sS'category_exercise_name_5'
p109
I0
sS'category_exercise_name_6'
p110
I0
sS'category_exercise_name_7'
p111
I0
sS'category_exercise_name_8'
p112
I0
sS'category_exercise_name_9'
p113
I0
sg57
I0
sg89
I0
sS'velocities_arr_11'
p114
I0
sg61
I0
sg34
I0
sa(dp115
S'velocities_arr_0'
p116
F0.77
sS'velocities_arr_1'
p117
F0.82
sS'velocities_arr_2'
p118
F0.83
sS'velocities_arr_3'
p119
F0.79
sS'velocities_arr_4'
p120
F0.77
sS'velocities_arr_5'
p121
I0
sS'velocities_arr_6'
p122
I0
sS'velocities_arr_7'
p123
I0
sS'velocities_arr_8'
p124
I0
sS'velocities_arr_9'
p125
I0
sg56
I125
sg75
I135
sS'category_exercise_name_10'
p126
I0
sS'velocities_arr_10'
p127
I0
sg54
I5
sg78
I5
sS'category_exercise_name_0'
p128
I0
sS'category_exercise_name_1'
p129
I0
sS'category_exercise_name_2'
p130
I1
sS'category_exercise_name_3'
p131
I0
sS'category_exercise_name_4'
p132
I0
sS'category_exercise_name_5'
p133
I0
sS'category_exercise_name_6'
p134
I0
sS'category_exercise_name_7'
p135
I0
sS'category_exercise_name_8'
p136
I0
sS'category_exercise_name_9'
p137
I0
sg57
I0
sg89
I0
sS'velocities_arr_11'
p138
I0
sg61
I0
sg34
I0
sa(dp139
S'velocities_arr_0'
p140
F0.68
sS'velocities_arr_1'
p141
F0.69
sS'velocities_arr_2'
p142
F0.65
sS'velocities_arr_3'
p143
F0.63
sS'velocities_arr_4'
p144
F0.61
sS'velocities_arr_5'
p145
I0
sS'velocities_arr_6'
p146
I0
sS'velocities_arr_7'
p147
I0
sS'velocities_arr_8'
p148
I0
sS'velocities_arr_9'
p149
I0
sg56
I131
sg75
I185
sS'category_exercise_name_10'
p150
I0
sS'velocities_arr_10'
p151
I0
sg54
I5
sg78
I5
sS'category_exercise_name_0'
p152
I0
sS'category_exercise_name_1'
p153
I0
sS'category_exercise_name_2'
p154
I1
sS'category_exercise_name_3'
p155
I0
sS'category_exercise_name_4'
p156
I0
sS'category_exercise_name_5'
p157
I0
sS'category_exercise_name_6'
p158
I0
sS'category_exercise_name_7'
p159
I0
sS'category_exercise_name_8'
p160
I0
sS'category_exercise_name_9'
p161
I0
sg57
I0
sg89
I0
sS'velocities_arr_11'
p162
I0
sg61
I0
sg34
I0
sa(dp163
S'velocities_arr_0'
p164
F0.64
sS'velocities_arr_1'
p165
F0.63
sS'velocities_arr_2'
p166
F0.62
sS'velocities_arr_3'
p167
F0.57
sS'velocities_arr_4'
p168
F0.56
sS'velocities_arr_5'
p169
I0
sS'velocities_arr_6'
p170
I0
sS'velocities_arr_7'
p171
I0
sS'velocities_arr_8'
p172
I0
sS'velocities_arr_9'
p173
I0
sg56
I141
sg75
I205
sS'category_exercise_name_10'
p174
I0
sS'velocities_arr_10'
p175
I0
sg54
I5
sg78
I5
sS'category_exercise_name_0'
p176
I0
sS'category_exercise_name_1'
p177
I0
sS'category_exercise_name_2'
p178
I1
sS'category_exercise_name_3'
p179
I0
sS'category_exercise_name_4'
p180
I0
sS'category_exercise_name_5'
p181
I0
sS'category_exercise_name_6'
p182
I0
sS'category_exercise_name_7'
p183
I0
sS'category_exercise_name_8'
p184
I0
sS'category_exercise_name_9'
p185
I0
sg57
I0
sg89
I0
sS'velocities_arr_11'
p186
I0
sg61
I0
sg34
I0
sa(dp187
S'velocities_arr_0'
p188
F0.62
sS'velocities_arr_1'
p189
F0.57
sS'velocities_arr_2'
p190
F0.52
sS'velocities_arr_3'
p191
F0.51
sS'velocities_arr_4'
p192
F0.46
sS'velocities_arr_5'
p193
I0
sS'velocities_arr_6'
p194
I0
sS'velocities_arr_7'
p195
I0
sS'velocities_arr_8'
p196
I0
sS'velocities_arr_9'
p197
I0
sg56
I148
sg75
I225
sS'category_exercise_name_10'
p198
I0
sS'velocities_arr_10'
p199
I0
sg54
I5
sg78
I5
sS'category_exercise_name_0'
p200
I0
sS'category_exercise_name_1'
p201
I0
sS'category_exercise_name_2'
p202
I1
sS'category_exercise_name_3'
p203
I0
sS'category_exercise_name_4'
p204
I0
sS'category_exercise_name_5'
p205
I0
sS'category_exercise_name_6'
p206
I0
sS'category_exercise_name_7'
p207
I0
sS'category_exercise_name_8'
p208
I0
sS'category_exercise_name_9'
p209
I0
sg57
I0
sg89
I0
sS'velocities_arr_11'
p210
I0
sg61
I0
sg34
I0
sa(dp211
S'velocities_arr_0'
p212
F0.71
sS'velocities_arr_1'
p213
F0.57
sS'velocities_arr_2'
p214
F0.65
sS'velocities_arr_3'
p215
F0.65
sS'velocities_arr_4'
p216
F0.62
sS'velocities_arr_5'
p217
F0.61
sS'velocities_arr_6'
p218
F0.54
sS'velocities_arr_7'
p219
F0.61
sS'velocities_arr_8'
p220
F0.52
sS'velocities_arr_9'
p221
F0.49
sg56
I111
sg75
I105
sS'category_exercise_name_10'
p222
I0
sS'velocities_arr_10'
p223
F0.47
sg54
I12
sg78
I12
sS'category_exercise_name_0'
p224
I0
sS'category_exercise_name_1'
p225
I0
sS'category_exercise_name_2'
p226
I0
sS'category_exercise_name_3'
p227
I1
sS'category_exercise_name_4'
p228
I0
sS'category_exercise_name_5'
p229
I0
sS'category_exercise_name_6'
p230
I0
sS'category_exercise_name_7'
p231
I0
sS'category_exercise_name_8'
p232
I0
sS'category_exercise_name_9'
p233
I0
sg57
I0
sg89
I0
sS'velocities_arr_11'
p234
F0.47
sg61
I0
sg34
I0
sa(dp235
S'velocities_arr_0'
p236
F0.56
sS'velocities_arr_1'
p237
F0.62
sS'velocities_arr_2'
p238
F0.59
sS'velocities_arr_3'
p239
F0.61
sS'velocities_arr_4'
p240
F0.59
sS'velocities_arr_5'
p241
F0.57
sS'velocities_arr_6'
p242
F0.52
sS'velocities_arr_7'
p243
F0.46
sS'velocities_arr_8'
p244
I0
sS'velocities_arr_9'
p245
I0
sg56
I114
sg75
I115
sS'category_exercise_name_10'
p246
I0
sS'velocities_arr_10'
p247
I0
sg54
I8
sg78
I8
sS'category_exercise_name_0'
p248
I0
sS'category_exercise_name_1'
p249
I0
sS'category_exercise_name_2'
p250
I0
sS'category_exercise_name_3'
p251
I1
sS'category_exercise_name_4'
p252
I0
sS'category_exercise_name_5'
p253
I0
sS'category_exercise_name_6'
p254
I0
sS'category_exercise_name_7'
p255
I0
sS'category_exercise_name_8'
p256
I0
sS'category_exercise_name_9'
p257
I0
sg57
I0
sg89
I0
sS'velocities_arr_11'
p258
I0
sg61
I0
sg34
I0
sa(dp259
S'velocities_arr_0'
p260
F0.49
sS'velocities_arr_1'
p261
F0.51
sS'velocities_arr_2'
p262
F0.46
sS'velocities_arr_3'
p263
F0.43
sS'velocities_arr_4'
p264
F0.39
sS'velocities_arr_5'
p265
I0
sS'velocities_arr_6'
p266
I0
sS'velocities_arr_7'
p267
I0
sS'velocities_arr_8'
p268
I0
sS'velocities_arr_9'
p269
I0
sg56
I130
sg75
I125
sS'category_exercise_name_10'
p270
I0
sS'velocities_arr_10'
p271
I0
sg54
I5
sg78
I5
sS'category_exercise_name_0'
p272
I0
sS'category_exercise_name_1'
p273
I0
sS'category_exercise_name_2'
p274
I0
sS'category_exercise_name_3'
p275
I1
sS'category_exercise_name_4'
p276
I0
sS'category_exercise_name_5'
p277
I0
sS'category_exercise_name_6'
p278
I0
sS'category_exercise_name_7'
p279
I0
sS'category_exercise_name_8'
p280
I0
sS'category_exercise_name_9'
p281
I0
sg57
I0
sg89
I0
sS'velocities_arr_11'
p282
I0
sg61
I0
sg34
I0
sa(dp283
S'velocities_arr_0'
p284
F0.49
sS'velocities_arr_1'
p285
F0.82
sS'velocities_arr_2'
p286
F0.68
sS'velocities_arr_3'
p287
F0.61
sS'velocities_arr_4'
p288
F0.56
sS'velocities_arr_5'
p289
I0
sS'velocities_arr_6'
p290
I0
sS'velocities_arr_7'
p291
I0
sS'velocities_arr_8'
p292
I0
sS'velocities_arr_9'
p293
I0
sg56
I116
sg75
I185
sS'category_exercise_name_10'
p294
I0
sS'velocities_arr_10'
p295
I0
sg54
I5
sg78
I5
sS'category_exercise_name_0'
p296
I1
sS'category_exercise_name_1'
p297
I0
sS'category_exercise_name_2'
p298
I0
sS'category_exercise_name_3'
p299
I0
sS'category_exercise_name_4'
p300
I0
sS'category_exercise_name_5'
p301
I0
sS'category_exercise_name_6'
p302
I0
sS'category_exercise_name_7'
p303
I0
sS'category_exercise_name_8'
p304
I0
sS'category_exercise_name_9'
p305
I0
sg57
I0
sg89
I0
sS'velocities_arr_11'
p306
I0
sg61
I0
sg34
F3.0
sa(dp307
S'velocities_arr_0'
p308
F0.59
sS'velocities_arr_1'
p309
F0.55
sS'velocities_arr_2'
p310
F1.29
sS'velocities_arr_3'
p311
F1.29
sS'velocities_arr_4'
p312
F1.29
sS'velocities_arr_5'
p313
I0
sS'velocities_arr_6'
p314
I0
sS'velocities_arr_7'
p315
I0
sS'velocities_arr_8'
p316
I0
sS'velocities_arr_9'
p317
I0
sg56
I115
sg75
I225
sS'category_exercise_name_10'
p318
I0
sS'velocities_arr_10'
p319
I0
sg54
I5
sg78
I5
sS'category_exercise_name_0'
p320
I1
sS'category_exercise_name_1'
p321
I0
sS'category_exercise_name_2'
p322
I0
sS'category_exercise_name_3'
p323
I0
sS'category_exercise_name_4'
p324
I0
sS'category_exercise_name_5'
p325
I0
sS'category_exercise_name_6'
p326
I0
sS'category_exercise_name_7'
p327
I0
sS'category_exercise_name_8'
p328
I0
sS'category_exercise_name_9'
p329
I0
sg57
I0
sg89
I0
sS'velocities_arr_11'
p330
I0
sg61
I0
sg34
F3.0
sa(dp331
S'velocities_arr_0'
p332
F0.53
sS'velocities_arr_1'
p333
F0.56
sS'velocities_arr_2'
p334
F0.59
sS'velocities_arr_3'
p335
F0.54
sS'velocities_arr_4'
p336
F0.54
sS'velocities_arr_5'
p337
I0
sS'velocities_arr_6'
p338
I0
sS'velocities_arr_7'
p339
I0
sS'velocities_arr_8'
p340
I0
sS'velocities_arr_9'
p341
I0
sg56
I130
sg75
I245
sS'category_exercise_name_10'
p342
I0
sS'velocities_arr_10'
p343
I0
sg54
I5
sg78
I5
sS'category_exercise_name_0'
p344
I1
sS'category_exercise_name_1'
p345
I0
sS'category_exercise_name_2'
p346
I0
sS'category_exercise_name_3'
p347
I0
sS'category_exercise_name_4'
p348
I0
sS'category_exercise_name_5'
p349
I0
sS'category_exercise_name_6'
p350
I0
sS'category_exercise_name_7'
p351
I0
sS'category_exercise_name_8'
p352
I0
sS'category_exercise_name_9'
p353
I0
sg57
I0
sg89
I0
sS'velocities_arr_11'
p354
I0
sg61
I0
sg34
F3.0
sa(dp355
S'velocities_arr_0'
p356
F0.5
sS'velocities_arr_1'
p357
F0.5
sS'velocities_arr_2'
p358
I0
sS'velocities_arr_3'
p359
I0
sS'velocities_arr_4'
p360
I0
sS'velocities_arr_5'
p361
I0
sS'velocities_arr_6'
p362
I0
sS'velocities_arr_7'
p363
I0
sS'velocities_arr_8'
p364
I0
sS'velocities_arr_9'
p365
I0
sg56
I121
sg75
I265
sS'category_exercise_name_10'
p366
I0
sS'velocities_arr_10'
p367
I0
sg54
I2
sg78
I2
sS'category_exercise_name_0'
p368
I1
sS'category_exercise_name_1'
p369
I0
sS'category_exercise_name_2'
p370
I0
sS'category_exercise_name_3'
p371
I0
sS'category_exercise_name_4'
p372
I0
sS'category_exercise_name_5'
p373
I0
sS'category_exercise_name_6'
p374
I0
sS'category_exercise_name_7'
p375
I0
sS'category_exercise_name_8'
p376
I0
sS'category_exercise_name_9'
p377
I0
sg57
I0
sg89
I0
sS'velocities_arr_11'
p378
I0
sg61
I0
sg34
F3.0
sa(dp379
S'velocities_arr_0'
p380
F1.07
sS'velocities_arr_1'
p381
F1.2
sS'velocities_arr_2'
p382
F1.07
sS'velocities_arr_3'
p383
F1.13
sS'velocities_arr_4'
p384
F0.71
sS'velocities_arr_5'
p385
I0
sS'velocities_arr_6'
p386
I0
sS'velocities_arr_7'
p387
I0
sS'velocities_arr_8'
p388
I0
sS'velocities_arr_9'
p389
I0
sg56
I99
sg75
I45
sS'category_exercise_name_10'
p390
I0
sS'velocities_arr_10'
p391
I0
sg54
I5
sg78
I5
sS'category_exercise_name_0'
p392
I0
sS'category_exercise_name_1'
p393
I0
sS'category_exercise_name_2'
p394
I1
sS'category_exercise_name_3'
p395
I0
sS'category_exercise_name_4'
p396
I0
sS'category_exercise_name_5'
p397
I0
sS'category_exercise_name_6'
p398
I0
sS'category_exercise_name_7'
p399
I0
sS'category_exercise_name_8'
p400
I0
sS'category_exercise_name_9'
p401
I0
sg57
I0
sg89
I0
sS'velocities_arr_11'
p402
I0
sg61
I0
sg34
F4.0
sa(dp403
g65
I0
sg66
I0
sg67
I0
sg68
I0
sg69
I0
sg70
I0
sg71
I0
sg72
I0
sg73
I0
sg74
I0
sg56
I-1
sg75
I135
sg76
I0
sg54
I-1
sg78
I5
sg79
I0
sg80
I0
sg81
I0
sg82
I0
sg83
I0
sg84
I0
sg85
I0
sg86
I0
sg87
I0
sg88
I0
sg57
I-1
sg77
I1
sg89
I0
sg90
I0
sg61
I-1
sg34
F4.0
sas.