(dp0
S'userx'
p1
(dp2
S'wrist_width_inches'
p3
I7
sS'height_inches'
p4
F70.0
sS'harris_benedict_bmr'
p5
I-1
sS'genetically_gifted'
p6
I0
sS'years_old'
p7
I31
sS'ankle_width_inches'
p8
I9
sS'sex_is_male'
p9
I1
ssS'dayseriesx'
p10
(lp11
(dp12
S'sleeptime_awake_hrs'
p13
I-1
sS'withings_body_water_percent'
p14
I-1
sS'heart_rate_variability_rmssd'
p15
I-1
sS'sleeptime_deep_rem_hrs'
p16
I-1
sS'withings_body_fat_percent'
p17
I-1
sS'withings_weight_lbs'
p18
I-1
sS'sleeptime_efficiency_percent'
p19
I-1
sS'post_day_calories_in'
p20
I-1
sS'post_day_fat_g'
p21
I-1
sS'sleeptime_bed_time_ampm_index'
p22
I-1
sS'withings_muscle_mass_percent'
p23
I-1
sS'sleeptime_alarm_ring_ampm_index'
p24
I-1
sS'withings_bone_mass_percent'
p25
I-1
sS'sleeptime_snoozed'
p26
I-1
sS'sleeptime_light_sleep_hrs'
p27
I-1
sS'withings_heart_rate_bpm'
p28
I-1
sS'sleeptime_alarm_set_ampm_index'
p29
I-1
sS'post_day_protein_g'
p30
I-1
sS'post_day_wearable_calories_burned'
p31
I-1
sS'withings_pulse_wave_velocity_m_per_s'
p32
I-1
sS'sleeptime_rise_time_ampm_index'
p33
I-1
sS'days_since_last_workout'
p34
I-1
sS'post_day_carbs_g'
p35
I-1
sag12
ag12
ag12
ag12
ag12
ag12
a(dp36
g13
F4.833333333333333
sg14
F55.7
sg15
I-1
sg16
F2.9166666666666665
sg17
F16.0
sg18
F163.5
sg19
F47.0
sg20
I-1
sg21
I-1
sg22
I566
sg23
F80.0
sg24
I1440
sg25
F4.0
sg26
I0
sg27
F1.3666666666666667
sg28
I77
sg29
I421
sg30
I-1
sg31
I-1
sg32
F7.8
sg33
I395
sg34
I0
sg35
I-1
sa(dp37
g13
F0.3333333333333333
sg14
F55.4
sg15
I-1
sg16
F2.8
sg17
F16.6
sg18
F162.5
sg19
F96.0
sg20
I-1
sg21
I-1
sg22
I710
sg23
F79.4
sg24
I1440
sg25
F4.0
sg26
I0
sg27
F5.866666666666667
sg28
I75
sg29
I589
sg30
I-1
sg31
I-1
sg32
F7.7
sg33
I532
sg34
F1.0
sg35
I-1
sa(dp38
g13
F0.9833333333333333
sg14
F55.9
sg15
I-1
sg16
F4.466666666666667
sg17
F15.7
sg18
F163.5
sg19
F89.0
sg20
I-1
sg21
I-1
sg22
I1419
sg23
F80.4
sg24
I1440
sg25
F4.0
sg26
I0
sg27
F4.016666666666667
sg28
I-1
sg29
I589
sg30
I-1
sg31
I-1
sg32
I-1
sg33
I548
sg34
F2.0
sg35
I-1
sa(dp39
g13
F0.9166666666666666
sg14
F56.4
sg15
I-1
sg16
F4.1
sg17
F14.8
sg18
F163.7
sg19
F88.0
sg20
I-1
sg21
I-1
sg22
I1389
sg23
F81.2
sg24
I411
sg25
F4.0
sg26
I4
sg27
F3.1666666666666665
sg28
I86
sg29
I425
sg30
I-1
sg31
I-1
sg32
F7.4
sg33
I441
sg34
F3.0
sg35
I-1
sasS'workouty'
p40
(dp41
S'velocities_arr_0'
p42
F0.53
sS'velocities_arr_1'
p43
F0.56
sS'velocities_arr_2'
p44
F0.59
sS'velocities_arr_3'
p45
F0.54
sS'velocities_arr_4'
p46
F0.54
sS'velocities_arr_5'
p47
I0
sS'velocities_arr_6'
p48
I0
sS'velocities_arr_7'
p49
I0
sS'reps_completed'
p50
I5
sS'velocities_arr_9'
p51
I0
sS'postset_heartrate'
p52
I130
sS'went_to_failure'
p53
I0
sS'velocities_arr_8'
p54
I0
sS'velocities_arr_10'
p55
I0
sS'velocities_arr_11'
p56
I0
sS'did_pull_muscle'
p57
I0
ssS'workoutxseries'
p58
(lp59
(dp60
S'velocities_arr_0'
p61
I0
sS'velocities_arr_1'
p62
I0
sS'velocities_arr_2'
p63
I0
sS'velocities_arr_3'
p64
I0
sS'velocities_arr_4'
p65
I0
sS'velocities_arr_5'
p66
I0
sS'velocities_arr_6'
p67
I0
sS'velocities_arr_7'
p68
I0
sS'velocities_arr_8'
p69
I0
sS'velocities_arr_9'
p70
I0
sg52
I-1
sS'weight_lbs'
p71
I-1
sS'category_exercise_name_10'
p72
I0
sS'category_exercise_name_2'
p73
I0
sg50
I-1
sS'reps_planned'
p74
I-1
sS'category_exercise_name_0'
p75
I0
sS'category_exercise_name_1'
p76
I0
sS'velocities_arr_10'
p77
I0
sS'category_exercise_name_3'
p78
I0
sS'category_exercise_name_4'
p79
I0
sS'category_exercise_name_5'
p80
I0
sS'category_exercise_name_6'
p81
I0
sS'category_exercise_name_7'
p82
I0
sS'category_exercise_name_8'
p83
I0
sS'category_exercise_name_9'
p84
I0
sS'set_number_of_the_day'
p85
I2
sg53
I0
sS'used_lifting_gear'
p86
I0
sS'velocities_arr_11'
p87
I0
sg57
I0
sg34
I0
sag60
ag60
ag60
ag60
ag60
ag60
ag60
ag60
ag60
ag60
ag60
ag60
ag60
ag60
ag60
ag60
ag60
ag60
ag60
ag60
ag60
a(dp88
S'velocities_arr_0'
p89
F1.11
sS'velocities_arr_1'
p90
F1.07
sS'velocities_arr_2'
p91
F1.08
sS'velocities_arr_3'
p92
F1.12
sS'velocities_arr_4'
p93
F1.62
sS'velocities_arr_5'
p94
I0
sS'velocities_arr_6'
p95
I0
sS'velocities_arr_7'
p96
I0
sS'velocities_arr_8'
p97
I0
sS'velocities_arr_9'
p98
I0
sg52
I107
sg71
I45
sS'category_exercise_name_10'
p99
I0
sS'velocities_arr_10'
p100
I0
sg50
I5
sg74
I5
sS'category_exercise_name_0'
p101
I0
sS'category_exercise_name_1'
p102
I0
sS'category_exercise_name_2'
p103
I1
sS'category_exercise_name_3'
p104
I0
sS'category_exercise_name_4'
p105
I0
sS'category_exercise_name_5'
p106
I0
sS'category_exercise_name_6'
p107
I0
sS'category_exercise_name_7'
p108
I0
sS'category_exercise_name_8'
p109
I0
sS'category_exercise_name_9'
p110
I0
sg85
I0
sg53
I0
sg86
I0
sS'velocities_arr_11'
p111
I0
sg57
I0
sg34
I0
sa(dp112
S'velocities_arr_0'
p113
F0.77
sS'velocities_arr_1'
p114
F0.82
sS'velocities_arr_2'
p115
F0.83
sS'velocities_arr_3'
p116
F0.79
sS'velocities_arr_4'
p117
F0.77
sS'velocities_arr_5'
p118
I0
sS'velocities_arr_6'
p119
I0
sS'velocities_arr_7'
p120
I0
sS'velocities_arr_8'
p121
I0
sS'velocities_arr_9'
p122
I0
sg52
I125
sg71
I135
sS'category_exercise_name_10'
p123
I0
sS'velocities_arr_10'
p124
I0
sg50
I5
sg74
I5
sS'category_exercise_name_0'
p125
I0
sS'category_exercise_name_1'
p126
I0
sS'category_exercise_name_2'
p127
I1
sS'category_exercise_name_3'
p128
I0
sS'category_exercise_name_4'
p129
I0
sS'category_exercise_name_5'
p130
I0
sS'category_exercise_name_6'
p131
I0
sS'category_exercise_name_7'
p132
I0
sS'category_exercise_name_8'
p133
I0
sS'category_exercise_name_9'
p134
I0
sg85
I1
sg53
I0
sg86
I0
sS'velocities_arr_11'
p135
I0
sg57
I0
sg34
I0
sa(dp136
S'velocities_arr_0'
p137
F0.68
sS'velocities_arr_1'
p138
F0.69
sS'velocities_arr_2'
p139
F0.65
sS'velocities_arr_3'
p140
F0.63
sS'velocities_arr_4'
p141
F0.61
sS'velocities_arr_5'
p142
I0
sS'velocities_arr_6'
p143
I0
sS'velocities_arr_7'
p144
I0
sS'velocities_arr_8'
p145
I0
sS'velocities_arr_9'
p146
I0
sg52
I131
sg71
I185
sS'category_exercise_name_10'
p147
I0
sS'velocities_arr_10'
p148
I0
sg50
I5
sg74
I5
sS'category_exercise_name_0'
p149
I0
sS'category_exercise_name_1'
p150
I0
sS'category_exercise_name_2'
p151
I1
sS'category_exercise_name_3'
p152
I0
sS'category_exercise_name_4'
p153
I0
sS'category_exercise_name_5'
p154
I0
sS'category_exercise_name_6'
p155
I0
sS'category_exercise_name_7'
p156
I0
sS'category_exercise_name_8'
p157
I0
sS'category_exercise_name_9'
p158
I0
sg85
I2
sg53
I0
sg86
I0
sS'velocities_arr_11'
p159
I0
sg57
I0
sg34
I0
sa(dp160
S'velocities_arr_0'
p161
F0.64
sS'velocities_arr_1'
p162
F0.63
sS'velocities_arr_2'
p163
F0.62
sS'velocities_arr_3'
p164
F0.57
sS'velocities_arr_4'
p165
F0.56
sS'velocities_arr_5'
p166
I0
sS'velocities_arr_6'
p167
I0
sS'velocities_arr_7'
p168
I0
sS'velocities_arr_8'
p169
I0
sS'velocities_arr_9'
p170
I0
sg52
I141
sg71
I205
sS'category_exercise_name_10'
p171
I0
sS'velocities_arr_10'
p172
I0
sg50
I5
sg74
I5
sS'category_exercise_name_0'
p173
I0
sS'category_exercise_name_1'
p174
I0
sS'category_exercise_name_2'
p175
I1
sS'category_exercise_name_3'
p176
I0
sS'category_exercise_name_4'
p177
I0
sS'category_exercise_name_5'
p178
I0
sS'category_exercise_name_6'
p179
I0
sS'category_exercise_name_7'
p180
I0
sS'category_exercise_name_8'
p181
I0
sS'category_exercise_name_9'
p182
I0
sg85
I3
sg53
I0
sg86
I0
sS'velocities_arr_11'
p183
I0
sg57
I0
sg34
I0
sa(dp184
S'velocities_arr_0'
p185
F0.62
sS'velocities_arr_1'
p186
F0.57
sS'velocities_arr_2'
p187
F0.52
sS'velocities_arr_3'
p188
F0.51
sS'velocities_arr_4'
p189
F0.46
sS'velocities_arr_5'
p190
I0
sS'velocities_arr_6'
p191
I0
sS'velocities_arr_7'
p192
I0
sS'velocities_arr_8'
p193
I0
sS'velocities_arr_9'
p194
I0
sg52
I148
sg71
I225
sS'category_exercise_name_10'
p195
I0
sS'velocities_arr_10'
p196
I0
sg50
I5
sg74
I5
sS'category_exercise_name_0'
p197
I0
sS'category_exercise_name_1'
p198
I0
sS'category_exercise_name_2'
p199
I1
sS'category_exercise_name_3'
p200
I0
sS'category_exercise_name_4'
p201
I0
sS'category_exercise_name_5'
p202
I0
sS'category_exercise_name_6'
p203
I0
sS'category_exercise_name_7'
p204
I0
sS'category_exercise_name_8'
p205
I0
sS'category_exercise_name_9'
p206
I0
sg85
I4
sg53
I0
sg86
I0
sS'velocities_arr_11'
p207
I0
sg57
I0
sg34
I0
sa(dp208
S'velocities_arr_0'
p209
F0.71
sS'velocities_arr_1'
p210
F0.57
sS'velocities_arr_2'
p211
F0.65
sS'velocities_arr_3'
p212
F0.65
sS'velocities_arr_4'
p213
F0.62
sS'velocities_arr_5'
p214
F0.61
sS'velocities_arr_6'
p215
F0.54
sS'velocities_arr_7'
p216
F0.61
sS'velocities_arr_8'
p217
F0.52
sS'velocities_arr_9'
p218
F0.49
sg52
I111
sg71
I105
sS'category_exercise_name_10'
p219
I0
sS'velocities_arr_10'
p220
F0.47
sg50
I12
sg74
I12
sS'category_exercise_name_0'
p221
I0
sS'category_exercise_name_1'
p222
I0
sS'category_exercise_name_2'
p223
I0
sS'category_exercise_name_3'
p224
I1
sS'category_exercise_name_4'
p225
I0
sS'category_exercise_name_5'
p226
I0
sS'category_exercise_name_6'
p227
I0
sS'category_exercise_name_7'
p228
I0
sS'category_exercise_name_8'
p229
I0
sS'category_exercise_name_9'
p230
I0
sg85
I5
sg53
I0
sg86
I0
sS'velocities_arr_11'
p231
F0.47
sg57
I0
sg34
I0
sa(dp232
S'velocities_arr_0'
p233
F0.56
sS'velocities_arr_1'
p234
F0.62
sS'velocities_arr_2'
p235
F0.59
sS'velocities_arr_3'
p236
F0.61
sS'velocities_arr_4'
p237
F0.59
sS'velocities_arr_5'
p238
F0.57
sS'velocities_arr_6'
p239
F0.52
sS'velocities_arr_7'
p240
F0.46
sS'velocities_arr_8'
p241
I0
sS'velocities_arr_9'
p242
I0
sg52
I114
sg71
I115
sS'category_exercise_name_10'
p243
I0
sS'velocities_arr_10'
p244
I0
sg50
I8
sg74
I8
sS'category_exercise_name_0'
p245
I0
sS'category_exercise_name_1'
p246
I0
sS'category_exercise_name_2'
p247
I0
sS'category_exercise_name_3'
p248
I1
sS'category_exercise_name_4'
p249
I0
sS'category_exercise_name_5'
p250
I0
sS'category_exercise_name_6'
p251
I0
sS'category_exercise_name_7'
p252
I0
sS'category_exercise_name_8'
p253
I0
sS'category_exercise_name_9'
p254
I0
sg85
I6
sg53
I0
sg86
I0
sS'velocities_arr_11'
p255
I0
sg57
I0
sg34
I0
sa(dp256
S'velocities_arr_0'
p257
F0.49
sS'velocities_arr_1'
p258
F0.51
sS'velocities_arr_2'
p259
F0.46
sS'velocities_arr_3'
p260
F0.43
sS'velocities_arr_4'
p261
F0.39
sS'velocities_arr_5'
p262
I0
sS'velocities_arr_6'
p263
I0
sS'velocities_arr_7'
p264
I0
sS'velocities_arr_8'
p265
I0
sS'velocities_arr_9'
p266
I0
sg52
I130
sg71
I125
sS'category_exercise_name_10'
p267
I0
sS'velocities_arr_10'
p268
I0
sg50
I5
sg74
I5
sS'category_exercise_name_0'
p269
I0
sS'category_exercise_name_1'
p270
I0
sS'category_exercise_name_2'
p271
I0
sS'category_exercise_name_3'
p272
I1
sS'category_exercise_name_4'
p273
I0
sS'category_exercise_name_5'
p274
I0
sS'category_exercise_name_6'
p275
I0
sS'category_exercise_name_7'
p276
I0
sS'category_exercise_name_8'
p277
I0
sS'category_exercise_name_9'
p278
I0
sg85
I7
sg53
I0
sg86
I0
sS'velocities_arr_11'
p279
I0
sg57
I0
sg34
I0
sa(dp280
S'velocities_arr_0'
p281
F0.49
sS'velocities_arr_1'
p282
F0.82
sS'velocities_arr_2'
p283
F0.68
sS'velocities_arr_3'
p284
F0.61
sS'velocities_arr_4'
p285
F0.56
sS'velocities_arr_5'
p286
I0
sS'velocities_arr_6'
p287
I0
sS'velocities_arr_7'
p288
I0
sS'velocities_arr_8'
p289
I0
sS'velocities_arr_9'
p290
I0
sg52
I116
sg71
I185
sS'category_exercise_name_10'
p291
I0
sS'velocities_arr_10'
p292
I0
sg50
I5
sg74
I5
sS'category_exercise_name_0'
p293
I1
sS'category_exercise_name_1'
p294
I0
sS'category_exercise_name_2'
p295
I0
sS'category_exercise_name_3'
p296
I0
sS'category_exercise_name_4'
p297
I0
sS'category_exercise_name_5'
p298
I0
sS'category_exercise_name_6'
p299
I0
sS'category_exercise_name_7'
p300
I0
sS'category_exercise_name_8'
p301
I0
sS'category_exercise_name_9'
p302
I0
sg85
I0
sg53
I0
sg86
I0
sS'velocities_arr_11'
p303
I0
sg57
I0
sg34
F3.0
sa(dp304
S'velocities_arr_0'
p305
F0.59
sS'velocities_arr_1'
p306
F0.55
sS'velocities_arr_2'
p307
F1.29
sS'velocities_arr_3'
p308
F1.29
sS'velocities_arr_4'
p309
F1.29
sS'velocities_arr_5'
p310
I0
sS'velocities_arr_6'
p311
I0
sS'velocities_arr_7'
p312
I0
sS'velocities_arr_8'
p313
I0
sS'velocities_arr_9'
p314
I0
sg52
I115
sg71
I225
sS'category_exercise_name_10'
p315
I0
sS'velocities_arr_10'
p316
I0
sg50
I5
sg74
I5
sS'category_exercise_name_0'
p317
I1
sS'category_exercise_name_1'
p318
I0
sS'category_exercise_name_2'
p319
I0
sS'category_exercise_name_3'
p320
I0
sS'category_exercise_name_4'
p321
I0
sS'category_exercise_name_5'
p322
I0
sS'category_exercise_name_6'
p323
I0
sS'category_exercise_name_7'
p324
I0
sS'category_exercise_name_8'
p325
I0
sS'category_exercise_name_9'
p326
I0
sg85
I1
sg53
I0
sg86
I0
sS'velocities_arr_11'
p327
I0
sg57
I0
sg34
F3.0
sa(dp328
g61
I0
sg62
I0
sg63
I0
sg64
I0
sg65
I0
sg66
I0
sg67
I0
sg68
I0
sg69
I0
sg70
I0
sg52
I-1
sg71
I245
sg72
I0
sg50
I-1
sg74
I5
sg75
I1
sg76
I0
sg77
I0
sg78
I0
sg79
I0
sg80
I0
sg81
I0
sg82
I0
sg83
I0
sg84
I0
sg85
I2
sg53
I-1
sg73
I0
sg86
I0
sg87
I0
sg57
I-1
sg34
F3.0
sasS'dayy'
p329
(dp330
g13
F0.9166666666666666
sg14
F56.4
sg15
I-1
sg16
F4.1
sg17
F14.8
sg18
F163.7
sg19
F88.0
sg20
I-1
sg21
I-1
sg22
I1389
sg23
F81.2
sg24
I411
sg25
F4.0
sg26
I4
sg27
F3.1666666666666665
sg28
I86
sg29
I425
sg30
I-1
sg31
I-1
sg32
F7.4
sg33
I441
sg34
F0.0
sg35
I-1
ss.