(dp0
S'userx'
p1
(dp2
S'wrist_width_inches'
p3
I7
sS'height_inches'
p4
F70.0
sS'harris_benedict_bmr'
p5
I-1
sS'genetically_gifted'
p6
I0
sS'years_old'
p7
I31
sS'ankle_width_inches'
p8
I9
sS'sex_is_male'
p9
I1
ssS'dayseriesx'
p10
(lp11
(dp12
S'sleeptime_awake_hrs'
p13
I-1
sS'withings_body_water_percent'
p14
I-1
sS'heart_rate_variability_rmssd'
p15
I-1
sS'sleeptime_deep_rem_hrs'
p16
I-1
sS'withings_body_fat_percent'
p17
I-1
sS'withings_weight_lbs'
p18
I-1
sS'sleeptime_efficiency_percent'
p19
I-1
sS'post_day_calories_in'
p20
I-1
sS'post_day_fat_g'
p21
I-1
sS'sleeptime_bed_time_ampm_index'
p22
I-1
sS'withings_muscle_mass_percent'
p23
I-1
sS'sleeptime_alarm_ring_ampm_index'
p24
I-1
sS'withings_bone_mass_percent'
p25
I-1
sS'sleeptime_snoozed'
p26
I-1
sS'sleeptime_light_sleep_hrs'
p27
I-1
sS'withings_heart_rate_bpm'
p28
I-1
sS'sleeptime_alarm_set_ampm_index'
p29
I-1
sS'post_day_protein_g'
p30
I-1
sS'post_day_wearable_calories_burned'
p31
I-1
sS'withings_pulse_wave_velocity_m_per_s'
p32
I-1
sS'sleeptime_rise_time_ampm_index'
p33
I-1
sS'days_since_last_workout'
p34
I-1
sS'post_day_carbs_g'
p35
I-1
sag12
ag12
ag12
ag12
ag12
ag12
ag12
ag12
ag12
a(dp36
g13
F0.31666666666666665
sg14
F56.3
sg15
I-1
sg16
F3.9833333333333334
sg17
F14.9
sg18
F163.2
sg19
F95.0
sg20
I-1
sg21
I-1
sg22
I1430
sg23
F81.1
sg24
I469
sg25
F4.0
sg26
I0
sg27
F3.65
sg28
I87
sg29
I470
sg30
I-1
sg31
I-1
sg32
F7.4
sg33
I469
sg34
I0
sg35
I-1
sasS'workouty'
p37
(dp38
S'velocities_arr_0'
p39
F0.58
sS'velocities_arr_1'
p40
F0.54
sS'velocities_arr_2'
p41
F0.57
sS'velocities_arr_3'
p42
I0
sS'velocities_arr_4'
p43
I0
sS'velocities_arr_5'
p44
I0
sS'velocities_arr_6'
p45
I0
sS'velocities_arr_7'
p46
I0
sS'reps_completed'
p47
I3
sS'velocities_arr_9'
p48
I0
sS'postset_heartrate'
p49
I126
sS'went_to_failure'
p50
I0
sS'velocities_arr_8'
p51
I0
sS'velocities_arr_10'
p52
I0
sS'velocities_arr_11'
p53
I0
sS'did_pull_muscle'
p54
I0
ssS'workoutxseries'
p55
(lp56
(dp57
S'velocities_arr_0'
p58
I0
sS'velocities_arr_1'
p59
I0
sS'velocities_arr_2'
p60
I0
sS'velocities_arr_3'
p61
I0
sS'velocities_arr_4'
p62
I0
sS'velocities_arr_5'
p63
I0
sS'velocities_arr_6'
p64
I0
sS'velocities_arr_7'
p65
I0
sS'velocities_arr_8'
p66
I0
sS'velocities_arr_9'
p67
I0
sg49
I-1
sS'weight_lbs'
p68
I-1
sS'category_exercise_name_10'
p69
I0
sS'category_exercise_name_2'
p70
I0
sg47
I-1
sS'reps_planned'
p71
I-1
sS'category_exercise_name_0'
p72
I0
sS'category_exercise_name_1'
p73
I0
sS'velocities_arr_10'
p74
I0
sS'category_exercise_name_3'
p75
I0
sS'category_exercise_name_4'
p76
I0
sS'category_exercise_name_5'
p77
I0
sS'category_exercise_name_6'
p78
I0
sS'category_exercise_name_7'
p79
I0
sS'category_exercise_name_8'
p80
I0
sS'category_exercise_name_9'
p81
I0
sg50
I0
sS'used_lifting_gear'
p82
I0
sS'velocities_arr_11'
p83
I0
sg54
I0
sg34
I0
sag57
ag57
ag57
ag57
ag57
ag57
ag57
ag57
ag57
ag57
ag57
ag57
ag57
ag57
ag57
ag57
ag57
ag57
ag57
ag57
ag57
ag57
ag57
ag57
ag57
ag57
ag57
ag57
ag57
a(dp84
S'velocities_arr_0'
p85
I1
sS'velocities_arr_1'
p86
F0.98
sS'velocities_arr_2'
p87
F0.98
sS'velocities_arr_3'
p88
F1.04
sS'velocities_arr_4'
p89
F1.03
sS'velocities_arr_5'
p90
I0
sS'velocities_arr_6'
p91
I0
sS'velocities_arr_7'
p92
I0
sS'velocities_arr_8'
p93
I0
sS'velocities_arr_9'
p94
I0
sg49
I112
sg68
I45
sS'category_exercise_name_10'
p95
I0
sS'velocities_arr_10'
p96
I0
sg47
I5
sg71
I5
sS'category_exercise_name_0'
p97
I0
sS'category_exercise_name_1'
p98
I0
sS'category_exercise_name_2'
p99
I1
sS'category_exercise_name_3'
p100
I0
sS'category_exercise_name_4'
p101
I0
sS'category_exercise_name_5'
p102
I0
sS'category_exercise_name_6'
p103
I0
sS'category_exercise_name_7'
p104
I0
sS'category_exercise_name_8'
p105
I0
sS'category_exercise_name_9'
p106
I0
sg50
I0
sg82
I0
sS'velocities_arr_11'
p107
I0
sg54
I0
sg34
I0
sa(dp108
S'velocities_arr_0'
p109
F0.73
sS'velocities_arr_1'
p110
F0.7
sS'velocities_arr_2'
p111
F0.7
sS'velocities_arr_3'
p112
I0
sS'velocities_arr_4'
p113
I0
sS'velocities_arr_5'
p114
I0
sS'velocities_arr_6'
p115
I0
sS'velocities_arr_7'
p116
I0
sS'velocities_arr_8'
p117
I0
sS'velocities_arr_9'
p118
I0
sg49
I119
sg68
I135
sS'category_exercise_name_10'
p119
I0
sS'velocities_arr_10'
p120
I0
sg47
I3
sg71
I3
sS'category_exercise_name_0'
p121
I0
sS'category_exercise_name_1'
p122
I0
sS'category_exercise_name_2'
p123
I1
sS'category_exercise_name_3'
p124
I0
sS'category_exercise_name_4'
p125
I0
sS'category_exercise_name_5'
p126
I0
sS'category_exercise_name_6'
p127
I0
sS'category_exercise_name_7'
p128
I0
sS'category_exercise_name_8'
p129
I0
sS'category_exercise_name_9'
p130
I0
sg50
I0
sg82
I0
sS'velocities_arr_11'
p131
I0
sg54
I0
sg34
I0
sa(dp132
g58
I0
sg59
I0
sg60
I0
sg61
I0
sg62
I0
sg63
I0
sg64
I0
sg65
I0
sg66
I0
sg67
I0
sg49
I-1
sg68
I185
sg69
I0
sg47
I-1
sg71
I3
sg72
I0
sg73
I0
sg74
I0
sg75
I0
sg76
I0
sg77
I0
sg78
I0
sg79
I0
sg80
I0
sg81
I0
sg50
I-1
sg70
I1
sg82
I0
sg83
I0
sg54
I-1
sg34
I0
sas.