(dp0
S'userx'
p1
(dp2
S'wrist_width_inches'
p3
I7
sS'height_inches'
p4
F70.0
sS'harris_benedict_bmr'
p5
I-1
sS'genetically_gifted'
p6
I0
sS'years_old'
p7
I31
sS'ankle_width_inches'
p8
I9
sS'sex_is_male'
p9
I1
ssS'dayseriesx'
p10
(lp11
(dp12
S'sleeptime_awake_hrs'
p13
I-1
sS'withings_body_water_percent'
p14
I-1
sS'heart_rate_variability_rmssd'
p15
I-1
sS'sleeptime_deep_rem_hrs'
p16
I-1
sS'withings_body_fat_percent'
p17
I-1
sS'withings_weight_lbs'
p18
I-1
sS'sleeptime_efficiency_percent'
p19
I-1
sS'post_day_calories_in'
p20
I-1
sS'post_day_fat_g'
p21
I-1
sS'sleeptime_bed_time_ampm_index'
p22
I-1
sS'withings_muscle_mass_percent'
p23
I-1
sS'sleeptime_alarm_ring_ampm_index'
p24
I-1
sS'withings_bone_mass_percent'
p25
I-1
sS'sleeptime_snoozed'
p26
I-1
sS'sleeptime_light_sleep_hrs'
p27
I-1
sS'withings_heart_rate_bpm'
p28
I-1
sS'sleeptime_alarm_set_ampm_index'
p29
I-1
sS'post_day_protein_g'
p30
I-1
sS'post_day_wearable_calories_burned'
p31
I-1
sS'withings_pulse_wave_velocity_m_per_s'
p32
I-1
sS'sleeptime_rise_time_ampm_index'
p33
I-1
sS'days_since_last_workout'
p34
I-1
sS'post_day_carbs_g'
p35
I-1
sag12
ag12
ag12
ag12
ag12
ag12
a(dp36
g13
F0.31666666666666665
sg14
F56.3
sg15
I-1
sg16
F3.9833333333333334
sg17
F14.9
sg18
F163.2
sg19
F95.0
sg20
I-1
sg21
I-1
sg22
I1430
sg23
F81.1
sg24
I469
sg25
F4.0
sg26
I0
sg27
F3.65
sg28
I87
sg29
I470
sg30
I-1
sg31
I-1
sg32
F7.4
sg33
I469
sg34
I0
sg35
I-1
sa(dp37
g13
F0.31666666666666665
sg14
F56.3
sg15
I-1
sg16
F3.9833333333333334
sg17
F14.9
sg18
F163.2
sg19
F95.0
sg20
I-1
sg21
I-1
sg22
I1430
sg23
F81.1
sg24
I469
sg25
F4.0
sg26
I0
sg27
F3.65
sg28
I87
sg29
I470
sg30
I-1
sg31
I-1
sg32
F7.4
sg33
I469
sg34
F0.0
sg35
I-1
sa(dp38
g13
F0.31666666666666665
sg14
F56.3
sg15
I-1
sg16
F3.9833333333333334
sg17
F14.9
sg18
F163.2
sg19
F95.0
sg20
I-1
sg21
I-1
sg22
I1430
sg23
F81.1
sg24
I469
sg25
F4.0
sg26
I0
sg27
F3.65
sg28
I87
sg29
I470
sg30
I-1
sg31
I-1
sg32
F7.4
sg33
I469
sg34
F0.0
sg35
I-1
sa(dp39
g13
F0.31666666666666665
sg14
F56.3
sg15
I-1
sg16
F3.9833333333333334
sg17
F14.9
sg18
F163.2
sg19
F95.0
sg20
I-1
sg21
I-1
sg22
I1430
sg23
F81.1
sg24
I469
sg25
F4.0
sg26
I0
sg27
F3.65
sg28
I87
sg29
I470
sg30
I-1
sg31
I-1
sg32
F7.4
sg33
I469
sg34
F0.0
sg35
I-1
sasS'workouty'
p40
(dp41
S'velocities_arr_0'
p42
F0.49
sS'velocities_arr_1'
p43
F0.82
sS'velocities_arr_2'
p44
F0.68
sS'velocities_arr_3'
p45
F0.61
sS'velocities_arr_4'
p46
F0.56
sS'velocities_arr_5'
p47
I0
sS'velocities_arr_6'
p48
I0
sS'velocities_arr_7'
p49
I0
sS'reps_completed'
p50
I5
sS'velocities_arr_9'
p51
I0
sS'postset_heartrate'
p52
I116
sS'went_to_failure'
p53
I0
sS'velocities_arr_8'
p54
I0
sS'velocities_arr_10'
p55
I0
sS'velocities_arr_11'
p56
I0
sS'did_pull_muscle'
p57
I0
ssS'workoutxseries'
p58
(lp59
(dp60
S'velocities_arr_0'
p61
I0
sS'velocities_arr_1'
p62
I0
sS'velocities_arr_2'
p63
I0
sS'velocities_arr_3'
p64
I0
sS'velocities_arr_4'
p65
I0
sS'velocities_arr_5'
p66
I0
sS'velocities_arr_6'
p67
I0
sS'velocities_arr_7'
p68
I0
sS'velocities_arr_8'
p69
I0
sS'velocities_arr_9'
p70
I0
sg52
I-1
sS'weight_lbs'
p71
I-1
sS'category_exercise_name_10'
p72
I0
sS'category_exercise_name_2'
p73
I0
sg50
I-1
sS'reps_planned'
p74
I-1
sS'category_exercise_name_0'
p75
I0
sS'category_exercise_name_1'
p76
I0
sS'velocities_arr_10'
p77
I0
sS'category_exercise_name_3'
p78
I0
sS'category_exercise_name_4'
p79
I0
sS'category_exercise_name_5'
p80
I0
sS'category_exercise_name_6'
p81
I0
sS'category_exercise_name_7'
p82
I0
sS'category_exercise_name_8'
p83
I0
sS'category_exercise_name_9'
p84
I0
sg53
I0
sS'used_lifting_gear'
p85
I0
sS'velocities_arr_11'
p86
I0
sg57
I0
sg34
I0
sag60
ag60
ag60
ag60
ag60
ag60
ag60
ag60
ag60
ag60
ag60
ag60
ag60
ag60
ag60
ag60
ag60
ag60
ag60
ag60
ag60
ag60
ag60
a(dp87
S'velocities_arr_0'
p88
F1.11
sS'velocities_arr_1'
p89
F1.07
sS'velocities_arr_2'
p90
F1.08
sS'velocities_arr_3'
p91
F1.12
sS'velocities_arr_4'
p92
F1.62
sS'velocities_arr_5'
p93
I0
sS'velocities_arr_6'
p94
I0
sS'velocities_arr_7'
p95
I0
sS'velocities_arr_8'
p96
I0
sS'velocities_arr_9'
p97
I0
sg52
I107
sg71
I45
sS'category_exercise_name_10'
p98
I0
sS'velocities_arr_10'
p99
I0
sg50
I5
sg74
I5
sS'category_exercise_name_0'
p100
I0
sS'category_exercise_name_1'
p101
I0
sS'category_exercise_name_2'
p102
I1
sS'category_exercise_name_3'
p103
I0
sS'category_exercise_name_4'
p104
I0
sS'category_exercise_name_5'
p105
I0
sS'category_exercise_name_6'
p106
I0
sS'category_exercise_name_7'
p107
I0
sS'category_exercise_name_8'
p108
I0
sS'category_exercise_name_9'
p109
I0
sg53
I0
sg85
I0
sS'velocities_arr_11'
p110
I0
sg57
I0
sg34
I0
sa(dp111
S'velocities_arr_0'
p112
F0.77
sS'velocities_arr_1'
p113
F0.82
sS'velocities_arr_2'
p114
F0.83
sS'velocities_arr_3'
p115
F0.79
sS'velocities_arr_4'
p116
F0.77
sS'velocities_arr_5'
p117
I0
sS'velocities_arr_6'
p118
I0
sS'velocities_arr_7'
p119
I0
sS'velocities_arr_8'
p120
I0
sS'velocities_arr_9'
p121
I0
sg52
I125
sg71
I135
sS'category_exercise_name_10'
p122
I0
sS'velocities_arr_10'
p123
I0
sg50
I5
sg74
I5
sS'category_exercise_name_0'
p124
I0
sS'category_exercise_name_1'
p125
I0
sS'category_exercise_name_2'
p126
I1
sS'category_exercise_name_3'
p127
I0
sS'category_exercise_name_4'
p128
I0
sS'category_exercise_name_5'
p129
I0
sS'category_exercise_name_6'
p130
I0
sS'category_exercise_name_7'
p131
I0
sS'category_exercise_name_8'
p132
I0
sS'category_exercise_name_9'
p133
I0
sg53
I0
sg85
I0
sS'velocities_arr_11'
p134
I0
sg57
I0
sg34
I0
sa(dp135
S'velocities_arr_0'
p136
F0.68
sS'velocities_arr_1'
p137
F0.69
sS'velocities_arr_2'
p138
F0.65
sS'velocities_arr_3'
p139
F0.63
sS'velocities_arr_4'
p140
F0.61
sS'velocities_arr_5'
p141
I0
sS'velocities_arr_6'
p142
I0
sS'velocities_arr_7'
p143
I0
sS'velocities_arr_8'
p144
I0
sS'velocities_arr_9'
p145
I0
sg52
I131
sg71
I185
sS'category_exercise_name_10'
p146
I0
sS'velocities_arr_10'
p147
I0
sg50
I5
sg74
I5
sS'category_exercise_name_0'
p148
I0
sS'category_exercise_name_1'
p149
I0
sS'category_exercise_name_2'
p150
I1
sS'category_exercise_name_3'
p151
I0
sS'category_exercise_name_4'
p152
I0
sS'category_exercise_name_5'
p153
I0
sS'category_exercise_name_6'
p154
I0
sS'category_exercise_name_7'
p155
I0
sS'category_exercise_name_8'
p156
I0
sS'category_exercise_name_9'
p157
I0
sg53
I0
sg85
I0
sS'velocities_arr_11'
p158
I0
sg57
I0
sg34
I0
sa(dp159
S'velocities_arr_0'
p160
F0.64
sS'velocities_arr_1'
p161
F0.63
sS'velocities_arr_2'
p162
F0.62
sS'velocities_arr_3'
p163
F0.57
sS'velocities_arr_4'
p164
F0.56
sS'velocities_arr_5'
p165
I0
sS'velocities_arr_6'
p166
I0
sS'velocities_arr_7'
p167
I0
sS'velocities_arr_8'
p168
I0
sS'velocities_arr_9'
p169
I0
sg52
I141
sg71
I205
sS'category_exercise_name_10'
p170
I0
sS'velocities_arr_10'
p171
I0
sg50
I5
sg74
I5
sS'category_exercise_name_0'
p172
I0
sS'category_exercise_name_1'
p173
I0
sS'category_exercise_name_2'
p174
I1
sS'category_exercise_name_3'
p175
I0
sS'category_exercise_name_4'
p176
I0
sS'category_exercise_name_5'
p177
I0
sS'category_exercise_name_6'
p178
I0
sS'category_exercise_name_7'
p179
I0
sS'category_exercise_name_8'
p180
I0
sS'category_exercise_name_9'
p181
I0
sg53
I0
sg85
I0
sS'velocities_arr_11'
p182
I0
sg57
I0
sg34
I0
sa(dp183
S'velocities_arr_0'
p184
F0.62
sS'velocities_arr_1'
p185
F0.57
sS'velocities_arr_2'
p186
F0.52
sS'velocities_arr_3'
p187
F0.51
sS'velocities_arr_4'
p188
F0.46
sS'velocities_arr_5'
p189
I0
sS'velocities_arr_6'
p190
I0
sS'velocities_arr_7'
p191
I0
sS'velocities_arr_8'
p192
I0
sS'velocities_arr_9'
p193
I0
sg52
I148
sg71
I225
sS'category_exercise_name_10'
p194
I0
sS'velocities_arr_10'
p195
I0
sg50
I5
sg74
I5
sS'category_exercise_name_0'
p196
I0
sS'category_exercise_name_1'
p197
I0
sS'category_exercise_name_2'
p198
I1
sS'category_exercise_name_3'
p199
I0
sS'category_exercise_name_4'
p200
I0
sS'category_exercise_name_5'
p201
I0
sS'category_exercise_name_6'
p202
I0
sS'category_exercise_name_7'
p203
I0
sS'category_exercise_name_8'
p204
I0
sS'category_exercise_name_9'
p205
I0
sg53
I0
sg85
I0
sS'velocities_arr_11'
p206
I0
sg57
I0
sg34
I0
sa(dp207
S'velocities_arr_0'
p208
F0.71
sS'velocities_arr_1'
p209
F0.57
sS'velocities_arr_2'
p210
F0.65
sS'velocities_arr_3'
p211
F0.65
sS'velocities_arr_4'
p212
F0.62
sS'velocities_arr_5'
p213
F0.61
sS'velocities_arr_6'
p214
F0.54
sS'velocities_arr_7'
p215
F0.61
sS'velocities_arr_8'
p216
F0.52
sS'velocities_arr_9'
p217
F0.49
sg52
I111
sg71
I105
sS'category_exercise_name_10'
p218
I0
sS'velocities_arr_10'
p219
F0.47
sg50
I12
sg74
I12
sS'category_exercise_name_0'
p220
I0
sS'category_exercise_name_1'
p221
I0
sS'category_exercise_name_2'
p222
I0
sS'category_exercise_name_3'
p223
I1
sS'category_exercise_name_4'
p224
I0
sS'category_exercise_name_5'
p225
I0
sS'category_exercise_name_6'
p226
I0
sS'category_exercise_name_7'
p227
I0
sS'category_exercise_name_8'
p228
I0
sS'category_exercise_name_9'
p229
I0
sg53
I0
sg85
I0
sS'velocities_arr_11'
p230
F0.47
sg57
I0
sg34
I0
sa(dp231
S'velocities_arr_0'
p232
F0.56
sS'velocities_arr_1'
p233
F0.62
sS'velocities_arr_2'
p234
F0.59
sS'velocities_arr_3'
p235
F0.61
sS'velocities_arr_4'
p236
F0.59
sS'velocities_arr_5'
p237
F0.57
sS'velocities_arr_6'
p238
F0.52
sS'velocities_arr_7'
p239
F0.46
sS'velocities_arr_8'
p240
I0
sS'velocities_arr_9'
p241
I0
sg52
I114
sg71
I115
sS'category_exercise_name_10'
p242
I0
sS'velocities_arr_10'
p243
I0
sg50
I8
sg74
I8
sS'category_exercise_name_0'
p244
I0
sS'category_exercise_name_1'
p245
I0
sS'category_exercise_name_2'
p246
I0
sS'category_exercise_name_3'
p247
I1
sS'category_exercise_name_4'
p248
I0
sS'category_exercise_name_5'
p249
I0
sS'category_exercise_name_6'
p250
I0
sS'category_exercise_name_7'
p251
I0
sS'category_exercise_name_8'
p252
I0
sS'category_exercise_name_9'
p253
I0
sg53
I0
sg85
I0
sS'velocities_arr_11'
p254
I0
sg57
I0
sg34
I0
sa(dp255
S'velocities_arr_0'
p256
F0.49
sS'velocities_arr_1'
p257
F0.51
sS'velocities_arr_2'
p258
F0.46
sS'velocities_arr_3'
p259
F0.43
sS'velocities_arr_4'
p260
F0.39
sS'velocities_arr_5'
p261
I0
sS'velocities_arr_6'
p262
I0
sS'velocities_arr_7'
p263
I0
sS'velocities_arr_8'
p264
I0
sS'velocities_arr_9'
p265
I0
sg52
I130
sg71
I125
sS'category_exercise_name_10'
p266
I0
sS'velocities_arr_10'
p267
I0
sg50
I5
sg74
I5
sS'category_exercise_name_0'
p268
I0
sS'category_exercise_name_1'
p269
I0
sS'category_exercise_name_2'
p270
I0
sS'category_exercise_name_3'
p271
I1
sS'category_exercise_name_4'
p272
I0
sS'category_exercise_name_5'
p273
I0
sS'category_exercise_name_6'
p274
I0
sS'category_exercise_name_7'
p275
I0
sS'category_exercise_name_8'
p276
I0
sS'category_exercise_name_9'
p277
I0
sg53
I0
sg85
I0
sS'velocities_arr_11'
p278
I0
sg57
I0
sg34
I0
sa(dp279
g61
I0
sg62
I0
sg63
I0
sg64
I0
sg65
I0
sg66
I0
sg67
I0
sg68
I0
sg69
I0
sg70
I0
sg52
I-1
sg71
I185
sg72
I0
sg50
I-1
sg74
I5
sg75
I1
sg76
I0
sg77
I0
sg78
I0
sg79
I0
sg80
I0
sg81
I0
sg82
I0
sg83
I0
sg84
I0
sg53
I-1
sg73
I0
sg85
I0
sg86
I0
sg57
I-1
sg34
F0.0
sas.