(dp0
S'dayseriesx'
p1
(lp2
(dp3
S'day_number'
p4
I-1
sS'sleeptime_awake_hrs'
p5
I-1
sS'withings_body_water_percent'
p6
I-1
sS'heart_rate_variability_rmssd'
p7
I-1
sS'sleeptime_deep_rem_hrs'
p8
I-1
sS'withings_body_fat_percent'
p9
I-1
sS'withings_weight_lbs'
p10
I-1
sS'sleeptime_efficiency_percent'
p11
I-1
sS'post_day_calories_in'
p12
I-1
sS'post_day_fat_g'
p13
I-1
sS'sleeptime_bed_time_ampm_index'
p14
I-1
sS'withings_muscle_mass_percent'
p15
I-1
sS'days_since_last_recorded_day'
p16
I-1
sS'sleeptime_alarm_ring_ampm_index'
p17
I-1
sS'withings_bone_mass_percent'
p18
I-1
sS'sleeptime_snoozed'
p19
I-1
sS'sleeptime_light_sleep_hrs'
p20
I-1
sS'withings_heart_rate_bpm'
p21
I-1
sS'sleeptime_alarm_set_ampm_index'
p22
I-1
sS'post_day_protein_g'
p23
I-1
sS'post_day_wearable_calories_burned'
p24
I-1
sS'withings_pulse_wave_velocity_m_per_s'
p25
I-1
sS'sleeptime_rise_time_ampm_index'
p26
I-1
sS'days_since_last_workout'
p27
I-1
sS'post_day_carbs_g'
p28
I-1
sag3
ag3
ag3
ag3
ag3
ag3
ag3
a(dp29
g4
I0
sg5
F1.7166666666666668
sg6
F57.1
sg7
I-1
sg8
F2.5
sg9
F13.6
sg10
F163.6
sg11
F70.0
sg12
I-1
sg13
I-1
sg14
I85
sg15
F82.4
sg16
F0.0
sg17
I406
sg18
F4.0
sg19
I4
sg20
F1.6666666666666665
sg21
F104.0
sg22
I425
sg23
I-1
sg24
I-1
sg25
F7.7
sg26
I440
sg27
I0
sg28
I-1
sa(dp30
g4
I1
sg5
F1.5
sg6
F56.3
sg7
I-1
sg8
F4.25
sg9
F15.0
sg10
F163.2
sg11
F81.0
sg12
I-1
sg13
I-1
sg14
I1400
sg15
F81.0
sg16
F1.0
sg17
I406
sg18
F4.0
sg19
I5
sg20
F2.3
sg21
F85.0
sg22
I426
sg23
I-1
sg24
I-1
sg25
F7.7
sg26
I444
sg27
F1.0
sg28
I-1
sa(dp31
g4
I2
sg5
F0.7166666666666667
sg6
F56.3
sg7
I-1
sg8
F3.9166666666666665
sg9
F15.0
sg10
F162.2
sg11
F89.0
sg12
I-1
sg13
I-1
sg14
I1
sg15
F81.0
sg16
F1.0
sg17
I418
sg18
F4.0
sg19
I1
sg20
F2.3
sg21
F97.0
sg22
I426
sg23
I-1
sg24
I-1
sg25
F7.7
sg26
I418
sg27
F0.0
sg28
I-1
sa(dp32
g4
I3
sg5
F0.2833333333333333
sg6
F56.6
sg7
I-1
sg8
F2.8166666666666664
sg9
F14.4
sg10
F162.7
sg11
F96.0
sg12
I-1
sg13
I-1
sg14
I192
sg15
F81.6
sg16
F1.0
sg17
I1440
sg18
F4.0
sg19
I0
sg20
F4.5
sg21
F93.0
sg22
I719
sg23
I-1
sg24
I-1
sg25
F7.7
sg26
I649
sg27
F1.0
sg28
I-1
sa(dp33
g4
I4
sg5
F0.7666666666666667
sg6
F55.2
sg7
I-1
sg8
F3.6166666666666667
sg9
F17.1
sg10
F162.0
sg11
F89.0
sg12
I-1
sg13
I-1
sg14
I68
sg15
F78.9
sg16
F1.0
sg17
I1440
sg18
F3.9
sg19
I0
sg20
F3.0166666666666666
sg21
F64.0
sg22
I663
sg23
I-1
sg24
I-1
sg25
F7.6
sg26
I513
sg27
F0.0
sg28
I-1
sasS'workoutxseries'
p34
(lp35
(dp36
g4
I5
sS'velocities_arr_0'
p37
I0
sS'velocities_arr_2'
p38
I0
sS'velocities_arr_3'
p39
I0
sS'velocities_arr_4'
p40
I0
sS'velocities_arr_5'
p41
I0
sS'velocities_arr_6'
p42
I0
sS'velocities_arr_1'
p43
I0
sS'velocities_arr_8'
p44
I0
sS'velocities_arr_9'
p45
I0
sS'postset_heartrate'
p46
I-1
sS'weight_lbs'
p47
I-1
sS'velocities_arr_7'
p48
I0
sS'category_exercise_name_12'
p49
I0
sS'category_exercise_name_13'
p50
I0
sS'category_exercise_name_10'
p51
I0
sS'category_exercise_name_11'
p52
I0
sS'reps_completed'
p53
I-1
sS'reps_planned'
p54
I-1
sS'category_exercise_name_0'
p55
I0
sS'category_exercise_name_1'
p56
I0
sS'category_exercise_name_2'
p57
I0
sS'category_exercise_name_3'
p58
I0
sS'category_exercise_name_4'
p59
I0
sS'category_exercise_name_5'
p60
I0
sS'category_exercise_name_6'
p61
I0
sS'category_exercise_name_7'
p62
I0
sS'category_exercise_name_8'
p63
I0
sS'category_exercise_name_9'
p64
I0
sS'set_number_of_the_day'
p65
I7
sS'went_to_failure'
p66
I0
sS'velocities_arr_10'
p67
I0
sS'used_lifting_gear'
p68
I0
sS'velocities_arr_11'
p69
I0
sS'did_pull_muscle'
p70
I0
sg27
I0
sag36
ag36
ag36
ag36
ag36
ag36
ag36
ag36
ag36
ag36
ag36
ag36
ag36
ag36
a(dp71
g4
I1
sS'velocities_arr_0'
p72
F1.29
sS'velocities_arr_2'
p73
F1.15
sS'velocities_arr_3'
p74
F1.09
sS'velocities_arr_4'
p75
F1.16
sS'velocities_arr_5'
p76
F1.0
sS'velocities_arr_6'
p77
I0
sS'velocities_arr_1'
p78
F1.1
sS'velocities_arr_8'
p79
I0
sS'velocities_arr_9'
p80
I0
sg46
I116
sg47
I45
sS'velocities_arr_7'
p81
I0
sS'category_exercise_name_12'
p82
I0
sS'category_exercise_name_13'
p83
I0
sS'category_exercise_name_10'
p84
I0
sS'category_exercise_name_11'
p85
I0
sg53
I6
sg54
I6
sS'category_exercise_name_0'
p86
I0
sS'category_exercise_name_1'
p87
I0
sS'velocities_arr_10'
p88
I0
sS'category_exercise_name_3'
p89
I0
sS'category_exercise_name_4'
p90
I0
sS'category_exercise_name_5'
p91
I0
sS'category_exercise_name_6'
p92
I0
sS'category_exercise_name_7'
p93
I0
sS'category_exercise_name_8'
p94
I0
sS'category_exercise_name_9'
p95
I0
sg65
I0
sg66
I0
sS'category_exercise_name_2'
p96
I1
sg68
I0
sS'velocities_arr_11'
p97
I0
sg70
I0
sg27
I0
sa(dp98
g4
I1
sS'velocities_arr_0'
p99
F0.85
sS'velocities_arr_2'
p100
F0.82
sS'velocities_arr_3'
p101
F0.82
sS'velocities_arr_4'
p102
F0.77
sS'velocities_arr_5'
p103
F0.77
sS'velocities_arr_6'
p104
I0
sS'velocities_arr_1'
p105
F0.88
sS'velocities_arr_8'
p106
I0
sS'velocities_arr_9'
p107
I0
sg46
I140
sg47
I135
sS'velocities_arr_7'
p108
I0
sS'category_exercise_name_12'
p109
I0
sS'category_exercise_name_13'
p110
I0
sS'category_exercise_name_10'
p111
I0
sS'category_exercise_name_11'
p112
I0
sg53
I6
sg54
I6
sS'category_exercise_name_0'
p113
I0
sS'category_exercise_name_1'
p114
I0
sS'velocities_arr_10'
p115
I0
sS'category_exercise_name_3'
p116
I0
sS'category_exercise_name_4'
p117
I0
sS'category_exercise_name_5'
p118
I0
sS'category_exercise_name_6'
p119
I0
sS'category_exercise_name_7'
p120
I0
sS'category_exercise_name_8'
p121
I0
sS'category_exercise_name_9'
p122
I0
sg65
I1
sg66
I0
sS'category_exercise_name_2'
p123
I1
sg68
I0
sS'velocities_arr_11'
p124
I0
sg70
I0
sg27
I0
sa(dp125
g4
I1
sS'velocities_arr_0'
p126
F0.67
sS'velocities_arr_2'
p127
F0.64
sS'velocities_arr_3'
p128
F0.62
sS'velocities_arr_4'
p129
F0.55
sS'velocities_arr_5'
p130
F0.55
sS'velocities_arr_6'
p131
I0
sS'velocities_arr_1'
p132
F0.66
sS'velocities_arr_8'
p133
I0
sS'velocities_arr_9'
p134
I0
sg46
I151
sg47
I185
sS'velocities_arr_7'
p135
I0
sS'category_exercise_name_12'
p136
I0
sS'category_exercise_name_13'
p137
I0
sS'category_exercise_name_10'
p138
I0
sS'category_exercise_name_11'
p139
I0
sg53
I6
sg54
I6
sS'category_exercise_name_0'
p140
I0
sS'category_exercise_name_1'
p141
I0
sS'velocities_arr_10'
p142
I0
sS'category_exercise_name_3'
p143
I0
sS'category_exercise_name_4'
p144
I0
sS'category_exercise_name_5'
p145
I0
sS'category_exercise_name_6'
p146
I0
sS'category_exercise_name_7'
p147
I0
sS'category_exercise_name_8'
p148
I0
sS'category_exercise_name_9'
p149
I0
sg65
I2
sg66
I0
sS'category_exercise_name_2'
p150
I1
sg68
I0
sS'velocities_arr_11'
p151
I0
sg70
I0
sg27
I0
sa(dp152
g4
I1
sS'velocities_arr_0'
p153
F0.67
sS'velocities_arr_2'
p154
F0.6
sS'velocities_arr_3'
p155
F0.52
sS'velocities_arr_4'
p156
F0.52
sS'velocities_arr_5'
p157
F0.49
sS'velocities_arr_6'
p158
I0
sS'velocities_arr_1'
p159
F0.64
sS'velocities_arr_8'
p160
I0
sS'velocities_arr_9'
p161
I0
sg46
I162
sg47
I185
sS'velocities_arr_7'
p162
I0
sS'category_exercise_name_12'
p163
I0
sS'category_exercise_name_13'
p164
I0
sS'category_exercise_name_10'
p165
I0
sS'category_exercise_name_11'
p166
I0
sg53
I6
sg54
I6
sS'category_exercise_name_0'
p167
I0
sS'category_exercise_name_1'
p168
I0
sS'velocities_arr_10'
p169
I0
sS'category_exercise_name_3'
p170
I0
sS'category_exercise_name_4'
p171
I0
sS'category_exercise_name_5'
p172
I0
sS'category_exercise_name_6'
p173
I0
sS'category_exercise_name_7'
p174
I0
sS'category_exercise_name_8'
p175
I0
sS'category_exercise_name_9'
p176
I0
sg65
I3
sg66
I0
sS'category_exercise_name_2'
p177
I1
sg68
I0
sS'velocities_arr_11'
p178
I0
sg70
I0
sg27
I0
sa(dp179
g4
I1
sS'velocities_arr_0'
p180
F0.81
sS'velocities_arr_2'
p181
F0.83
sS'velocities_arr_3'
p182
F0.77
sS'velocities_arr_4'
p183
F0.71
sS'velocities_arr_5'
p184
F0.49
sS'velocities_arr_6'
p185
I0
sS'velocities_arr_1'
p186
F0.81
sS'velocities_arr_8'
p187
I0
sS'velocities_arr_9'
p188
I0
sg46
I157
sg47
I135
sS'velocities_arr_7'
p189
I0
sS'category_exercise_name_12'
p190
I0
sS'category_exercise_name_13'
p191
I0
sS'category_exercise_name_10'
p192
I0
sS'category_exercise_name_11'
p193
I0
sg53
I6
sg54
I6
sS'category_exercise_name_0'
p194
I0
sS'category_exercise_name_1'
p195
I0
sS'velocities_arr_10'
p196
I0
sS'category_exercise_name_3'
p197
I0
sS'category_exercise_name_4'
p198
I0
sS'category_exercise_name_5'
p199
I0
sS'category_exercise_name_6'
p200
I0
sS'category_exercise_name_7'
p201
I0
sS'category_exercise_name_8'
p202
I0
sS'category_exercise_name_9'
p203
I0
sg65
I4
sg66
I0
sS'category_exercise_name_2'
p204
I1
sg68
I0
sS'velocities_arr_11'
p205
I0
sg70
I0
sg27
I0
sa(dp206
g4
I1
sS'velocities_arr_0'
p207
F0.73
sS'velocities_arr_2'
p208
F0.77
sS'velocities_arr_3'
p209
F0.77
sS'velocities_arr_4'
p210
F0.74
sS'velocities_arr_5'
p211
F0.68
sS'velocities_arr_6'
p212
I0
sS'velocities_arr_1'
p213
F0.79
sS'velocities_arr_8'
p214
I0
sS'velocities_arr_9'
p215
I0
sg46
I138
sg47
I135
sS'velocities_arr_7'
p216
I0
sS'category_exercise_name_12'
p217
I0
sS'category_exercise_name_13'
p218
I0
sS'category_exercise_name_10'
p219
I0
sS'category_exercise_name_11'
p220
I0
sg53
I6
sg54
I6
sS'category_exercise_name_0'
p221
I0
sS'category_exercise_name_1'
p222
I0
sS'velocities_arr_10'
p223
I0
sS'category_exercise_name_3'
p224
I0
sS'category_exercise_name_4'
p225
I0
sS'category_exercise_name_5'
p226
I0
sS'category_exercise_name_6'
p227
I0
sS'category_exercise_name_7'
p228
I0
sS'category_exercise_name_8'
p229
I0
sS'category_exercise_name_9'
p230
I0
sg65
I5
sg66
I0
sS'category_exercise_name_2'
p231
I1
sg68
I0
sS'velocities_arr_11'
p232
I0
sg70
I0
sg27
I0
sa(dp233
g4
I1
sS'velocities_arr_0'
p234
F0.59
sS'velocities_arr_2'
p235
F0.66
sS'velocities_arr_3'
p236
F0.54
sS'velocities_arr_4'
p237
F0.54
sS'velocities_arr_5'
p238
F0.56
sS'velocities_arr_6'
p239
I0
sS'velocities_arr_1'
p240
F0.7
sS'velocities_arr_8'
p241
I0
sS'velocities_arr_9'
p242
I0
sg46
I158
sg47
I155
sS'velocities_arr_7'
p243
I0
sS'category_exercise_name_12'
p244
I0
sS'category_exercise_name_13'
p245
I0
sS'category_exercise_name_10'
p246
I0
sS'category_exercise_name_11'
p247
I0
sg53
I6
sg54
I6
sS'category_exercise_name_0'
p248
I0
sS'category_exercise_name_1'
p249
I0
sS'velocities_arr_10'
p250
I0
sS'category_exercise_name_3'
p251
I0
sS'category_exercise_name_4'
p252
I0
sS'category_exercise_name_5'
p253
I0
sS'category_exercise_name_6'
p254
I0
sS'category_exercise_name_7'
p255
I0
sS'category_exercise_name_8'
p256
I0
sS'category_exercise_name_9'
p257
I0
sg65
I6
sg66
I0
sS'category_exercise_name_2'
p258
I1
sg68
I0
sS'velocities_arr_11'
p259
I0
sg70
I0
sg27
I0
sa(dp260
g4
I3
sS'velocities_arr_0'
p261
F1.37
sS'velocities_arr_2'
p262
F1.37
sS'velocities_arr_3'
p263
F1.37
sS'velocities_arr_4'
p264
F1.37
sS'velocities_arr_5'
p265
F1.37
sS'velocities_arr_6'
p266
I0
sS'velocities_arr_1'
p267
F1.37
sS'velocities_arr_8'
p268
I0
sS'velocities_arr_9'
p269
I0
sg46
I88
sg47
I45
sS'velocities_arr_7'
p270
I0
sS'category_exercise_name_12'
p271
I0
sS'category_exercise_name_13'
p272
I0
sS'category_exercise_name_10'
p273
I0
sS'category_exercise_name_11'
p274
I0
sg53
I6
sg54
I6
sS'category_exercise_name_0'
p275
I0
sS'category_exercise_name_1'
p276
I0
sS'velocities_arr_10'
p277
I0
sS'category_exercise_name_3'
p278
I0
sS'category_exercise_name_4'
p279
I0
sS'category_exercise_name_5'
p280
I0
sS'category_exercise_name_6'
p281
I0
sS'category_exercise_name_7'
p282
I0
sS'category_exercise_name_8'
p283
I0
sS'category_exercise_name_9'
p284
I0
sg65
I0
sg66
I0
sS'category_exercise_name_2'
p285
I1
sg68
I0
sS'velocities_arr_11'
p286
I0
sg70
I0
sg27
F0.0
sa(dp287
g4
I3
sS'velocities_arr_0'
p288
F0.69
sS'velocities_arr_2'
p289
F0.7
sS'velocities_arr_3'
p290
F0.72
sS'velocities_arr_4'
p291
F0.76
sS'velocities_arr_5'
p292
F0.76
sS'velocities_arr_6'
p293
I0
sS'velocities_arr_1'
p294
F0.78
sS'velocities_arr_8'
p295
I0
sS'velocities_arr_9'
p296
I0
sg46
I92
sg47
I95
sS'velocities_arr_7'
p297
I0
sS'category_exercise_name_12'
p298
I0
sS'category_exercise_name_13'
p299
I0
sS'category_exercise_name_10'
p300
I0
sS'category_exercise_name_11'
p301
I0
sg53
I6
sg54
I6
sS'category_exercise_name_0'
p302
I0
sS'category_exercise_name_1'
p303
I0
sS'velocities_arr_10'
p304
I0
sS'category_exercise_name_3'
p305
I0
sS'category_exercise_name_4'
p306
I0
sS'category_exercise_name_5'
p307
I0
sS'category_exercise_name_6'
p308
I0
sS'category_exercise_name_7'
p309
I0
sS'category_exercise_name_8'
p310
I0
sS'category_exercise_name_9'
p311
I0
sg65
I1
sg66
I0
sS'category_exercise_name_2'
p312
I1
sg68
I0
sS'velocities_arr_11'
p313
I0
sg70
I0
sg27
F0.0
sa(dp314
g4
I3
sS'velocities_arr_0'
p315
F0.77
sS'velocities_arr_2'
p316
F0.82
sS'velocities_arr_3'
p317
F0.82
sS'velocities_arr_4'
p318
F0.68
sS'velocities_arr_5'
p319
F0.68
sS'velocities_arr_6'
p320
I0
sS'velocities_arr_1'
p321
F0.77
sS'velocities_arr_8'
p322
I0
sS'velocities_arr_9'
p323
I0
sg46
I97
sg47
I95
sS'velocities_arr_7'
p324
I0
sS'category_exercise_name_12'
p325
I0
sS'category_exercise_name_13'
p326
I0
sS'category_exercise_name_10'
p327
I0
sS'category_exercise_name_11'
p328
I0
sg53
I6
sg54
I6
sS'category_exercise_name_0'
p329
I0
sS'category_exercise_name_1'
p330
I0
sS'velocities_arr_10'
p331
I0
sS'category_exercise_name_3'
p332
I0
sS'category_exercise_name_4'
p333
I0
sS'category_exercise_name_5'
p334
I0
sS'category_exercise_name_6'
p335
I0
sS'category_exercise_name_7'
p336
I0
sS'category_exercise_name_8'
p337
I0
sS'category_exercise_name_9'
p338
I0
sg65
I2
sg66
I0
sS'category_exercise_name_2'
p339
I1
sg68
I0
sS'velocities_arr_11'
p340
I0
sg70
I0
sg27
F0.0
sa(dp341
g4
I3
sS'velocities_arr_0'
p342
F1.0
sS'velocities_arr_2'
p343
F1.0
sS'velocities_arr_3'
p344
F1.0
sS'velocities_arr_4'
p345
F1.0
sS'velocities_arr_5'
p346
F1.0
sS'velocities_arr_6'
p347
I0
sS'velocities_arr_1'
p348
F1.0
sS'velocities_arr_8'
p349
I0
sS'velocities_arr_9'
p350
I0
sg46
I104
sg47
I95
sS'velocities_arr_7'
p351
I0
sS'category_exercise_name_12'
p352
I0
sS'category_exercise_name_13'
p353
I0
sS'category_exercise_name_10'
p354
I0
sS'category_exercise_name_11'
p355
I0
sg53
I6
sg54
I6
sS'category_exercise_name_0'
p356
I0
sS'category_exercise_name_1'
p357
I0
sS'velocities_arr_10'
p358
I0
sS'category_exercise_name_3'
p359
I0
sS'category_exercise_name_4'
p360
I0
sS'category_exercise_name_5'
p361
I0
sS'category_exercise_name_6'
p362
I0
sS'category_exercise_name_7'
p363
I0
sS'category_exercise_name_8'
p364
I0
sS'category_exercise_name_9'
p365
I0
sg65
I3
sg66
I0
sS'category_exercise_name_2'
p366
I1
sg68
I0
sS'velocities_arr_11'
p367
I0
sg70
I0
sg27
F0.0
sa(dp368
g4
I3
sS'velocities_arr_0'
p369
F0.78
sS'velocities_arr_2'
p370
F0.75
sS'velocities_arr_3'
p371
F0.76
sS'velocities_arr_4'
p372
F0.68
sS'velocities_arr_5'
p373
F0.67
sS'velocities_arr_6'
p374
I0
sS'velocities_arr_1'
p375
F0.76
sS'velocities_arr_8'
p376
I0
sS'velocities_arr_9'
p377
I0
sg46
I102
sg47
I105
sS'velocities_arr_7'
p378
I0
sS'category_exercise_name_12'
p379
I0
sS'category_exercise_name_13'
p380
I0
sS'category_exercise_name_10'
p381
I0
sS'category_exercise_name_11'
p382
I0
sg53
I6
sg54
I6
sS'category_exercise_name_0'
p383
I0
sS'category_exercise_name_1'
p384
I0
sS'velocities_arr_10'
p385
I0
sS'category_exercise_name_3'
p386
I0
sS'category_exercise_name_4'
p387
I0
sS'category_exercise_name_5'
p388
I0
sS'category_exercise_name_6'
p389
I0
sS'category_exercise_name_7'
p390
I0
sS'category_exercise_name_8'
p391
I0
sS'category_exercise_name_9'
p392
I0
sg65
I4
sg66
I0
sS'category_exercise_name_2'
p393
I1
sg68
I0
sS'velocities_arr_11'
p394
I0
sg70
I0
sg27
F0.0
sa(dp395
g4
I3
sS'velocities_arr_0'
p396
F0.77
sS'velocities_arr_2'
p397
F0.69
sS'velocities_arr_3'
p398
F0.69
sS'velocities_arr_4'
p399
F0.69
sS'velocities_arr_5'
p400
F0.69
sS'velocities_arr_6'
p401
I0
sS'velocities_arr_1'
p402
F0.71
sS'velocities_arr_8'
p403
I0
sS'velocities_arr_9'
p404
I0
sg46
I104
sg47
I105
sS'velocities_arr_7'
p405
I0
sS'category_exercise_name_12'
p406
I0
sS'category_exercise_name_13'
p407
I0
sS'category_exercise_name_10'
p408
I0
sS'category_exercise_name_11'
p409
I0
sg53
I6
sg54
I6
sS'category_exercise_name_0'
p410
I0
sS'category_exercise_name_1'
p411
I0
sS'velocities_arr_10'
p412
I0
sS'category_exercise_name_3'
p413
I0
sS'category_exercise_name_4'
p414
I0
sS'category_exercise_name_5'
p415
I0
sS'category_exercise_name_6'
p416
I0
sS'category_exercise_name_7'
p417
I0
sS'category_exercise_name_8'
p418
I0
sS'category_exercise_name_9'
p419
I0
sg65
I5
sg66
I0
sS'category_exercise_name_2'
p420
I1
sg68
I0
sS'velocities_arr_11'
p421
I0
sg70
I0
sg27
F0.0
sa(dp422
g4
I3
sS'velocities_arr_0'
p423
F0.75
sS'velocities_arr_2'
p424
F0.71
sS'velocities_arr_3'
p425
F0.73
sS'velocities_arr_4'
p426
F0.66
sS'velocities_arr_5'
p427
F0.66
sS'velocities_arr_6'
p428
I0
sS'velocities_arr_1'
p429
F0.84
sS'velocities_arr_8'
p430
I0
sS'velocities_arr_9'
p431
I0
sg46
I104
sg47
I105
sS'velocities_arr_7'
p432
I0
sS'category_exercise_name_12'
p433
I0
sS'category_exercise_name_13'
p434
I0
sS'category_exercise_name_10'
p435
I0
sS'category_exercise_name_11'
p436
I0
sg53
I6
sg54
I6
sS'category_exercise_name_0'
p437
I0
sS'category_exercise_name_1'
p438
I0
sS'velocities_arr_10'
p439
I0
sS'category_exercise_name_3'
p440
I0
sS'category_exercise_name_4'
p441
I0
sS'category_exercise_name_5'
p442
I0
sS'category_exercise_name_6'
p443
I0
sS'category_exercise_name_7'
p444
I0
sS'category_exercise_name_8'
p445
I0
sS'category_exercise_name_9'
p446
I0
sg65
I6
sg66
I0
sS'category_exercise_name_2'
p447
I1
sg68
I0
sS'velocities_arr_11'
p448
I0
sg70
I0
sg27
F0.0
sa(dp449
g4
I3
sS'velocities_arr_0'
p450
F0.7
sS'velocities_arr_2'
p451
F0.67
sS'velocities_arr_3'
p452
F0.6
sS'velocities_arr_4'
p453
F0.67
sS'velocities_arr_5'
p454
F0.58
sS'velocities_arr_6'
p455
I0
sS'velocities_arr_1'
p456
F0.73
sS'velocities_arr_8'
p457
I0
sS'velocities_arr_9'
p458
I0
sg46
I102
sg47
I105
sS'velocities_arr_7'
p459
I0
sS'category_exercise_name_12'
p460
I0
sS'category_exercise_name_13'
p461
I0
sS'category_exercise_name_10'
p462
I0
sS'category_exercise_name_11'
p463
I0
sg53
I6
sg54
I6
sS'category_exercise_name_0'
p464
I0
sS'category_exercise_name_1'
p465
I0
sS'velocities_arr_10'
p466
I0
sS'category_exercise_name_3'
p467
I0
sS'category_exercise_name_4'
p468
I0
sS'category_exercise_name_5'
p469
I0
sS'category_exercise_name_6'
p470
I0
sS'category_exercise_name_7'
p471
I0
sS'category_exercise_name_8'
p472
I0
sS'category_exercise_name_9'
p473
I0
sg65
I7
sg66
I0
sS'category_exercise_name_2'
p474
I1
sg68
I0
sS'velocities_arr_11'
p475
I0
sg70
I0
sg27
F0.0
sa(dp476
g4
I3
sS'velocities_arr_0'
p477
F0.78
sS'velocities_arr_2'
p478
F0.66
sS'velocities_arr_3'
p479
F0.72
sS'velocities_arr_4'
p480
F0.65
sS'velocities_arr_5'
p481
F0.65
sS'velocities_arr_6'
p482
I0
sS'velocities_arr_1'
p483
F0.72
sS'velocities_arr_8'
p484
I0
sS'velocities_arr_9'
p485
I0
sg46
I107
sg47
I100
sS'velocities_arr_7'
p486
I0
sS'category_exercise_name_12'
p487
I0
sS'category_exercise_name_13'
p488
I0
sS'category_exercise_name_10'
p489
I0
sS'category_exercise_name_11'
p490
I0
sg53
I6
sg54
I6
sS'category_exercise_name_0'
p491
I0
sS'category_exercise_name_1'
p492
I0
sS'velocities_arr_10'
p493
I0
sS'category_exercise_name_3'
p494
I0
sS'category_exercise_name_4'
p495
I0
sS'category_exercise_name_5'
p496
I0
sS'category_exercise_name_6'
p497
I0
sS'category_exercise_name_7'
p498
I0
sS'category_exercise_name_8'
p499
I0
sS'category_exercise_name_9'
p500
I0
sg65
I8
sg66
I0
sS'category_exercise_name_2'
p501
I1
sg68
I0
sS'velocities_arr_11'
p502
I0
sg70
I0
sg27
F0.0
sa(dp503
g4
I3
sS'velocities_arr_0'
p504
F0.73
sS'velocities_arr_2'
p505
F0.81
sS'velocities_arr_3'
p506
F0.71
sS'velocities_arr_4'
p507
F0.78
sS'velocities_arr_5'
p508
F0.78
sS'velocities_arr_6'
p509
I0
sS'velocities_arr_1'
p510
F0.81
sS'velocities_arr_8'
p511
I0
sS'velocities_arr_9'
p512
I0
sg46
I101
sg47
I95
sS'velocities_arr_7'
p513
I0
sS'category_exercise_name_12'
p514
I0
sS'category_exercise_name_13'
p515
I0
sS'category_exercise_name_10'
p516
I0
sS'category_exercise_name_11'
p517
I0
sg53
I6
sg54
I6
sS'category_exercise_name_0'
p518
I0
sS'category_exercise_name_1'
p519
I0
sS'velocities_arr_10'
p520
I0
sS'category_exercise_name_3'
p521
I0
sS'category_exercise_name_4'
p522
I0
sS'category_exercise_name_5'
p523
I0
sS'category_exercise_name_6'
p524
I0
sS'category_exercise_name_7'
p525
I0
sS'category_exercise_name_8'
p526
I0
sS'category_exercise_name_9'
p527
I0
sg65
I9
sg66
I0
sS'category_exercise_name_2'
p528
I1
sg68
I0
sS'velocities_arr_11'
p529
I0
sg70
I0
sg27
F0.0
sa(dp530
g4
I5
sS'velocities_arr_0'
p531
F0.62
sS'velocities_arr_2'
p532
F0.87
sS'velocities_arr_3'
p533
F0.74
sS'velocities_arr_4'
p534
F0.71
sS'velocities_arr_5'
p535
F0.77
sS'velocities_arr_6'
p536
I0
sS'velocities_arr_1'
p537
F0.65
sS'velocities_arr_8'
p538
I0
sS'velocities_arr_9'
p539
I0
sg46
I99
sg47
I135
sS'velocities_arr_7'
p540
I0
sS'category_exercise_name_12'
p541
I0
sS'category_exercise_name_13'
p542
I0
sS'category_exercise_name_10'
p543
I0
sS'category_exercise_name_11'
p544
I0
sg53
I6
sg54
I6
sS'category_exercise_name_0'
p545
I1
sS'category_exercise_name_1'
p546
I0
sS'velocities_arr_10'
p547
I0
sS'category_exercise_name_3'
p548
I0
sS'category_exercise_name_4'
p549
I0
sS'category_exercise_name_5'
p550
I0
sS'category_exercise_name_6'
p551
I0
sS'category_exercise_name_7'
p552
I0
sS'category_exercise_name_8'
p553
I0
sS'category_exercise_name_9'
p554
I0
sg65
I0
sg66
I0
sS'category_exercise_name_2'
p555
I0
sg68
I0
sS'velocities_arr_11'
p556
I0
sg70
I0
sg27
F0.0
sa(dp557
g4
I5
sS'velocities_arr_0'
p558
F1.22
sS'velocities_arr_2'
p559
F0.82
sS'velocities_arr_3'
p560
F1.43
sS'velocities_arr_4'
p561
F1.5
sS'velocities_arr_5'
p562
F1.29
sS'velocities_arr_6'
p563
I0
sS'velocities_arr_1'
p564
F1.83
sS'velocities_arr_8'
p565
I0
sS'velocities_arr_9'
p566
I0
sg46
I112
sg47
I135
sS'velocities_arr_7'
p567
I0
sS'category_exercise_name_12'
p568
I0
sS'category_exercise_name_13'
p569
I0
sS'category_exercise_name_10'
p570
I0
sS'category_exercise_name_11'
p571
I0
sg53
I6
sg54
I6
sS'category_exercise_name_0'
p572
I1
sS'category_exercise_name_1'
p573
I0
sS'velocities_arr_10'
p574
I0
sS'category_exercise_name_3'
p575
I0
sS'category_exercise_name_4'
p576
I0
sS'category_exercise_name_5'
p577
I0
sS'category_exercise_name_6'
p578
I0
sS'category_exercise_name_7'
p579
I0
sS'category_exercise_name_8'
p580
I0
sS'category_exercise_name_9'
p581
I0
sg65
I1
sg66
I0
sS'category_exercise_name_2'
p582
I0
sg68
I0
sS'velocities_arr_11'
p583
I0
sg70
I0
sg27
F0.0
sa(dp584
g4
I5
sS'velocities_arr_0'
p585
F1.36
sS'velocities_arr_2'
p586
F0.71
sS'velocities_arr_3'
p587
F1.49
sS'velocities_arr_4'
p588
F0.37
sS'velocities_arr_5'
p589
F0.72
sS'velocities_arr_6'
p590
I0
sS'velocities_arr_1'
p591
F1.71
sS'velocities_arr_8'
p592
I0
sS'velocities_arr_9'
p593
I0
sg46
I120
sg47
I155
sS'velocities_arr_7'
p594
I0
sS'category_exercise_name_12'
p595
I0
sS'category_exercise_name_13'
p596
I0
sS'category_exercise_name_10'
p597
I0
sS'category_exercise_name_11'
p598
I0
sg53
I6
sg54
I6
sS'category_exercise_name_0'
p599
I1
sS'category_exercise_name_1'
p600
I0
sS'velocities_arr_10'
p601
I0
sS'category_exercise_name_3'
p602
I0
sS'category_exercise_name_4'
p603
I0
sS'category_exercise_name_5'
p604
I0
sS'category_exercise_name_6'
p605
I0
sS'category_exercise_name_7'
p606
I0
sS'category_exercise_name_8'
p607
I0
sS'category_exercise_name_9'
p608
I0
sg65
I2
sg66
I0
sS'category_exercise_name_2'
p609
I0
sg68
I0
sS'velocities_arr_11'
p610
I0
sg70
I0
sg27
F0.0
sa(dp611
g4
I5
sS'velocities_arr_0'
p612
F0.65
sS'velocities_arr_2'
p613
F0.66
sS'velocities_arr_3'
p614
F0.62
sS'velocities_arr_4'
p615
F0.8
sS'velocities_arr_5'
p616
F0.69
sS'velocities_arr_6'
p617
I0
sS'velocities_arr_1'
p618
F0.71
sS'velocities_arr_8'
p619
I0
sS'velocities_arr_9'
p620
I0
sg46
I144
sg47
I185
sS'velocities_arr_7'
p621
I0
sS'category_exercise_name_12'
p622
I0
sS'category_exercise_name_13'
p623
I0
sS'category_exercise_name_10'
p624
I0
sS'category_exercise_name_11'
p625
I0
sg53
I6
sg54
I6
sS'category_exercise_name_0'
p626
I1
sS'category_exercise_name_1'
p627
I0
sS'velocities_arr_10'
p628
I0
sS'category_exercise_name_3'
p629
I0
sS'category_exercise_name_4'
p630
I0
sS'category_exercise_name_5'
p631
I0
sS'category_exercise_name_6'
p632
I0
sS'category_exercise_name_7'
p633
I0
sS'category_exercise_name_8'
p634
I0
sS'category_exercise_name_9'
p635
I0
sg65
I3
sg66
I0
sS'category_exercise_name_2'
p636
I0
sg68
I0
sS'velocities_arr_11'
p637
I0
sg70
I0
sg27
F0.0
sa(dp638
g4
I5
sS'velocities_arr_0'
p639
F0.71
sS'velocities_arr_2'
p640
F0.77
sS'velocities_arr_3'
p641
F0.71
sS'velocities_arr_4'
p642
F1.22
sS'velocities_arr_5'
p643
F0.88
sS'velocities_arr_6'
p644
I0
sS'velocities_arr_1'
p645
F0.9
sS'velocities_arr_8'
p646
I0
sS'velocities_arr_9'
p647
I0
sg46
I132
sg47
I165
sS'velocities_arr_7'
p648
I0
sS'category_exercise_name_12'
p649
I0
sS'category_exercise_name_13'
p650
I0
sS'category_exercise_name_10'
p651
I0
sS'category_exercise_name_11'
p652
I0
sg53
I6
sg54
I6
sS'category_exercise_name_0'
p653
I1
sS'category_exercise_name_1'
p654
I0
sS'velocities_arr_10'
p655
I0
sS'category_exercise_name_3'
p656
I0
sS'category_exercise_name_4'
p657
I0
sS'category_exercise_name_5'
p658
I0
sS'category_exercise_name_6'
p659
I0
sS'category_exercise_name_7'
p660
I0
sS'category_exercise_name_8'
p661
I0
sS'category_exercise_name_9'
p662
I0
sg65
I4
sg66
I0
sS'category_exercise_name_2'
p663
I0
sg68
I0
sS'velocities_arr_11'
p664
I0
sg70
I0
sg27
F0.0
sa(dp665
g4
I5
sS'velocities_arr_0'
p666
F0.64
sS'velocities_arr_2'
p667
F0.68
sS'velocities_arr_3'
p668
F0.69
sS'velocities_arr_4'
p669
F0.68
sS'velocities_arr_5'
p670
F0.58
sS'velocities_arr_6'
p671
I0
sS'velocities_arr_1'
p672
F0.91
sS'velocities_arr_8'
p673
I0
sS'velocities_arr_9'
p674
I0
sg46
I149
sg47
I175
sS'velocities_arr_7'
p675
I0
sS'category_exercise_name_12'
p676
I0
sS'category_exercise_name_13'
p677
I0
sS'category_exercise_name_10'
p678
I0
sS'category_exercise_name_11'
p679
I0
sg53
I6
sg54
I6
sS'category_exercise_name_0'
p680
I1
sS'category_exercise_name_1'
p681
I0
sS'velocities_arr_10'
p682
I0
sS'category_exercise_name_3'
p683
I0
sS'category_exercise_name_4'
p684
I0
sS'category_exercise_name_5'
p685
I0
sS'category_exercise_name_6'
p686
I0
sS'category_exercise_name_7'
p687
I0
sS'category_exercise_name_8'
p688
I0
sS'category_exercise_name_9'
p689
I0
sg65
I5
sg66
I0
sS'category_exercise_name_2'
p690
I0
sg68
I0
sS'velocities_arr_11'
p691
I0
sg70
I0
sg27
F0.0
sa(dp692
g4
I5
sS'velocities_arr_0'
p693
F0.72
sS'velocities_arr_2'
p694
F1.15
sS'velocities_arr_3'
p695
F0.31
sS'velocities_arr_4'
p696
F0.72
sS'velocities_arr_5'
p697
F0.63
sS'velocities_arr_6'
p698
I0
sS'velocities_arr_1'
p699
F0.65
sS'velocities_arr_8'
p700
I0
sS'velocities_arr_9'
p701
I0
sg46
I148
sg47
I170
sS'velocities_arr_7'
p702
I0
sS'category_exercise_name_12'
p703
I0
sS'category_exercise_name_13'
p704
I0
sS'category_exercise_name_10'
p705
I0
sS'category_exercise_name_11'
p706
I0
sg53
I6
sg54
I6
sS'category_exercise_name_0'
p707
I1
sS'category_exercise_name_1'
p708
I0
sS'velocities_arr_10'
p709
I0
sS'category_exercise_name_3'
p710
I0
sS'category_exercise_name_4'
p711
I0
sS'category_exercise_name_5'
p712
I0
sS'category_exercise_name_6'
p713
I0
sS'category_exercise_name_7'
p714
I0
sS'category_exercise_name_8'
p715
I0
sS'category_exercise_name_9'
p716
I0
sg65
I6
sg66
I0
sS'category_exercise_name_2'
p717
I0
sg68
I0
sS'velocities_arr_11'
p718
I0
sg70
I1
sg27
F0.0
sa(dp719
g4
I5
sg37
I0
sg38
I0
sg39
I0
sg40
I0
sg41
I0
sg42
I0
sg43
I0
sg44
I0
sg45
I0
sg46
I-1
sg47
I165
sg48
I0
sg49
I0
sg50
I0
sg51
I0
sg52
I0
sg57
I0
sg53
I-1
sg54
I6
sg55
I1
sg56
I0
sg67
I0
sg58
I0
sg59
I0
sg60
I0
sg61
I0
sg62
I0
sg63
I0
sg64
I0
sg65
I7
sg66
I-1
sg68
I0
sg69
I0
sg70
I-1
sg27
F0.0
sasS'workouty'
p720
(dp721
S'velocities_arr_0'
p722
F0.66
sS'velocities_arr_1'
p723
F0.69
sS'velocities_arr_2'
p724
F0.63
sS'velocities_arr_3'
p725
F0.68
sS'velocities_arr_4'
p726
F0.65
sS'velocities_arr_5'
p727
F0.58
sS'velocities_arr_6'
p728
I0
sS'velocities_arr_7'
p729
I0
sg53
I6
sS'velocities_arr_9'
p730
I0
sg46
I151
sS'velocities_arr_10'
p731
I0
sS'velocities_arr_8'
p732
I0
sg66
I0
sS'velocities_arr_11'
p733
I0
sg70
I1
ssS'userx'
p734
(dp735
S'harris_benedict_bmr'
p736
I-1
sS'height_inches'
p737
F70.0
sS'genetically_gifted'
p738
I0
sS'wrist_width_inches'
p739
I7
sS'years_old'
p740
I31
sS'ankle_width_inches'
p741
I9
sS'sex_is_male'
p742
I1
ssS'dayy'
p743
(dp744
g10
F162.4
sg21
F72.0
sg6
F55.9
sg25
F7.6
sg15
F80.3
sg18
F4.0
sg9
F15.7
ss.