(dp0
S'dayseriesx'
p1
(lp2
(dp3
S'day_number'
p4
I-1
sS'sleeptime_awake_hrs'
p5
I-1
sS'withings_body_water_percent'
p6
I-1
sS'heart_rate_variability_rmssd'
p7
I-1
sS'sleeptime_deep_rem_hrs'
p8
I-1
sS'withings_body_fat_percent'
p9
I-1
sS'withings_weight_lbs'
p10
I-1
sS'sleeptime_efficiency_percent'
p11
I-1
sS'post_day_calories_in'
p12
I-1
sS'post_day_fat_g'
p13
I-1
sS'sleeptime_bed_time_ampm_index'
p14
I-1
sS'withings_muscle_mass_percent'
p15
I-1
sS'days_since_last_recorded_day'
p16
I-1
sS'sleeptime_alarm_ring_ampm_index'
p17
I-1
sS'withings_bone_mass_percent'
p18
I-1
sS'sleeptime_snoozed'
p19
I-1
sS'sleeptime_light_sleep_hrs'
p20
I-1
sS'withings_heart_rate_bpm'
p21
I-1
sS'sleeptime_alarm_set_ampm_index'
p22
I-1
sS'post_day_protein_g'
p23
I-1
sS'post_day_wearable_calories_burned'
p24
I-1
sS'withings_pulse_wave_velocity_m_per_s'
p25
I-1
sS'sleeptime_rise_time_ampm_index'
p26
I-1
sS'days_since_last_workout'
p27
I-1
sS'post_day_carbs_g'
p28
I-1
sag3
ag3
ag3
ag3
ag3
ag3
ag3
ag3
ag3
a(dp29
g4
I0
sg5
F0.7333333333333333
sg6
F56.0
sg7
I-1
sg8
F4.733333333333333
sg9
F15.5
sg10
F163.1
sg11
F91.0
sg12
I-1
sg13
I-1
sg14
I1339
sg15
F80.5
sg16
F0.0
sg17
I425
sg18
F3.9
sg19
I4
sg20
F3.55
sg21
F72.0
sg22
I428
sg23
I-1
sg24
I-1
sg25
F7.4
sg26
I440
sg27
I0
sg28
I-1
sa(dp30
g4
I1
sg5
F0.35
sg6
F56.0
sg7
I-1
sg8
F4.233333333333333
sg9
F15.4
sg10
F162.4
sg11
F95.0
sg12
I-1
sg13
I-1
sg14
I1355
sg15
F80.6
sg16
F1.0
sg17
I412
sg18
F3.9
sg19
I4
sg20
F4.15
sg21
F88.0
sg22
I428
sg23
I-1
sg24
I-1
sg25
F7.5
sg26
I440
sg27
F0.0
sg28
I-1
sa(dp31
g4
I2
sg5
F0.2
sg6
F56.2
sg7
I-1
sg8
F3.05
sg9
F15.1
sg10
F161.7
sg11
F97.0
sg12
I-1
sg13
I-1
sg14
I1371
sg15
F80.9
sg16
F1.0
sg17
I424
sg18
F3.9
sg19
I3
sg20
F5.2
sg21
F76.0
sg22
I428
sg23
I-1
sg24
I-1
sg25
F7.6
sg26
I440
sg27
F0.0
sg28
I-1
sasS'workoutxseries'
p32
(lp33
(dp34
g4
I3
sS'velocities_arr_0'
p35
I0
sS'velocities_arr_2'
p36
I0
sS'velocities_arr_3'
p37
I0
sS'velocities_arr_4'
p38
I0
sS'velocities_arr_5'
p39
I0
sS'velocities_arr_6'
p40
I0
sS'velocities_arr_1'
p41
I0
sS'velocities_arr_8'
p42
I0
sS'velocities_arr_9'
p43
I0
sS'postset_heartrate'
p44
I-1
sS'weight_lbs'
p45
I-1
sS'velocities_arr_7'
p46
I0
sS'category_exercise_name_12'
p47
I0
sS'category_exercise_name_13'
p48
I0
sS'category_exercise_name_10'
p49
I0
sS'category_exercise_name_11'
p50
I0
sS'reps_completed'
p51
I-1
sS'reps_planned'
p52
I-1
sS'category_exercise_name_0'
p53
I0
sS'category_exercise_name_1'
p54
I0
sS'category_exercise_name_2'
p55
I0
sS'category_exercise_name_3'
p56
I0
sS'category_exercise_name_4'
p57
I0
sS'category_exercise_name_5'
p58
I0
sS'category_exercise_name_6'
p59
I0
sS'category_exercise_name_7'
p60
I0
sS'category_exercise_name_8'
p61
I0
sS'category_exercise_name_9'
p62
I0
sS'set_number_of_the_day'
p63
I5
sS'went_to_failure'
p64
I0
sS'velocities_arr_10'
p65
I0
sS'used_lifting_gear'
p66
I0
sS'velocities_arr_11'
p67
I0
sS'did_pull_muscle'
p68
I0
sg27
I0
sag34
ag34
ag34
ag34
ag34
ag34
ag34
ag34
ag34
ag34
ag34
ag34
ag34
ag34
ag34
ag34
ag34
ag34
ag34
ag34
a(dp69
g4
I1
sS'velocities_arr_0'
p70
F1.23
sS'velocities_arr_2'
p71
F1.16
sS'velocities_arr_3'
p72
F1.13
sS'velocities_arr_4'
p73
F1.18
sS'velocities_arr_5'
p74
F1.18
sS'velocities_arr_6'
p75
F1.18
sS'velocities_arr_1'
p76
F1.3
sS'velocities_arr_8'
p77
I0
sS'velocities_arr_9'
p78
I0
sg44
I107
sg45
I45
sS'velocities_arr_7'
p79
F1.18
sS'category_exercise_name_12'
p80
I0
sS'category_exercise_name_13'
p81
I0
sS'category_exercise_name_10'
p82
I0
sS'category_exercise_name_11'
p83
I0
sg51
I8
sg52
I8
sS'category_exercise_name_0'
p84
I0
sS'category_exercise_name_1'
p85
I0
sS'velocities_arr_10'
p86
I0
sS'category_exercise_name_3'
p87
I0
sS'category_exercise_name_4'
p88
I0
sS'category_exercise_name_5'
p89
I0
sS'category_exercise_name_6'
p90
I0
sS'category_exercise_name_7'
p91
I0
sS'category_exercise_name_8'
p92
I0
sS'category_exercise_name_9'
p93
I0
sg63
I0
sg64
I0
sS'category_exercise_name_2'
p94
I1
sg66
I0
sS'velocities_arr_11'
p95
I0
sg68
I0
sg27
I0
sa(dp96
g4
I1
sS'velocities_arr_0'
p97
F0.84
sS'velocities_arr_2'
p98
F0.82
sS'velocities_arr_3'
p99
F0.8
sS'velocities_arr_4'
p100
F0.8
sS'velocities_arr_5'
p101
F0.77
sS'velocities_arr_6'
p102
F0.74
sS'velocities_arr_1'
p103
F0.91
sS'velocities_arr_8'
p104
I0
sS'velocities_arr_9'
p105
I0
sg44
I109
sg45
I135
sS'velocities_arr_7'
p106
F0.72
sS'category_exercise_name_12'
p107
I0
sS'category_exercise_name_13'
p108
I0
sS'category_exercise_name_10'
p109
I0
sS'category_exercise_name_11'
p110
I0
sg51
I8
sg52
I8
sS'category_exercise_name_0'
p111
I0
sS'category_exercise_name_1'
p112
I0
sS'velocities_arr_10'
p113
I0
sS'category_exercise_name_3'
p114
I0
sS'category_exercise_name_4'
p115
I0
sS'category_exercise_name_5'
p116
I0
sS'category_exercise_name_6'
p117
I0
sS'category_exercise_name_7'
p118
I0
sS'category_exercise_name_8'
p119
I0
sS'category_exercise_name_9'
p120
I0
sg63
I1
sg64
I0
sS'category_exercise_name_2'
p121
I1
sg66
I0
sS'velocities_arr_11'
p122
I0
sg68
I0
sg27
I0
sa(dp123
g4
I1
sS'velocities_arr_0'
p124
F0.77
sS'velocities_arr_2'
p125
F0.69
sS'velocities_arr_3'
p126
F0.74
sS'velocities_arr_4'
p127
F0.68
sS'velocities_arr_5'
p128
F0.68
sS'velocities_arr_6'
p129
F0.65
sS'velocities_arr_1'
p130
F0.76
sS'velocities_arr_8'
p131
I0
sS'velocities_arr_9'
p132
I0
sg44
I142
sg45
I155
sS'velocities_arr_7'
p133
F0.59
sS'category_exercise_name_12'
p134
I0
sS'category_exercise_name_13'
p135
I0
sS'category_exercise_name_10'
p136
I0
sS'category_exercise_name_11'
p137
I0
sg51
I8
sg52
I8
sS'category_exercise_name_0'
p138
I0
sS'category_exercise_name_1'
p139
I0
sS'velocities_arr_10'
p140
I0
sS'category_exercise_name_3'
p141
I0
sS'category_exercise_name_4'
p142
I0
sS'category_exercise_name_5'
p143
I0
sS'category_exercise_name_6'
p144
I0
sS'category_exercise_name_7'
p145
I0
sS'category_exercise_name_8'
p146
I0
sS'category_exercise_name_9'
p147
I0
sg63
I2
sg64
I0
sS'category_exercise_name_2'
p148
I1
sg66
I0
sS'velocities_arr_11'
p149
I0
sg68
I0
sg27
I0
sa(dp150
g4
I1
sS'velocities_arr_0'
p151
F0.64
sS'velocities_arr_2'
p152
F0.63
sS'velocities_arr_3'
p153
F0.57
sS'velocities_arr_4'
p154
F0.59
sS'velocities_arr_5'
p155
F0.53
sS'velocities_arr_6'
p156
F0.52
sS'velocities_arr_1'
p157
F0.62
sS'velocities_arr_8'
p158
I0
sS'velocities_arr_9'
p159
I0
sg44
I153
sg45
I185
sS'velocities_arr_7'
p160
F0.47
sS'category_exercise_name_12'
p161
I0
sS'category_exercise_name_13'
p162
I0
sS'category_exercise_name_10'
p163
I0
sS'category_exercise_name_11'
p164
I0
sg51
I8
sg52
I8
sS'category_exercise_name_0'
p165
I0
sS'category_exercise_name_1'
p166
I0
sS'velocities_arr_10'
p167
I0
sS'category_exercise_name_3'
p168
I0
sS'category_exercise_name_4'
p169
I0
sS'category_exercise_name_5'
p170
I0
sS'category_exercise_name_6'
p171
I0
sS'category_exercise_name_7'
p172
I0
sS'category_exercise_name_8'
p173
I0
sS'category_exercise_name_9'
p174
I0
sg63
I3
sg64
I0
sS'category_exercise_name_2'
p175
I1
sg66
I0
sS'velocities_arr_11'
p176
I0
sg68
I0
sg27
I0
sa(dp177
g4
I2
sS'velocities_arr_0'
p178
F2.58
sS'velocities_arr_2'
p179
F1.89
sS'velocities_arr_3'
p180
F2.2
sS'velocities_arr_4'
p181
F1.89
sS'velocities_arr_5'
p182
F2.2
sS'velocities_arr_6'
p183
F1.89
sS'velocities_arr_1'
p184
F2.08
sS'velocities_arr_8'
p185
F1.76
sS'velocities_arr_9'
p186
F0.47
sg44
I88
sg45
I45
sS'velocities_arr_7'
p187
F1.89
sS'category_exercise_name_12'
p188
I0
sS'category_exercise_name_13'
p189
I0
sS'category_exercise_name_10'
p190
I0
sS'category_exercise_name_11'
p191
I0
sg51
I8
sg52
I8
sS'category_exercise_name_0'
p192
I0
sS'category_exercise_name_1'
p193
I0
sS'velocities_arr_10'
p194
I0
sS'category_exercise_name_3'
p195
I1
sS'category_exercise_name_4'
p196
I0
sS'category_exercise_name_5'
p197
I0
sS'category_exercise_name_6'
p198
I0
sS'category_exercise_name_7'
p199
I0
sS'category_exercise_name_8'
p200
I0
sS'category_exercise_name_9'
p201
I0
sg63
I0
sg64
I0
sS'category_exercise_name_2'
p202
I0
sg66
I0
sS'velocities_arr_11'
p203
I0
sg68
I0
sg27
F0.0
sa(dp204
g4
I2
sS'velocities_arr_0'
p205
F0.7
sS'velocities_arr_2'
p206
F0.72
sS'velocities_arr_3'
p207
F0.71
sS'velocities_arr_4'
p208
F0.71
sS'velocities_arr_5'
p209
F0.76
sS'velocities_arr_6'
p210
F0.71
sS'velocities_arr_1'
p211
F0.73
sS'velocities_arr_8'
p212
I0
sS'velocities_arr_9'
p213
I0
sg44
I89
sg45
I95
sS'velocities_arr_7'
p214
F0.65
sS'category_exercise_name_12'
p215
I0
sS'category_exercise_name_13'
p216
I0
sS'category_exercise_name_10'
p217
I0
sS'category_exercise_name_11'
p218
I0
sg51
I8
sg52
I8
sS'category_exercise_name_0'
p219
I0
sS'category_exercise_name_1'
p220
I0
sS'velocities_arr_10'
p221
I0
sS'category_exercise_name_3'
p222
I1
sS'category_exercise_name_4'
p223
I0
sS'category_exercise_name_5'
p224
I0
sS'category_exercise_name_6'
p225
I0
sS'category_exercise_name_7'
p226
I0
sS'category_exercise_name_8'
p227
I0
sS'category_exercise_name_9'
p228
I0
sg63
I1
sg64
I0
sS'category_exercise_name_2'
p229
I0
sg66
I0
sS'velocities_arr_11'
p230
I0
sg68
I0
sg27
F0.0
sa(dp231
g4
I2
sS'velocities_arr_0'
p232
F0.82
sS'velocities_arr_2'
p233
F0.9
sS'velocities_arr_3'
p234
F0.8
sS'velocities_arr_4'
p235
F0.8
sS'velocities_arr_5'
p236
F0.71
sS'velocities_arr_6'
p237
F0.78
sS'velocities_arr_1'
p238
F0.86
sS'velocities_arr_8'
p239
I0
sS'velocities_arr_9'
p240
I0
sg44
I95
sg45
I95
sS'velocities_arr_7'
p241
F0.74
sS'category_exercise_name_12'
p242
I0
sS'category_exercise_name_13'
p243
I0
sS'category_exercise_name_10'
p244
I0
sS'category_exercise_name_11'
p245
I0
sg51
I8
sg52
I8
sS'category_exercise_name_0'
p246
I0
sS'category_exercise_name_1'
p247
I0
sS'velocities_arr_10'
p248
I0
sS'category_exercise_name_3'
p249
I1
sS'category_exercise_name_4'
p250
I0
sS'category_exercise_name_5'
p251
I0
sS'category_exercise_name_6'
p252
I0
sS'category_exercise_name_7'
p253
I0
sS'category_exercise_name_8'
p254
I0
sS'category_exercise_name_9'
p255
I0
sg63
I2
sg64
I0
sS'category_exercise_name_2'
p256
I0
sg66
I0
sS'velocities_arr_11'
p257
I0
sg68
I0
sg27
F0.0
sa(dp258
g4
I2
sS'velocities_arr_0'
p259
F0.62
sS'velocities_arr_2'
p260
F0.71
sS'velocities_arr_3'
p261
F0.67
sS'velocities_arr_4'
p262
F0.66
sS'velocities_arr_5'
p263
F0.55
sS'velocities_arr_6'
p264
F0.59
sS'velocities_arr_1'
p265
F0.75
sS'velocities_arr_8'
p266
I0
sS'velocities_arr_9'
p267
I0
sg44
I103
sg45
I105
sS'velocities_arr_7'
p268
F0.54
sS'category_exercise_name_12'
p269
I0
sS'category_exercise_name_13'
p270
I0
sS'category_exercise_name_10'
p271
I0
sS'category_exercise_name_11'
p272
I0
sg51
I8
sg52
I8
sS'category_exercise_name_0'
p273
I0
sS'category_exercise_name_1'
p274
I0
sS'velocities_arr_10'
p275
I0
sS'category_exercise_name_3'
p276
I1
sS'category_exercise_name_4'
p277
I0
sS'category_exercise_name_5'
p278
I0
sS'category_exercise_name_6'
p279
I0
sS'category_exercise_name_7'
p280
I0
sS'category_exercise_name_8'
p281
I0
sS'category_exercise_name_9'
p282
I0
sg63
I3
sg64
I0
sS'category_exercise_name_2'
p283
I0
sg66
I0
sS'velocities_arr_11'
p284
I0
sg68
I0
sg27
F0.0
sa(dp285
g4
I2
sS'velocities_arr_0'
p286
I0
sS'velocities_arr_2'
p287
I0
sS'velocities_arr_3'
p288
I0
sS'velocities_arr_4'
p289
I0
sS'velocities_arr_5'
p290
I0
sS'velocities_arr_6'
p291
I0
sS'velocities_arr_1'
p292
I0
sS'velocities_arr_8'
p293
I0
sS'velocities_arr_9'
p294
I0
sg44
I112
sg45
I115
sS'velocities_arr_7'
p295
I0
sS'category_exercise_name_12'
p296
I0
sS'category_exercise_name_13'
p297
I0
sS'category_exercise_name_10'
p298
I0
sS'category_exercise_name_11'
p299
I0
sg51
I8
sg52
I8
sS'category_exercise_name_0'
p300
I0
sS'category_exercise_name_1'
p301
I0
sS'velocities_arr_10'
p302
I0
sS'category_exercise_name_3'
p303
I1
sS'category_exercise_name_4'
p304
I0
sS'category_exercise_name_5'
p305
I0
sS'category_exercise_name_6'
p306
I0
sS'category_exercise_name_7'
p307
I0
sS'category_exercise_name_8'
p308
I0
sS'category_exercise_name_9'
p309
I0
sg63
I4
sg64
I0
sS'category_exercise_name_2'
p310
I0
sg66
I0
sS'velocities_arr_11'
p311
I0
sg68
I0
sg27
F0.0
sa(dp312
g4
I2
sS'velocities_arr_0'
p313
F0.45
sS'velocities_arr_2'
p314
F0.4
sS'velocities_arr_3'
p315
F0.4
sS'velocities_arr_4'
p316
I0
sS'velocities_arr_5'
p317
I0
sS'velocities_arr_6'
p318
I0
sS'velocities_arr_1'
p319
F0.43
sS'velocities_arr_8'
p320
I0
sS'velocities_arr_9'
p321
I0
sg44
I111
sg45
I125
sS'velocities_arr_7'
p322
I0
sS'category_exercise_name_12'
p323
I0
sS'category_exercise_name_13'
p324
I0
sS'category_exercise_name_10'
p325
I0
sS'category_exercise_name_11'
p326
I0
sg51
I4
sg52
I4
sS'category_exercise_name_0'
p327
I0
sS'category_exercise_name_1'
p328
I0
sS'velocities_arr_10'
p329
I0
sS'category_exercise_name_3'
p330
I1
sS'category_exercise_name_4'
p331
I0
sS'category_exercise_name_5'
p332
I0
sS'category_exercise_name_6'
p333
I0
sS'category_exercise_name_7'
p334
I0
sS'category_exercise_name_8'
p335
I0
sS'category_exercise_name_9'
p336
I0
sg63
I5
sg64
I0
sS'category_exercise_name_2'
p337
I0
sg66
I0
sS'velocities_arr_11'
p338
I0
sg68
I0
sg27
F0.0
sa(dp339
g4
I2
sS'velocities_arr_0'
p340
F0.3
sS'velocities_arr_2'
p341
F0.3
sS'velocities_arr_3'
p342
I0
sS'velocities_arr_4'
p343
I0
sS'velocities_arr_5'
p344
I0
sS'velocities_arr_6'
p345
I0
sS'velocities_arr_1'
p346
F0.3
sS'velocities_arr_8'
p347
I0
sS'velocities_arr_9'
p348
I0
sg44
I107
sg45
I135
sS'velocities_arr_7'
p349
I0
sS'category_exercise_name_12'
p350
I0
sS'category_exercise_name_13'
p351
I0
sS'category_exercise_name_10'
p352
I0
sS'category_exercise_name_11'
p353
I0
sg51
I3
sg52
I3
sS'category_exercise_name_0'
p354
I0
sS'category_exercise_name_1'
p355
I0
sS'velocities_arr_10'
p356
I0
sS'category_exercise_name_3'
p357
I1
sS'category_exercise_name_4'
p358
I0
sS'category_exercise_name_5'
p359
I0
sS'category_exercise_name_6'
p360
I0
sS'category_exercise_name_7'
p361
I0
sS'category_exercise_name_8'
p362
I0
sS'category_exercise_name_9'
p363
I0
sg63
I6
sg64
I0
sS'category_exercise_name_2'
p364
I0
sg66
I0
sS'velocities_arr_11'
p365
I0
sg68
I0
sg27
F0.0
sa(dp366
g4
I2
sS'velocities_arr_0'
p367
I0
sS'velocities_arr_2'
p368
I0
sS'velocities_arr_3'
p369
I0
sS'velocities_arr_4'
p370
I0
sS'velocities_arr_5'
p371
I0
sS'velocities_arr_6'
p372
I0
sS'velocities_arr_1'
p373
I0
sS'velocities_arr_8'
p374
I0
sS'velocities_arr_9'
p375
I0
sg44
I121
sg45
F162.4
sS'velocities_arr_7'
p376
I0
sS'category_exercise_name_12'
p377
I1
sS'category_exercise_name_13'
p378
I0
sS'category_exercise_name_10'
p379
I0
sS'category_exercise_name_11'
p380
I0
sg51
I8
sg52
I8
sS'category_exercise_name_0'
p381
I0
sS'category_exercise_name_1'
p382
I0
sS'velocities_arr_10'
p383
I0
sS'category_exercise_name_3'
p384
I0
sS'category_exercise_name_4'
p385
I0
sS'category_exercise_name_5'
p386
I0
sS'category_exercise_name_6'
p387
I0
sS'category_exercise_name_7'
p388
I0
sS'category_exercise_name_8'
p389
I0
sS'category_exercise_name_9'
p390
I0
sg63
I7
sg64
I0
sS'category_exercise_name_2'
p391
I0
sg66
I0
sS'velocities_arr_11'
p392
I0
sg68
I0
sg27
F0.0
sa(dp393
g4
I2
sS'velocities_arr_0'
p394
I0
sS'velocities_arr_2'
p395
I0
sS'velocities_arr_3'
p396
I0
sS'velocities_arr_4'
p397
I0
sS'velocities_arr_5'
p398
I0
sS'velocities_arr_6'
p399
I0
sS'velocities_arr_1'
p400
I0
sS'velocities_arr_8'
p401
I0
sS'velocities_arr_9'
p402
I0
sg44
I121
sg45
F162.4
sS'velocities_arr_7'
p403
I0
sS'category_exercise_name_12'
p404
I1
sS'category_exercise_name_13'
p405
I0
sS'category_exercise_name_10'
p406
I0
sS'category_exercise_name_11'
p407
I0
sg51
I4
sg52
I4
sS'category_exercise_name_0'
p408
I0
sS'category_exercise_name_1'
p409
I0
sS'velocities_arr_10'
p410
I0
sS'category_exercise_name_3'
p411
I0
sS'category_exercise_name_4'
p412
I0
sS'category_exercise_name_5'
p413
I0
sS'category_exercise_name_6'
p414
I0
sS'category_exercise_name_7'
p415
I0
sS'category_exercise_name_8'
p416
I0
sS'category_exercise_name_9'
p417
I0
sg63
I8
sg64
I0
sS'category_exercise_name_2'
p418
I0
sg66
I0
sS'velocities_arr_11'
p419
I0
sg68
I0
sg27
F0.0
sa(dp420
g4
I3
sS'velocities_arr_0'
p421
F0.63
sS'velocities_arr_2'
p422
F0.64
sS'velocities_arr_3'
p423
F0.66
sS'velocities_arr_4'
p424
F0.72
sS'velocities_arr_5'
p425
F0.72
sS'velocities_arr_6'
p426
I0
sS'velocities_arr_1'
p427
F0.76
sS'velocities_arr_8'
p428
I0
sS'velocities_arr_9'
p429
I0
sg44
I116
sg45
I135
sS'velocities_arr_7'
p430
I0
sS'category_exercise_name_12'
p431
I0
sS'category_exercise_name_13'
p432
I0
sS'category_exercise_name_10'
p433
I0
sS'category_exercise_name_11'
p434
I0
sg51
I6
sg52
I6
sS'category_exercise_name_0'
p435
I1
sS'category_exercise_name_1'
p436
I0
sS'velocities_arr_10'
p437
I0
sS'category_exercise_name_3'
p438
I0
sS'category_exercise_name_4'
p439
I0
sS'category_exercise_name_5'
p440
I0
sS'category_exercise_name_6'
p441
I0
sS'category_exercise_name_7'
p442
I0
sS'category_exercise_name_8'
p443
I0
sS'category_exercise_name_9'
p444
I0
sg63
I0
sg64
I0
sS'category_exercise_name_2'
p445
I0
sg66
I0
sS'velocities_arr_11'
p446
I0
sg68
I0
sg27
F0.0
sa(dp447
g4
I3
sS'velocities_arr_0'
p448
F0.85
sS'velocities_arr_2'
p449
F1.15
sS'velocities_arr_3'
p450
F1.32
sS'velocities_arr_4'
p451
F0.66
sS'velocities_arr_5'
p452
F1.98
sS'velocities_arr_6'
p453
I0
sS'velocities_arr_1'
p454
F0.88
sS'velocities_arr_8'
p455
I0
sS'velocities_arr_9'
p456
I0
sg44
I126
sg45
I155
sS'velocities_arr_7'
p457
I0
sS'category_exercise_name_12'
p458
I0
sS'category_exercise_name_13'
p459
I0
sS'category_exercise_name_10'
p460
I0
sS'category_exercise_name_11'
p461
I0
sg51
I6
sg52
I6
sS'category_exercise_name_0'
p462
I1
sS'category_exercise_name_1'
p463
I0
sS'velocities_arr_10'
p464
I0
sS'category_exercise_name_3'
p465
I0
sS'category_exercise_name_4'
p466
I0
sS'category_exercise_name_5'
p467
I0
sS'category_exercise_name_6'
p468
I0
sS'category_exercise_name_7'
p469
I0
sS'category_exercise_name_8'
p470
I0
sS'category_exercise_name_9'
p471
I0
sg63
I1
sg64
I0
sS'category_exercise_name_2'
p472
I0
sg66
I0
sS'velocities_arr_11'
p473
I0
sg68
I0
sg27
F0.0
sa(dp474
g4
I3
sS'velocities_arr_0'
p475
F0.62
sS'velocities_arr_2'
p476
F0.7
sS'velocities_arr_3'
p477
F1.09
sS'velocities_arr_4'
p478
F0.66
sS'velocities_arr_5'
p479
F0.66
sS'velocities_arr_6'
p480
I0
sS'velocities_arr_1'
p481
F0.74
sS'velocities_arr_8'
p482
I0
sS'velocities_arr_9'
p483
I0
sg44
I136
sg45
I185
sS'velocities_arr_7'
p484
I0
sS'category_exercise_name_12'
p485
I0
sS'category_exercise_name_13'
p486
I0
sS'category_exercise_name_10'
p487
I0
sS'category_exercise_name_11'
p488
I0
sg51
I6
sg52
I6
sS'category_exercise_name_0'
p489
I1
sS'category_exercise_name_1'
p490
I0
sS'velocities_arr_10'
p491
I0
sS'category_exercise_name_3'
p492
I0
sS'category_exercise_name_4'
p493
I0
sS'category_exercise_name_5'
p494
I0
sS'category_exercise_name_6'
p495
I0
sS'category_exercise_name_7'
p496
I0
sS'category_exercise_name_8'
p497
I0
sS'category_exercise_name_9'
p498
I0
sg63
I2
sg64
I0
sS'category_exercise_name_2'
p499
I0
sg66
I0
sS'velocities_arr_11'
p500
I0
sg68
I0
sg27
F0.0
sa(dp501
g4
I3
sS'velocities_arr_0'
p502
F0.55
sS'velocities_arr_2'
p503
F0.63
sS'velocities_arr_3'
p504
F0.54
sS'velocities_arr_4'
p505
F1.18
sS'velocities_arr_5'
p506
F1.1
sS'velocities_arr_6'
p507
I0
sS'velocities_arr_1'
p508
F0.6
sS'velocities_arr_8'
p509
I0
sS'velocities_arr_9'
p510
I0
sg44
I155
sg45
I205
sS'velocities_arr_7'
p511
I0
sS'category_exercise_name_12'
p512
I0
sS'category_exercise_name_13'
p513
I0
sS'category_exercise_name_10'
p514
I0
sS'category_exercise_name_11'
p515
I0
sg51
I6
sg52
I6
sS'category_exercise_name_0'
p516
I1
sS'category_exercise_name_1'
p517
I0
sS'velocities_arr_10'
p518
I0
sS'category_exercise_name_3'
p519
I0
sS'category_exercise_name_4'
p520
I0
sS'category_exercise_name_5'
p521
I0
sS'category_exercise_name_6'
p522
I0
sS'category_exercise_name_7'
p523
I0
sS'category_exercise_name_8'
p524
I0
sS'category_exercise_name_9'
p525
I0
sg63
I3
sg64
I0
sS'category_exercise_name_2'
p526
I0
sg66
I0
sS'velocities_arr_11'
p527
I0
sg68
I0
sg27
F0.0
sa(dp528
g4
I3
sS'velocities_arr_0'
p529
I0
sS'velocities_arr_2'
p530
I0
sS'velocities_arr_3'
p531
I0
sS'velocities_arr_4'
p532
I0
sS'velocities_arr_5'
p533
I0
sS'velocities_arr_6'
p534
I0
sS'velocities_arr_1'
p535
I0
sS'velocities_arr_8'
p536
I0
sS'velocities_arr_9'
p537
I0
sg44
I133
sg45
I163
sS'velocities_arr_7'
p538
I0
sS'category_exercise_name_12'
p539
I0
sS'category_exercise_name_13'
p540
I0
sS'category_exercise_name_10'
p541
I0
sS'category_exercise_name_11'
p542
I1
sg51
I3
sg52
I3
sS'category_exercise_name_0'
p543
I0
sS'category_exercise_name_1'
p544
I0
sS'velocities_arr_10'
p545
I0
sS'category_exercise_name_3'
p546
I0
sS'category_exercise_name_4'
p547
I0
sS'category_exercise_name_5'
p548
I0
sS'category_exercise_name_6'
p549
I0
sS'category_exercise_name_7'
p550
I0
sS'category_exercise_name_8'
p551
I0
sS'category_exercise_name_9'
p552
I0
sg63
I4
sg64
I0
sS'category_exercise_name_2'
p553
I0
sg66
I0
sS'velocities_arr_11'
p554
I0
sg68
I0
sg27
F0.0
sa(dp555
g4
I3
sg35
I0
sg36
I0
sg37
I0
sg38
I0
sg39
I0
sg40
I0
sg41
I0
sg42
I0
sg43
I0
sg44
I-1
sg45
I163
sg46
I0
sg47
I0
sg48
I0
sg49
I0
sg50
I1
sg55
I0
sg51
I-1
sg52
I3
sg53
I0
sg54
I0
sg65
I0
sg56
I0
sg57
I0
sg58
I0
sg59
I0
sg60
I0
sg61
I0
sg62
I0
sg63
I5
sg64
I-1
sg66
I0
sg67
I0
sg68
I-1
sg27
F0.0
sasS'workouty'
p556
(dp557
S'velocities_arr_0'
p558
I0
sS'velocities_arr_1'
p559
I0
sS'velocities_arr_2'
p560
I0
sS'velocities_arr_3'
p561
I0
sS'velocities_arr_4'
p562
I0
sS'velocities_arr_5'
p563
I0
sS'velocities_arr_6'
p564
I0
sS'velocities_arr_7'
p565
I0
sg51
I3
sS'velocities_arr_9'
p566
I0
sg44
I133
sS'velocities_arr_10'
p567
I0
sS'velocities_arr_8'
p568
I0
sg64
I0
sS'velocities_arr_11'
p569
I0
sg68
I0
ssS'userx'
p570
(dp571
S'harris_benedict_bmr'
p572
I-1
sS'height_inches'
p573
F70.0
sS'genetically_gifted'
p574
I0
sS'wrist_width_inches'
p575
I7
sS'years_old'
p576
I31
sS'ankle_width_inches'
p577
I9
sS'sex_is_male'
p578
I1
ssS'dayy'
p579
(dp580
g10
F161.5
sg21
F83.0
sg6
F56.5
sg25
F7.6
sg15
F81.4
sg18
F3.9
sg9
F14.5
ss.