(dp0
S'dayseriesx'
p1
(lp2
(dp3
S'day_number'
p4
I-1
sS'sleeptime_awake_hrs'
p5
I-1
sS'withings_body_water_percent'
p6
I-1
sS'heart_rate_variability_rmssd'
p7
I-1
sS'sleeptime_deep_rem_hrs'
p8
I-1
sS'withings_body_fat_percent'
p9
I-1
sS'withings_weight_lbs'
p10
I-1
sS'sleeptime_efficiency_percent'
p11
I-1
sS'post_day_calories_in'
p12
I-1
sS'post_day_fat_g'
p13
I-1
sS'sleeptime_bed_time_ampm_index'
p14
I-1
sS'withings_muscle_mass_percent'
p15
I-1
sS'days_since_last_recorded_day'
p16
I-1
sS'sleeptime_alarm_ring_ampm_index'
p17
I-1
sS'withings_bone_mass_percent'
p18
I-1
sS'sleeptime_snoozed'
p19
I-1
sS'sleeptime_light_sleep_hrs'
p20
I-1
sS'withings_heart_rate_bpm'
p21
I-1
sS'sleeptime_alarm_set_ampm_index'
p22
I-1
sS'post_day_protein_g'
p23
I-1
sS'post_day_wearable_calories_burned'
p24
I-1
sS'withings_pulse_wave_velocity_m_per_s'
p25
I-1
sS'sleeptime_rise_time_ampm_index'
p26
I-1
sS'days_since_last_workout'
p27
I-1
sS'post_day_carbs_g'
p28
I-1
sag3
ag3
ag3
ag3
ag3
ag3
ag3
ag3
ag3
ag3
ag3
ag3
ag3
ag3
ag3
ag3
ag3
ag3
ag3
ag3
ag3
ag3
a(dp29
g4
I0
sg5
F0.4
sg6
F56.5
sg7
I-1
sg8
F1.6666666666666665
sg9
F15.0
sg10
F162.6
sg11
F94.0
sg12
I-1
sg13
I-1
sg14
I1435
sg15
F81.4
sg16
F0.0
sg17
I406
sg18
F4.0
sg19
I3
sg20
F5.216666666666667
sg21
I82
sg22
I425
sg23
I-1
sg24
I-1
sg25
F7.4
sg26
I432
sg27
I0
sg28
I-1
sasS'workoutxseries'
p30
(lp31
(dp32
g4
I1
sS'velocities_arr_0'
p33
I0
sS'velocities_arr_2'
p34
I0
sS'velocities_arr_3'
p35
I0
sS'velocities_arr_4'
p36
I0
sS'velocities_arr_5'
p37
I0
sS'velocities_arr_6'
p38
I0
sS'velocities_arr_1'
p39
I0
sS'velocities_arr_8'
p40
I0
sS'velocities_arr_9'
p41
I0
sS'postset_heartrate'
p42
I-1
sS'weight_lbs'
p43
I-1
sS'velocities_arr_7'
p44
I0
sS'category_exercise_name_12'
p45
I0
sS'category_exercise_name_13'
p46
I0
sS'category_exercise_name_10'
p47
I0
sS'category_exercise_name_11'
p48
I0
sS'reps_completed'
p49
I-1
sS'reps_planned'
p50
I-1
sS'category_exercise_name_0'
p51
I0
sS'category_exercise_name_1'
p52
I0
sS'category_exercise_name_2'
p53
I0
sS'category_exercise_name_3'
p54
I0
sS'category_exercise_name_4'
p55
I0
sS'category_exercise_name_5'
p56
I0
sS'category_exercise_name_6'
p57
I0
sS'category_exercise_name_7'
p58
I0
sS'category_exercise_name_8'
p59
I0
sS'category_exercise_name_9'
p60
I0
sS'set_number_of_the_day'
p61
I4
sS'went_to_failure'
p62
I0
sS'velocities_arr_10'
p63
I0
sS'used_lifting_gear'
p64
I0
sS'velocities_arr_11'
p65
I0
sS'did_pull_muscle'
p66
I0
sg27
I0
sag32
ag32
ag32
ag32
ag32
ag32
ag32
ag32
ag32
ag32
ag32
ag32
ag32
ag32
ag32
ag32
ag32
ag32
ag32
ag32
ag32
ag32
ag32
ag32
ag32
ag32
ag32
ag32
ag32
ag32
ag32
ag32
ag32
ag32
a(dp67
g4
I1
sS'velocities_arr_0'
p68
F1.82
sS'velocities_arr_2'
p69
F1.71
sS'velocities_arr_3'
p70
F1.86
sS'velocities_arr_4'
p71
F1.82
sS'velocities_arr_5'
p72
F1.82
sS'velocities_arr_6'
p73
I0
sS'velocities_arr_1'
p74
F1.68
sS'velocities_arr_8'
p75
I0
sS'velocities_arr_9'
p76
I0
sg42
I80
sg43
I45
sS'velocities_arr_7'
p77
I0
sS'category_exercise_name_12'
p78
I0
sS'category_exercise_name_13'
p79
I0
sS'category_exercise_name_10'
p80
I0
sS'category_exercise_name_11'
p81
I0
sg49
I6
sg50
I6
sS'category_exercise_name_0'
p82
I0
sS'category_exercise_name_1'
p83
I0
sS'velocities_arr_10'
p84
I0
sS'category_exercise_name_3'
p85
I1
sS'category_exercise_name_4'
p86
I0
sS'category_exercise_name_5'
p87
I0
sS'category_exercise_name_6'
p88
I0
sS'category_exercise_name_7'
p89
I0
sS'category_exercise_name_8'
p90
I0
sS'category_exercise_name_9'
p91
I0
sg61
I0
sg62
I0
sS'category_exercise_name_2'
p92
I0
sg64
I0
sS'velocities_arr_11'
p93
I0
sg66
I0
sg27
I0
sa(dp94
g4
I1
sS'velocities_arr_0'
p95
F0.79
sS'velocities_arr_2'
p96
F0.71
sS'velocities_arr_3'
p97
F0.7
sS'velocities_arr_4'
p98
F0.62
sS'velocities_arr_5'
p99
F0.6
sS'velocities_arr_6'
p100
I0
sS'velocities_arr_1'
p101
F0.71
sS'velocities_arr_8'
p102
I0
sS'velocities_arr_9'
p103
I0
sg42
I92
sg43
I105
sS'velocities_arr_7'
p104
I0
sS'category_exercise_name_12'
p105
I0
sS'category_exercise_name_13'
p106
I0
sS'category_exercise_name_10'
p107
I0
sS'category_exercise_name_11'
p108
I0
sg49
I6
sg50
I6
sS'category_exercise_name_0'
p109
I0
sS'category_exercise_name_1'
p110
I0
sS'velocities_arr_10'
p111
I0
sS'category_exercise_name_3'
p112
I1
sS'category_exercise_name_4'
p113
I0
sS'category_exercise_name_5'
p114
I0
sS'category_exercise_name_6'
p115
I0
sS'category_exercise_name_7'
p116
I0
sS'category_exercise_name_8'
p117
I0
sS'category_exercise_name_9'
p118
I0
sg61
I1
sg62
I0
sS'category_exercise_name_2'
p119
I0
sg64
I0
sS'velocities_arr_11'
p120
I0
sg66
I0
sg27
I0
sa(dp121
g4
I1
sS'velocities_arr_0'
p122
F0.71
sS'velocities_arr_2'
p123
F0.62
sS'velocities_arr_3'
p124
F0.65
sS'velocities_arr_4'
p125
F0.64
sS'velocities_arr_5'
p126
F0.64
sS'velocities_arr_6'
p127
I0
sS'velocities_arr_1'
p128
F0.66
sS'velocities_arr_8'
p129
I0
sS'velocities_arr_9'
p130
I0
sg42
I93
sg43
I105
sS'velocities_arr_7'
p131
I0
sS'category_exercise_name_12'
p132
I0
sS'category_exercise_name_13'
p133
I0
sS'category_exercise_name_10'
p134
I0
sS'category_exercise_name_11'
p135
I0
sg49
I6
sg50
I6
sS'category_exercise_name_0'
p136
I0
sS'category_exercise_name_1'
p137
I0
sS'velocities_arr_10'
p138
I0
sS'category_exercise_name_3'
p139
I1
sS'category_exercise_name_4'
p140
I0
sS'category_exercise_name_5'
p141
I0
sS'category_exercise_name_6'
p142
I0
sS'category_exercise_name_7'
p143
I0
sS'category_exercise_name_8'
p144
I0
sS'category_exercise_name_9'
p145
I0
sg61
I2
sg62
I0
sS'category_exercise_name_2'
p146
I0
sg64
I0
sS'velocities_arr_11'
p147
I0
sg66
I0
sg27
I0
sa(dp148
g4
I1
sS'velocities_arr_0'
p149
F0.67
sS'velocities_arr_2'
p150
F0.59
sS'velocities_arr_3'
p151
F0.7
sS'velocities_arr_4'
p152
F0.6
sS'velocities_arr_5'
p153
F0.68
sS'velocities_arr_6'
p154
I0
sS'velocities_arr_1'
p155
F0.67
sS'velocities_arr_8'
p156
I0
sS'velocities_arr_9'
p157
I0
sg42
I83
sg43
I105
sS'velocities_arr_7'
p158
I0
sS'category_exercise_name_12'
p159
I0
sS'category_exercise_name_13'
p160
I0
sS'category_exercise_name_10'
p161
I0
sS'category_exercise_name_11'
p162
I0
sg49
I6
sg50
I6
sS'category_exercise_name_0'
p163
I0
sS'category_exercise_name_1'
p164
I0
sS'velocities_arr_10'
p165
I0
sS'category_exercise_name_3'
p166
I1
sS'category_exercise_name_4'
p167
I0
sS'category_exercise_name_5'
p168
I0
sS'category_exercise_name_6'
p169
I0
sS'category_exercise_name_7'
p170
I0
sS'category_exercise_name_8'
p171
I0
sS'category_exercise_name_9'
p172
I0
sg61
I3
sg62
I0
sS'category_exercise_name_2'
p173
I0
sg64
I0
sS'velocities_arr_11'
p174
I0
sg66
I0
sg27
I0
sa(dp175
g4
I1
sg33
I0
sg34
I0
sg35
I0
sg36
I0
sg37
I0
sg38
I0
sg39
I0
sg40
I0
sg41
I0
sg42
I-1
sg43
I105
sg44
I0
sg45
I0
sg46
I0
sg47
I0
sg48
I0
sg53
I0
sg49
I-1
sg50
I6
sg51
I0
sg52
I0
sg63
I0
sg54
I1
sg55
I0
sg56
I0
sg57
I0
sg58
I0
sg59
I0
sg60
I0
sg61
I4
sg62
I-1
sg64
I0
sg65
I0
sg66
I-1
sg27
I0
sasS'workouty'
p176
(dp177
S'velocities_arr_0'
p178
F0.71
sS'velocities_arr_1'
p179
F0.71
sS'velocities_arr_2'
p180
F0.66
sS'velocities_arr_3'
p181
F0.71
sS'velocities_arr_4'
p182
F0.71
sS'velocities_arr_5'
p183
F0.61
sS'velocities_arr_6'
p184
I0
sS'velocities_arr_7'
p185
I0
sg49
I6
sS'velocities_arr_9'
p186
I0
sg42
I90
sS'velocities_arr_10'
p187
I0
sS'velocities_arr_8'
p188
I0
sg62
I0
sS'velocities_arr_11'
p189
I0
sg66
I0
ssS'userx'
p190
(dp191
S'harris_benedict_bmr'
p192
I-1
sS'height_inches'
p193
F70.0
sS'genetically_gifted'
p194
I0
sS'wrist_width_inches'
p195
I7
sS'years_old'
p196
I31
sS'ankle_width_inches'
p197
I9
sS'sex_is_male'
p198
I1
ssS'dayy'
p199
(dp200
g10
F165.0
sg21
I93
sg6
F57.1
sg25
F7.3
sg15
F82.2
sg18
F4.0
sg9
F13.7
ss.