(dp0
S'dayseriesx'
p1
(lp2
(dp3
S'day_number'
p4
I-1
sS'sleeptime_awake_hrs'
p5
I-1
sS'withings_body_water_percent'
p6
I-1
sS'heart_rate_variability_rmssd'
p7
I-1
sS'sleeptime_deep_rem_hrs'
p8
I-1
sS'withings_body_fat_percent'
p9
I-1
sS'withings_weight_lbs'
p10
I-1
sS'sleeptime_efficiency_percent'
p11
I-1
sS'post_day_calories_in'
p12
I-1
sS'post_day_fat_g'
p13
I-1
sS'sleeptime_bed_time_ampm_index'
p14
I-1
sS'withings_muscle_mass_percent'
p15
I-1
sS'sleeptime_alarm_ring_ampm_index'
p16
I-1
sS'withings_bone_mass_percent'
p17
I-1
sS'sleeptime_snoozed'
p18
I-1
sS'sleeptime_light_sleep_hrs'
p19
I-1
sS'withings_heart_rate_bpm'
p20
I-1
sS'sleeptime_alarm_set_ampm_index'
p21
I-1
sS'post_day_protein_g'
p22
I-1
sS'post_day_wearable_calories_burned'
p23
I-1
sS'withings_pulse_wave_velocity_m_per_s'
p24
I-1
sS'sleeptime_rise_time_ampm_index'
p25
I-1
sS'days_since_last_workout'
p26
I-1
sS'post_day_carbs_g'
p27
I-1
sag3
ag3
ag3
ag3
ag3
ag3
a(dp28
g4
I0
sg5
F4.833333333333333
sg6
F55.7
sg7
I-1
sg8
F2.9166666666666665
sg9
F16.0
sg10
F163.5
sg11
F47.0
sg12
I-1
sg13
I-1
sg14
I566
sg15
F80.0
sg16
I1440
sg17
F4.0
sg18
I0
sg19
F1.3666666666666667
sg20
I77
sg21
I421
sg22
I-1
sg23
I-1
sg24
F7.8
sg25
I395
sg26
I0
sg27
I-1
sa(dp29
g4
I1
sg5
F0.3333333333333333
sg6
F55.4
sg7
I-1
sg8
F2.8
sg9
F16.6
sg10
F162.5
sg11
F96.0
sg12
I-1
sg13
I-1
sg14
I710
sg15
F79.4
sg16
I1440
sg17
F4.0
sg18
I0
sg19
F5.866666666666667
sg20
I75
sg21
I589
sg22
I-1
sg23
I-1
sg24
F7.7
sg25
I532
sg26
F1.0
sg27
I-1
sa(dp30
g4
I2
sg5
F0.9833333333333333
sg6
F55.9
sg7
I-1
sg8
F4.466666666666667
sg9
F15.7
sg10
F163.5
sg11
F89.0
sg12
I-1
sg13
I-1
sg14
I1419
sg15
F80.4
sg16
I1440
sg17
F4.0
sg18
I0
sg19
F4.016666666666667
sg20
I-1
sg21
I589
sg22
I-1
sg23
I-1
sg24
I-1
sg25
I548
sg26
F2.0
sg27
I-1
sa(dp31
g4
I3
sg5
F0.9166666666666666
sg6
F56.4
sg7
I-1
sg8
F4.1
sg9
F14.8
sg10
F163.7
sg11
F88.0
sg12
I-1
sg13
I-1
sg14
I1389
sg15
F81.2
sg16
I411
sg17
F4.0
sg18
I4
sg19
F3.1666666666666665
sg20
I86
sg21
I425
sg22
I-1
sg23
I-1
sg24
F7.4
sg25
I441
sg26
F3.0
sg27
I-1
sasS'workoutxseries'
p32
(lp33
(dp34
g4
I4
sS'velocities_arr_0'
p35
I0
sS'velocities_arr_2'
p36
I0
sS'velocities_arr_3'
p37
I0
sS'velocities_arr_4'
p38
I0
sS'velocities_arr_5'
p39
I0
sS'velocities_arr_6'
p40
I0
sS'velocities_arr_1'
p41
I0
sS'velocities_arr_8'
p42
I0
sS'velocities_arr_9'
p43
I0
sS'postset_heartrate'
p44
I-1
sS'weight_lbs'
p45
I-1
sS'velocities_arr_7'
p46
I0
sS'category_exercise_name_10'
p47
I0
sS'reps_completed'
p48
I-1
sS'reps_planned'
p49
I-1
sS'category_exercise_name_0'
p50
I0
sS'category_exercise_name_1'
p51
I0
sS'category_exercise_name_2'
p52
I0
sS'category_exercise_name_3'
p53
I0
sS'category_exercise_name_4'
p54
I0
sS'category_exercise_name_5'
p55
I0
sS'category_exercise_name_6'
p56
I0
sS'category_exercise_name_7'
p57
I0
sS'category_exercise_name_8'
p58
I0
sS'category_exercise_name_9'
p59
I0
sS'set_number_of_the_day'
p60
I3
sS'went_to_failure'
p61
I0
sS'velocities_arr_10'
p62
I0
sS'used_lifting_gear'
p63
I0
sS'velocities_arr_11'
p64
I0
sS'did_pull_muscle'
p65
I0
sg26
I0
sag34
ag34
ag34
ag34
ag34
ag34
ag34
ag34
ag34
ag34
ag34
ag34
ag34
ag34
ag34
ag34
ag34
ag34
ag34
ag34
a(dp66
g4
I1
sS'velocities_arr_0'
p67
F1.11
sS'velocities_arr_2'
p68
F1.08
sS'velocities_arr_3'
p69
F1.12
sS'velocities_arr_4'
p70
F1.62
sS'velocities_arr_5'
p71
I0
sS'velocities_arr_6'
p72
I0
sS'velocities_arr_1'
p73
F1.07
sS'velocities_arr_8'
p74
I0
sS'velocities_arr_9'
p75
I0
sg44
I107
sg45
I45
sS'velocities_arr_7'
p76
I0
sS'category_exercise_name_10'
p77
I0
sg48
I5
sg49
I5
sS'category_exercise_name_0'
p78
I0
sS'category_exercise_name_1'
p79
I0
sS'velocities_arr_10'
p80
I0
sS'category_exercise_name_3'
p81
I0
sS'category_exercise_name_4'
p82
I0
sS'category_exercise_name_5'
p83
I0
sS'category_exercise_name_6'
p84
I0
sS'category_exercise_name_7'
p85
I0
sS'category_exercise_name_8'
p86
I0
sS'category_exercise_name_9'
p87
I0
sg60
I0
sg61
I0
sS'category_exercise_name_2'
p88
I1
sg63
I0
sS'velocities_arr_11'
p89
I0
sg65
I0
sg26
I0
sa(dp90
g4
I1
sS'velocities_arr_0'
p91
F0.77
sS'velocities_arr_2'
p92
F0.83
sS'velocities_arr_3'
p93
F0.79
sS'velocities_arr_4'
p94
F0.77
sS'velocities_arr_5'
p95
I0
sS'velocities_arr_6'
p96
I0
sS'velocities_arr_1'
p97
F0.82
sS'velocities_arr_8'
p98
I0
sS'velocities_arr_9'
p99
I0
sg44
I125
sg45
I135
sS'velocities_arr_7'
p100
I0
sS'category_exercise_name_10'
p101
I0
sg48
I5
sg49
I5
sS'category_exercise_name_0'
p102
I0
sS'category_exercise_name_1'
p103
I0
sS'velocities_arr_10'
p104
I0
sS'category_exercise_name_3'
p105
I0
sS'category_exercise_name_4'
p106
I0
sS'category_exercise_name_5'
p107
I0
sS'category_exercise_name_6'
p108
I0
sS'category_exercise_name_7'
p109
I0
sS'category_exercise_name_8'
p110
I0
sS'category_exercise_name_9'
p111
I0
sg60
I1
sg61
I0
sS'category_exercise_name_2'
p112
I1
sg63
I0
sS'velocities_arr_11'
p113
I0
sg65
I0
sg26
I0
sa(dp114
g4
I1
sS'velocities_arr_0'
p115
F0.68
sS'velocities_arr_2'
p116
F0.65
sS'velocities_arr_3'
p117
F0.63
sS'velocities_arr_4'
p118
F0.61
sS'velocities_arr_5'
p119
I0
sS'velocities_arr_6'
p120
I0
sS'velocities_arr_1'
p121
F0.69
sS'velocities_arr_8'
p122
I0
sS'velocities_arr_9'
p123
I0
sg44
I131
sg45
I185
sS'velocities_arr_7'
p124
I0
sS'category_exercise_name_10'
p125
I0
sg48
I5
sg49
I5
sS'category_exercise_name_0'
p126
I0
sS'category_exercise_name_1'
p127
I0
sS'velocities_arr_10'
p128
I0
sS'category_exercise_name_3'
p129
I0
sS'category_exercise_name_4'
p130
I0
sS'category_exercise_name_5'
p131
I0
sS'category_exercise_name_6'
p132
I0
sS'category_exercise_name_7'
p133
I0
sS'category_exercise_name_8'
p134
I0
sS'category_exercise_name_9'
p135
I0
sg60
I2
sg61
I0
sS'category_exercise_name_2'
p136
I1
sg63
I0
sS'velocities_arr_11'
p137
I0
sg65
I0
sg26
I0
sa(dp138
g4
I1
sS'velocities_arr_0'
p139
F0.64
sS'velocities_arr_2'
p140
F0.62
sS'velocities_arr_3'
p141
F0.57
sS'velocities_arr_4'
p142
F0.56
sS'velocities_arr_5'
p143
I0
sS'velocities_arr_6'
p144
I0
sS'velocities_arr_1'
p145
F0.63
sS'velocities_arr_8'
p146
I0
sS'velocities_arr_9'
p147
I0
sg44
I141
sg45
I205
sS'velocities_arr_7'
p148
I0
sS'category_exercise_name_10'
p149
I0
sg48
I5
sg49
I5
sS'category_exercise_name_0'
p150
I0
sS'category_exercise_name_1'
p151
I0
sS'velocities_arr_10'
p152
I0
sS'category_exercise_name_3'
p153
I0
sS'category_exercise_name_4'
p154
I0
sS'category_exercise_name_5'
p155
I0
sS'category_exercise_name_6'
p156
I0
sS'category_exercise_name_7'
p157
I0
sS'category_exercise_name_8'
p158
I0
sS'category_exercise_name_9'
p159
I0
sg60
I3
sg61
I0
sS'category_exercise_name_2'
p160
I1
sg63
I0
sS'velocities_arr_11'
p161
I0
sg65
I0
sg26
I0
sa(dp162
g4
I1
sS'velocities_arr_0'
p163
F0.62
sS'velocities_arr_2'
p164
F0.52
sS'velocities_arr_3'
p165
F0.51
sS'velocities_arr_4'
p166
F0.46
sS'velocities_arr_5'
p167
I0
sS'velocities_arr_6'
p168
I0
sS'velocities_arr_1'
p169
F0.57
sS'velocities_arr_8'
p170
I0
sS'velocities_arr_9'
p171
I0
sg44
I148
sg45
I225
sS'velocities_arr_7'
p172
I0
sS'category_exercise_name_10'
p173
I0
sg48
I5
sg49
I5
sS'category_exercise_name_0'
p174
I0
sS'category_exercise_name_1'
p175
I0
sS'velocities_arr_10'
p176
I0
sS'category_exercise_name_3'
p177
I0
sS'category_exercise_name_4'
p178
I0
sS'category_exercise_name_5'
p179
I0
sS'category_exercise_name_6'
p180
I0
sS'category_exercise_name_7'
p181
I0
sS'category_exercise_name_8'
p182
I0
sS'category_exercise_name_9'
p183
I0
sg60
I4
sg61
I0
sS'category_exercise_name_2'
p184
I1
sg63
I0
sS'velocities_arr_11'
p185
I0
sg65
I0
sg26
I0
sa(dp186
g4
I1
sS'velocities_arr_0'
p187
F0.71
sS'velocities_arr_2'
p188
F0.65
sS'velocities_arr_3'
p189
F0.65
sS'velocities_arr_4'
p190
F0.62
sS'velocities_arr_5'
p191
F0.61
sS'velocities_arr_6'
p192
F0.54
sS'velocities_arr_1'
p193
F0.57
sS'velocities_arr_8'
p194
F0.52
sS'velocities_arr_9'
p195
F0.49
sg44
I111
sg45
I105
sS'velocities_arr_7'
p196
F0.61
sS'category_exercise_name_10'
p197
I0
sg48
I12
sg49
I12
sS'category_exercise_name_0'
p198
I0
sS'category_exercise_name_1'
p199
I0
sS'velocities_arr_10'
p200
F0.47
sS'category_exercise_name_3'
p201
I1
sS'category_exercise_name_4'
p202
I0
sS'category_exercise_name_5'
p203
I0
sS'category_exercise_name_6'
p204
I0
sS'category_exercise_name_7'
p205
I0
sS'category_exercise_name_8'
p206
I0
sS'category_exercise_name_9'
p207
I0
sg60
I5
sg61
I0
sS'category_exercise_name_2'
p208
I0
sg63
I0
sS'velocities_arr_11'
p209
F0.47
sg65
I0
sg26
I0
sa(dp210
g4
I1
sS'velocities_arr_0'
p211
F0.56
sS'velocities_arr_2'
p212
F0.59
sS'velocities_arr_3'
p213
F0.61
sS'velocities_arr_4'
p214
F0.59
sS'velocities_arr_5'
p215
F0.57
sS'velocities_arr_6'
p216
F0.52
sS'velocities_arr_1'
p217
F0.62
sS'velocities_arr_8'
p218
I0
sS'velocities_arr_9'
p219
I0
sg44
I114
sg45
I115
sS'velocities_arr_7'
p220
F0.46
sS'category_exercise_name_10'
p221
I0
sg48
I8
sg49
I8
sS'category_exercise_name_0'
p222
I0
sS'category_exercise_name_1'
p223
I0
sS'velocities_arr_10'
p224
I0
sS'category_exercise_name_3'
p225
I1
sS'category_exercise_name_4'
p226
I0
sS'category_exercise_name_5'
p227
I0
sS'category_exercise_name_6'
p228
I0
sS'category_exercise_name_7'
p229
I0
sS'category_exercise_name_8'
p230
I0
sS'category_exercise_name_9'
p231
I0
sg60
I6
sg61
I0
sS'category_exercise_name_2'
p232
I0
sg63
I0
sS'velocities_arr_11'
p233
I0
sg65
I0
sg26
I0
sa(dp234
g4
I1
sS'velocities_arr_0'
p235
F0.49
sS'velocities_arr_2'
p236
F0.46
sS'velocities_arr_3'
p237
F0.43
sS'velocities_arr_4'
p238
F0.39
sS'velocities_arr_5'
p239
I0
sS'velocities_arr_6'
p240
I0
sS'velocities_arr_1'
p241
F0.51
sS'velocities_arr_8'
p242
I0
sS'velocities_arr_9'
p243
I0
sg44
I130
sg45
I125
sS'velocities_arr_7'
p244
I0
sS'category_exercise_name_10'
p245
I0
sg48
I5
sg49
I5
sS'category_exercise_name_0'
p246
I0
sS'category_exercise_name_1'
p247
I0
sS'velocities_arr_10'
p248
I0
sS'category_exercise_name_3'
p249
I1
sS'category_exercise_name_4'
p250
I0
sS'category_exercise_name_5'
p251
I0
sS'category_exercise_name_6'
p252
I0
sS'category_exercise_name_7'
p253
I0
sS'category_exercise_name_8'
p254
I0
sS'category_exercise_name_9'
p255
I0
sg60
I7
sg61
I0
sS'category_exercise_name_2'
p256
I0
sg63
I0
sS'velocities_arr_11'
p257
I0
sg65
I0
sg26
I0
sa(dp258
g4
I4
sS'velocities_arr_0'
p259
F0.49
sS'velocities_arr_2'
p260
F0.68
sS'velocities_arr_3'
p261
F0.61
sS'velocities_arr_4'
p262
F0.56
sS'velocities_arr_5'
p263
I0
sS'velocities_arr_6'
p264
I0
sS'velocities_arr_1'
p265
F0.82
sS'velocities_arr_8'
p266
I0
sS'velocities_arr_9'
p267
I0
sg44
I116
sg45
I185
sS'velocities_arr_7'
p268
I0
sS'category_exercise_name_10'
p269
I0
sg48
I5
sg49
I5
sS'category_exercise_name_0'
p270
I1
sS'category_exercise_name_1'
p271
I0
sS'velocities_arr_10'
p272
I0
sS'category_exercise_name_3'
p273
I0
sS'category_exercise_name_4'
p274
I0
sS'category_exercise_name_5'
p275
I0
sS'category_exercise_name_6'
p276
I0
sS'category_exercise_name_7'
p277
I0
sS'category_exercise_name_8'
p278
I0
sS'category_exercise_name_9'
p279
I0
sg60
I0
sg61
I0
sS'category_exercise_name_2'
p280
I0
sg63
I0
sS'velocities_arr_11'
p281
I0
sg65
I0
sg26
F3.0
sa(dp282
g4
I4
sS'velocities_arr_0'
p283
F0.59
sS'velocities_arr_2'
p284
F1.29
sS'velocities_arr_3'
p285
F1.29
sS'velocities_arr_4'
p286
F1.29
sS'velocities_arr_5'
p287
I0
sS'velocities_arr_6'
p288
I0
sS'velocities_arr_1'
p289
F0.55
sS'velocities_arr_8'
p290
I0
sS'velocities_arr_9'
p291
I0
sg44
I115
sg45
I225
sS'velocities_arr_7'
p292
I0
sS'category_exercise_name_10'
p293
I0
sg48
I5
sg49
I5
sS'category_exercise_name_0'
p294
I1
sS'category_exercise_name_1'
p295
I0
sS'velocities_arr_10'
p296
I0
sS'category_exercise_name_3'
p297
I0
sS'category_exercise_name_4'
p298
I0
sS'category_exercise_name_5'
p299
I0
sS'category_exercise_name_6'
p300
I0
sS'category_exercise_name_7'
p301
I0
sS'category_exercise_name_8'
p302
I0
sS'category_exercise_name_9'
p303
I0
sg60
I1
sg61
I0
sS'category_exercise_name_2'
p304
I0
sg63
I0
sS'velocities_arr_11'
p305
I0
sg65
I0
sg26
F3.0
sa(dp306
g4
I4
sS'velocities_arr_0'
p307
F0.53
sS'velocities_arr_2'
p308
F0.59
sS'velocities_arr_3'
p309
F0.54
sS'velocities_arr_4'
p310
F0.54
sS'velocities_arr_5'
p311
I0
sS'velocities_arr_6'
p312
I0
sS'velocities_arr_1'
p313
F0.56
sS'velocities_arr_8'
p314
I0
sS'velocities_arr_9'
p315
I0
sg44
I130
sg45
I245
sS'velocities_arr_7'
p316
I0
sS'category_exercise_name_10'
p317
I0
sg48
I5
sg49
I5
sS'category_exercise_name_0'
p318
I1
sS'category_exercise_name_1'
p319
I0
sS'velocities_arr_10'
p320
I0
sS'category_exercise_name_3'
p321
I0
sS'category_exercise_name_4'
p322
I0
sS'category_exercise_name_5'
p323
I0
sS'category_exercise_name_6'
p324
I0
sS'category_exercise_name_7'
p325
I0
sS'category_exercise_name_8'
p326
I0
sS'category_exercise_name_9'
p327
I0
sg60
I2
sg61
I0
sS'category_exercise_name_2'
p328
I0
sg63
I0
sS'velocities_arr_11'
p329
I0
sg65
I0
sg26
F3.0
sa(dp330
g4
I4
sg35
I0
sg36
I0
sg37
I0
sg38
I0
sg39
I0
sg40
I0
sg41
I0
sg42
I0
sg43
I0
sg44
I-1
sg45
I265
sg46
I0
sg47
I0
sg52
I0
sg48
I-1
sg49
I2
sg50
I1
sg51
I0
sg62
I0
sg53
I0
sg54
I0
sg55
I0
sg56
I0
sg57
I0
sg58
I0
sg59
I0
sg60
I3
sg61
I-1
sg63
I0
sg64
I0
sg65
I-1
sg26
F3.0
sasS'workouty'
p331
(dp332
S'velocities_arr_0'
p333
F0.5
sS'velocities_arr_1'
p334
F0.5
sS'velocities_arr_2'
p335
I0
sS'velocities_arr_3'
p336
I0
sS'velocities_arr_4'
p337
I0
sS'velocities_arr_5'
p338
I0
sS'velocities_arr_6'
p339
I0
sS'velocities_arr_7'
p340
I0
sg48
I2
sS'velocities_arr_9'
p341
I0
sg44
I121
sS'velocities_arr_10'
p342
I0
sS'velocities_arr_8'
p343
I0
sg61
I0
sS'velocities_arr_11'
p344
I0
sg65
I0
ssS'userx'
p345
(dp346
S'harris_benedict_bmr'
p347
I-1
sS'height_inches'
p348
F70.0
sS'genetically_gifted'
p349
I0
sS'wrist_width_inches'
p350
I7
sS'years_old'
p351
I31
sS'ankle_width_inches'
p352
I9
sS'sex_is_male'
p353
I1
ssS'dayy'
p354
(dp355
g10
F163.7
sg20
I86
sg6
F56.4
sg24
F7.4
sg15
F81.2
sg17
F4.0
ss.