(dp0
S'dayseriesx'
p1
(lp2
(dp3
S'day_number'
p4
I-1
sS'sleeptime_awake_hrs'
p5
I-1
sS'withings_body_water_percent'
p6
I-1
sS'heart_rate_variability_rmssd'
p7
I-1
sS'sleeptime_deep_rem_hrs'
p8
I-1
sS'withings_body_fat_percent'
p9
I-1
sS'withings_weight_lbs'
p10
I-1
sS'sleeptime_efficiency_percent'
p11
I-1
sS'post_day_calories_in'
p12
I-1
sS'post_day_fat_g'
p13
I-1
sS'sleeptime_bed_time_ampm_index'
p14
I-1
sS'withings_muscle_mass_percent'
p15
I-1
sS'sleeptime_alarm_ring_ampm_index'
p16
I-1
sS'withings_bone_mass_percent'
p17
I-1
sS'sleeptime_snoozed'
p18
I-1
sS'sleeptime_light_sleep_hrs'
p19
I-1
sS'withings_heart_rate_bpm'
p20
I-1
sS'sleeptime_alarm_set_ampm_index'
p21
I-1
sS'post_day_protein_g'
p22
I-1
sS'post_day_wearable_calories_burned'
p23
I-1
sS'withings_pulse_wave_velocity_m_per_s'
p24
I-1
sS'sleeptime_rise_time_ampm_index'
p25
I-1
sS'days_since_last_workout'
p26
I-1
sS'post_day_carbs_g'
p27
I-1
sag3
ag3
ag3
ag3
ag3
ag3
ag3
ag3
ag3
a(dp28
g4
I0
sg5
F1.1833333333333333
sg6
F56.9
sg7
I-1
sg8
F3.65
sg9
F13.9
sg10
F161.3
sg11
I83
sg12
I-1
sg13
I-1
sg14
I4
sg15
F82.0
sg16
I414
sg17
F4.0
sg18
I4
sg19
F2.4333333333333336
sg20
I90
sg21
I425
sg22
I-1
sg23
I-1
sg24
F7.4
sg25
I441
sg26
I0
sg27
I-1
sasS'workoutxseries'
p29
(lp30
(dp31
g4
I1
sS'velocities_arr_0'
p32
I0
sS'velocities_arr_2'
p33
I0
sS'velocities_arr_3'
p34
I0
sS'velocities_arr_4'
p35
I0
sS'velocities_arr_5'
p36
I0
sS'velocities_arr_6'
p37
I0
sS'velocities_arr_1'
p38
I0
sS'velocities_arr_8'
p39
I0
sS'velocities_arr_9'
p40
I0
sS'postset_heartrate'
p41
I-1
sS'weight_lbs'
p42
I-1
sS'velocities_arr_7'
p43
I0
sS'category_exercise_name_10'
p44
I0
sS'reps_completed'
p45
I-1
sS'reps_planned'
p46
I-1
sS'category_exercise_name_0'
p47
I0
sS'category_exercise_name_1'
p48
I0
sS'category_exercise_name_2'
p49
I0
sS'category_exercise_name_3'
p50
I0
sS'category_exercise_name_4'
p51
I0
sS'category_exercise_name_5'
p52
I0
sS'category_exercise_name_6'
p53
I0
sS'category_exercise_name_7'
p54
I0
sS'category_exercise_name_8'
p55
I0
sS'category_exercise_name_9'
p56
I0
sS'set_number_of_the_day'
p57
I8
sS'went_to_failure'
p58
I0
sS'velocities_arr_10'
p59
I0
sS'used_lifting_gear'
p60
I0
sS'velocities_arr_11'
p61
I0
sS'did_pull_muscle'
p62
I0
sg26
I0
sag31
ag31
ag31
ag31
ag31
ag31
ag31
ag31
ag31
ag31
ag31
ag31
ag31
ag31
ag31
ag31
ag31
ag31
ag31
ag31
ag31
ag31
ag31
a(dp63
g4
I1
sS'velocities_arr_0'
p64
I1
sS'velocities_arr_2'
p65
F0.98
sS'velocities_arr_3'
p66
F1.04
sS'velocities_arr_4'
p67
F1.03
sS'velocities_arr_5'
p68
I0
sS'velocities_arr_6'
p69
I0
sS'velocities_arr_1'
p70
F0.98
sS'velocities_arr_8'
p71
I0
sS'velocities_arr_9'
p72
I0
sg41
I112
sg42
I45
sS'velocities_arr_7'
p73
I0
sS'category_exercise_name_10'
p74
I0
sg45
I5
sg46
I5
sS'category_exercise_name_0'
p75
I0
sS'category_exercise_name_1'
p76
I0
sS'velocities_arr_10'
p77
I0
sS'category_exercise_name_3'
p78
I0
sS'category_exercise_name_4'
p79
I0
sS'category_exercise_name_5'
p80
I0
sS'category_exercise_name_6'
p81
I0
sS'category_exercise_name_7'
p82
I0
sS'category_exercise_name_8'
p83
I0
sS'category_exercise_name_9'
p84
I0
sg57
I0
sg58
I0
sS'category_exercise_name_2'
p85
I1
sg60
I0
sS'velocities_arr_11'
p86
I0
sg62
I0
sg26
I0
sa(dp87
g4
I1
sS'velocities_arr_0'
p88
F0.73
sS'velocities_arr_2'
p89
F0.7
sS'velocities_arr_3'
p90
I0
sS'velocities_arr_4'
p91
I0
sS'velocities_arr_5'
p92
I0
sS'velocities_arr_6'
p93
I0
sS'velocities_arr_1'
p94
F0.7
sS'velocities_arr_8'
p95
I0
sS'velocities_arr_9'
p96
I0
sg41
I119
sg42
I135
sS'velocities_arr_7'
p97
I0
sS'category_exercise_name_10'
p98
I0
sg45
I3
sg46
I3
sS'category_exercise_name_0'
p99
I0
sS'category_exercise_name_1'
p100
I0
sS'velocities_arr_10'
p101
I0
sS'category_exercise_name_3'
p102
I0
sS'category_exercise_name_4'
p103
I0
sS'category_exercise_name_5'
p104
I0
sS'category_exercise_name_6'
p105
I0
sS'category_exercise_name_7'
p106
I0
sS'category_exercise_name_8'
p107
I0
sS'category_exercise_name_9'
p108
I0
sg57
I1
sg58
I0
sS'category_exercise_name_2'
p109
I1
sg60
I0
sS'velocities_arr_11'
p110
I0
sg62
I0
sg26
I0
sa(dp111
g4
I1
sS'velocities_arr_0'
p112
F0.58
sS'velocities_arr_2'
p113
F0.57
sS'velocities_arr_3'
p114
I0
sS'velocities_arr_4'
p115
I0
sS'velocities_arr_5'
p116
I0
sS'velocities_arr_6'
p117
I0
sS'velocities_arr_1'
p118
F0.54
sS'velocities_arr_8'
p119
I0
sS'velocities_arr_9'
p120
I0
sg41
I126
sg42
I185
sS'velocities_arr_7'
p121
I0
sS'category_exercise_name_10'
p122
I0
sg45
I3
sg46
I3
sS'category_exercise_name_0'
p123
I0
sS'category_exercise_name_1'
p124
I0
sS'velocities_arr_10'
p125
I0
sS'category_exercise_name_3'
p126
I0
sS'category_exercise_name_4'
p127
I0
sS'category_exercise_name_5'
p128
I0
sS'category_exercise_name_6'
p129
I0
sS'category_exercise_name_7'
p130
I0
sS'category_exercise_name_8'
p131
I0
sS'category_exercise_name_9'
p132
I0
sg57
I2
sg58
I0
sS'category_exercise_name_2'
p133
I1
sg60
I0
sS'velocities_arr_11'
p134
I0
sg62
I0
sg26
I0
sa(dp135
g4
I1
sS'velocities_arr_0'
p136
F0.51
sS'velocities_arr_2'
p137
F0.45
sS'velocities_arr_3'
p138
I0
sS'velocities_arr_4'
p139
I0
sS'velocities_arr_5'
p140
I0
sS'velocities_arr_6'
p141
I0
sS'velocities_arr_1'
p142
F0.48
sS'velocities_arr_8'
p143
I0
sS'velocities_arr_9'
p144
I0
sg41
I127
sg42
I225
sS'velocities_arr_7'
p145
I0
sS'category_exercise_name_10'
p146
I0
sg45
I3
sg46
I3
sS'category_exercise_name_0'
p147
I0
sS'category_exercise_name_1'
p148
I0
sS'velocities_arr_10'
p149
I0
sS'category_exercise_name_3'
p150
I0
sS'category_exercise_name_4'
p151
I0
sS'category_exercise_name_5'
p152
I0
sS'category_exercise_name_6'
p153
I0
sS'category_exercise_name_7'
p154
I0
sS'category_exercise_name_8'
p155
I0
sS'category_exercise_name_9'
p156
I0
sg57
I3
sg58
I0
sS'category_exercise_name_2'
p157
I1
sg60
I0
sS'velocities_arr_11'
p158
I0
sg62
I0
sg26
I0
sa(dp159
g4
I1
sS'velocities_arr_0'
p160
F0.28
sS'velocities_arr_2'
p161
F0.44
sS'velocities_arr_3'
p162
F0.41
sS'velocities_arr_4'
p163
I0
sS'velocities_arr_5'
p164
I0
sS'velocities_arr_6'
p165
I0
sS'velocities_arr_1'
p166
F0.48
sS'velocities_arr_8'
p167
I0
sS'velocities_arr_9'
p168
I0
sg41
I149
sg42
I245
sS'velocities_arr_7'
p169
I0
sS'category_exercise_name_10'
p170
I0
sg45
I4
sg46
I4
sS'category_exercise_name_0'
p171
I0
sS'category_exercise_name_1'
p172
I0
sS'velocities_arr_10'
p173
I0
sS'category_exercise_name_3'
p174
I0
sS'category_exercise_name_4'
p175
I0
sS'category_exercise_name_5'
p176
I0
sS'category_exercise_name_6'
p177
I0
sS'category_exercise_name_7'
p178
I0
sS'category_exercise_name_8'
p179
I0
sS'category_exercise_name_9'
p180
I0
sg57
I4
sg58
I0
sS'category_exercise_name_2'
p181
I1
sg60
I0
sS'velocities_arr_11'
p182
I0
sg62
I0
sg26
I0
sa(dp183
g4
I1
sS'velocities_arr_0'
p184
F0.59
sS'velocities_arr_2'
p185
F0.62
sS'velocities_arr_3'
p186
F0.57
sS'velocities_arr_4'
p187
F0.55
sS'velocities_arr_5'
p188
F0.52
sS'velocities_arr_6'
p189
I0
sS'velocities_arr_1'
p190
F0.58
sS'velocities_arr_8'
p191
I0
sS'velocities_arr_9'
p192
I0
sg41
I150
sg42
I185
sS'velocities_arr_7'
p193
I0
sS'category_exercise_name_10'
p194
I0
sg45
I6
sg46
I6
sS'category_exercise_name_0'
p195
I0
sS'category_exercise_name_1'
p196
I0
sS'velocities_arr_10'
p197
I0
sS'category_exercise_name_3'
p198
I0
sS'category_exercise_name_4'
p199
I0
sS'category_exercise_name_5'
p200
I0
sS'category_exercise_name_6'
p201
I0
sS'category_exercise_name_7'
p202
I0
sS'category_exercise_name_8'
p203
I0
sS'category_exercise_name_9'
p204
I0
sg57
I5
sg58
I0
sS'category_exercise_name_2'
p205
I1
sg60
I0
sS'velocities_arr_11'
p206
I0
sg62
I0
sg26
I0
sa(dp207
g4
I1
sS'velocities_arr_0'
p208
F0.6
sS'velocities_arr_2'
p209
F0.66
sS'velocities_arr_3'
p210
F0.65
sS'velocities_arr_4'
p211
F0.61
sS'velocities_arr_5'
p212
F0.58
sS'velocities_arr_6'
p213
F0.55
sS'velocities_arr_1'
p214
F0.64
sS'velocities_arr_8'
p215
F0.55
sS'velocities_arr_9'
p216
F0.55
sg41
I120
sg42
I105
sS'velocities_arr_7'
p217
F0.55
sS'category_exercise_name_10'
p218
I0
sg45
I10
sg46
I10
sS'category_exercise_name_0'
p219
I0
sS'category_exercise_name_1'
p220
I0
sS'velocities_arr_10'
p221
I0
sS'category_exercise_name_3'
p222
I1
sS'category_exercise_name_4'
p223
I0
sS'category_exercise_name_5'
p224
I0
sS'category_exercise_name_6'
p225
I0
sS'category_exercise_name_7'
p226
I0
sS'category_exercise_name_8'
p227
I0
sS'category_exercise_name_9'
p228
I0
sg57
I6
sg58
I0
sS'category_exercise_name_2'
p229
I0
sg60
I0
sS'velocities_arr_11'
p230
I0
sg62
I0
sg26
I0
sa(dp231
g4
I1
sS'velocities_arr_0'
p232
F0.59
sS'velocities_arr_2'
p233
F0.51
sS'velocities_arr_3'
p234
F0.51
sS'velocities_arr_4'
p235
F0.45
sS'velocities_arr_5'
p236
F0.45
sS'velocities_arr_6'
p237
I0
sS'velocities_arr_1'
p238
F0.51
sS'velocities_arr_8'
p239
I0
sS'velocities_arr_9'
p240
I0
sg41
I114
sg42
I115
sS'velocities_arr_7'
p241
I0
sS'category_exercise_name_10'
p242
I0
sg45
I6
sg46
I6
sS'category_exercise_name_0'
p243
I0
sS'category_exercise_name_1'
p244
I0
sS'velocities_arr_10'
p245
I0
sS'category_exercise_name_3'
p246
I1
sS'category_exercise_name_4'
p247
I0
sS'category_exercise_name_5'
p248
I0
sS'category_exercise_name_6'
p249
I0
sS'category_exercise_name_7'
p250
I0
sS'category_exercise_name_8'
p251
I0
sS'category_exercise_name_9'
p252
I0
sg57
I7
sg58
I0
sS'category_exercise_name_2'
p253
I0
sg60
I0
sS'velocities_arr_11'
p254
I0
sg62
I0
sg26
I0
sa(dp255
g4
I1
sg32
I0
sg33
I0
sg34
I0
sg35
I0
sg36
I0
sg37
I0
sg38
I0
sg39
I0
sg40
I0
sg41
I-1
sg42
I125
sg43
I0
sg44
I0
sg49
I0
sg45
I-1
sg46
I4
sg47
I0
sg48
I0
sg59
I0
sg50
I1
sg51
I0
sg52
I0
sg53
I0
sg54
I0
sg55
I0
sg56
I0
sg57
I8
sg58
I-1
sg60
I0
sg61
I0
sg62
I-1
sg26
I0
sasS'workouty'
p256
(dp257
S'velocities_arr_0'
p258
F0.41
sS'velocities_arr_1'
p259
F0.38
sS'velocities_arr_2'
p260
F0.41
sS'velocities_arr_3'
p261
F0.41
sS'velocities_arr_4'
p262
I0
sS'velocities_arr_5'
p263
I0
sS'velocities_arr_6'
p264
I0
sS'velocities_arr_7'
p265
I0
sg45
I4
sS'velocities_arr_9'
p266
I0
sg41
I114
sS'velocities_arr_10'
p267
I0
sS'velocities_arr_8'
p268
I0
sg58
I0
sS'velocities_arr_11'
p269
I0
sg62
I0
ssS'userx'
p270
(dp271
S'harris_benedict_bmr'
p272
I-1
sS'height_inches'
p273
F70.0
sS'genetically_gifted'
p274
I0
sS'wrist_width_inches'
p275
I7
sS'years_old'
p276
I31
sS'ankle_width_inches'
p277
I9
sS'sex_is_male'
p278
I1
ssS'dayy'
p279
(dp280
g4
I2
sg5
F1.85
sg6
F56.5
sg7
I-1
sg8
F4.266666666666667
sg9
F14.5
sg10
F161.4
sg11
I76
sg12
I-1
sg13
I-1
sg14
I1400
sg15
F81.4
sg16
I413
sg17
F4.0
sg18
I5
sg19
F1.9
sg20
I85
sg21
I425
sg22
I-1
sg23
I-1
sg24
F7.3
sg25
I442
sg26
F1.0
sg27
I-1
ss.