(dp0
S'dayseriesx'
p1
(lp2
(dp3
S'day_number'
p4
I-1
sS'sleeptime_awake_hrs'
p5
I-1
sS'withings_body_water_percent'
p6
I-1
sS'heart_rate_variability_rmssd'
p7
I-1
sS'sleeptime_deep_rem_hrs'
p8
I-1
sS'withings_body_fat_percent'
p9
I-1
sS'withings_weight_lbs'
p10
I-1
sS'sleeptime_efficiency_percent'
p11
I-1
sS'post_day_calories_in'
p12
I-1
sS'post_day_fat_g'
p13
I-1
sS'sleeptime_bed_time_ampm_index'
p14
I-1
sS'withings_muscle_mass_percent'
p15
I-1
sS'days_since_last_recorded_day'
p16
I-1
sS'sleeptime_alarm_ring_ampm_index'
p17
I-1
sS'withings_bone_mass_percent'
p18
I-1
sS'sleeptime_snoozed'
p19
I-1
sS'sleeptime_light_sleep_hrs'
p20
I-1
sS'withings_heart_rate_bpm'
p21
I-1
sS'sleeptime_alarm_set_ampm_index'
p22
I-1
sS'post_day_protein_g'
p23
I-1
sS'post_day_wearable_calories_burned'
p24
I-1
sS'withings_pulse_wave_velocity_m_per_s'
p25
I-1
sS'sleeptime_rise_time_ampm_index'
p26
I-1
sS'days_since_last_workout'
p27
I-1
sS'post_day_carbs_g'
p28
I-1
sag3
ag3
a(dp29
g4
I0
sg5
F0.48333333333333334
sg6
F56.9
sg7
I-1
sg8
F3.55
sg9
F14.0
sg10
F163.7
sg11
F94.0
sg12
I-1
sg13
I-1
sg14
I93
sg15
F82.0
sg16
F0.0
sg17
I1440
sg18
F4.0
sg19
I0
sg20
F4.133333333333334
sg21
I94
sg22
I660
sg23
I-1
sg24
I-1
sg25
F7.4
sg26
I584
sg27
I0
sg28
I-1
sa(dp30
g4
I1
sg5
F0.5
sg6
F56.9
sg7
I-1
sg8
F1.7333333333333334
sg9
F14.9
sg10
F163.7
sg11
F92.0
sg12
I-1
sg13
I-1
sg14
I8
sg15
F82.0
sg16
F1.0
sg17
I424
sg18
F4.0
sg19
I2
sg20
F4.833333333333333
sg21
I97
sg22
I425
sg23
I-1
sg24
I-1
sg25
F7.4
sg26
I433
sg27
F1.0
sg28
I-1
sa(dp31
g4
I2
sg5
F1.6166666666666667
sg6
F55.6
sg7
I-1
sg8
F2.1
sg9
F16.2
sg10
F163.8
sg11
F79.0
sg12
I-1
sg13
I-1
sg14
I664
sg15
F79.8
sg16
F1.0
sg17
I406
sg18
F3.9
sg19
I1
sg20
F4.15
sg21
I92
sg22
I425
sg23
I-1
sg24
I-1
sg25
F7.4
sg26
I417
sg27
F2.0
sg28
I-1
sa(dp32
g4
I3
sg5
F1.8333333333333335
sg6
F55.6
sg7
I-1
sg8
F2.783333333333333
sg9
F14.8
sg10
I164
sg11
F75.0
sg12
I-1
sg13
I-1
sg14
I1423
sg15
F79.8
sg16
F1.0
sg17
I423
sg18
F3.9
sg19
I2
sg20
F2.9
sg21
I93
sg22
I425
sg23
I-1
sg24
I-1
sg25
F7.4
sg26
I436
sg27
F0.0
sg28
I-1
sa(dp33
g4
I4
sg5
F0.43333333333333335
sg6
F56.0
sg7
I-1
sg8
F2.7666666666666666
sg9
F15.5
sg10
F163.5
sg11
F94.0
sg12
I-1
sg13
I-1
sg14
I1386
sg15
F80.5
sg16
F1.0
sg17
I403
sg18
F3.9
sg19
I3
sg20
F4.866666666666667
sg21
I91
sg22
I425
sg23
I-1
sg24
I-1
sg25
F7.5
sg26
I432
sg27
F1.0
sg28
I-1
sa(dp34
g4
I5
sg5
F0.9166666666666666
sg6
F55.7
sg7
I-1
sg8
F3.1
sg9
F16.1
sg10
F163.6
sg11
F85.0
sg12
I-1
sg13
I-1
sg14
I157
sg15
F79.9
sg16
F1.0
sg17
I1440
sg18
F3.9
sg19
I0
sg20
F2.3833333333333333
sg21
I84
sg22
I600
sg23
I-1
sg24
I-1
sg25
F7.4
sg26
I543
sg27
F2.0
sg28
I-1
sa(dp35
g4
I6
sg5
F0.03333333333333333
sg6
I-1
sg7
I-1
sg8
F2.3833333333333333
sg9
I-1
sg10
I-1
sg11
F99.0
sg12
I-1
sg13
I-1
sg14
I230
sg15
I-1
sg16
F2.0
sg17
I1440
sg18
I-1
sg19
I0
sg20
F2.716666666666667
sg21
I-1
sg22
I660
sg23
I-1
sg24
I-1
sg25
I-1
sg26
I539
sg27
F4.0
sg28
I-1
sa(dp36
g4
I7
sg5
F2.05
sg6
F55.7
sg7
I-1
sg8
F4.966666666666667
sg9
F16.1
sg10
F163.6
sg11
F75.0
sg12
I-1
sg13
I-1
sg14
I1385
sg15
F79.9
sg16
F1.0
sg17
I410
sg18
F3.9
sg19
I5
sg20
F1.3
sg21
F84.0
sg22
I425
sg23
I-1
sg24
I-1
sg25
F7.4
sg26
I444
sg27
F0.0
sg28
I-1
sasS'workoutxseries'
p37
(lp38
(dp39
g4
I8
sS'velocities_arr_0'
p40
I0
sS'velocities_arr_2'
p41
I0
sS'velocities_arr_3'
p42
I0
sS'velocities_arr_4'
p43
I0
sS'velocities_arr_5'
p44
I0
sS'velocities_arr_6'
p45
I0
sS'velocities_arr_1'
p46
I0
sS'velocities_arr_8'
p47
I0
sS'velocities_arr_9'
p48
I0
sS'postset_heartrate'
p49
I-1
sS'weight_lbs'
p50
I-1
sS'velocities_arr_7'
p51
I0
sS'category_exercise_name_12'
p52
I0
sS'category_exercise_name_13'
p53
I0
sS'category_exercise_name_10'
p54
I0
sS'category_exercise_name_11'
p55
I0
sS'reps_completed'
p56
I-1
sS'reps_planned'
p57
I-1
sS'category_exercise_name_0'
p58
I0
sS'category_exercise_name_1'
p59
I0
sS'category_exercise_name_2'
p60
I0
sS'category_exercise_name_3'
p61
I0
sS'category_exercise_name_4'
p62
I0
sS'category_exercise_name_5'
p63
I0
sS'category_exercise_name_6'
p64
I0
sS'category_exercise_name_7'
p65
I0
sS'category_exercise_name_8'
p66
I0
sS'category_exercise_name_9'
p67
I0
sS'set_number_of_the_day'
p68
I5
sS'went_to_failure'
p69
I0
sS'velocities_arr_10'
p70
I0
sS'used_lifting_gear'
p71
I0
sS'velocities_arr_11'
p72
I0
sS'did_pull_muscle'
p73
I0
sg27
I0
sag39
ag39
ag39
ag39
ag39
ag39
ag39
ag39
ag39
ag39
ag39
ag39
a(dp74
g4
I1
sS'velocities_arr_0'
p75
F0.77
sS'velocities_arr_2'
p76
F1.49
sS'velocities_arr_3'
p77
F0.68
sS'velocities_arr_4'
p78
F0.77
sS'velocities_arr_5'
p79
I0
sS'velocities_arr_6'
p80
I0
sS'velocities_arr_1'
p81
F0.61
sS'velocities_arr_8'
p82
I0
sS'velocities_arr_9'
p83
I0
sg49
I115
sg50
I135
sS'velocities_arr_7'
p84
I0
sS'category_exercise_name_12'
p85
I0
sS'category_exercise_name_13'
p86
I0
sS'category_exercise_name_10'
p87
I0
sS'category_exercise_name_11'
p88
I0
sg56
I5
sg57
I5
sS'category_exercise_name_0'
p89
I1
sS'category_exercise_name_1'
p90
I0
sS'velocities_arr_10'
p91
I0
sS'category_exercise_name_3'
p92
I0
sS'category_exercise_name_4'
p93
I0
sS'category_exercise_name_5'
p94
I0
sS'category_exercise_name_6'
p95
I0
sS'category_exercise_name_7'
p96
I0
sS'category_exercise_name_8'
p97
I0
sS'category_exercise_name_9'
p98
I0
sg68
I0
sg69
I0
sS'category_exercise_name_2'
p99
I0
sg71
I0
sS'velocities_arr_11'
p100
I0
sg73
I0
sg27
I0
sa(dp101
g4
I1
sS'velocities_arr_0'
p102
F0.65
sS'velocities_arr_2'
p103
F1.46
sS'velocities_arr_3'
p104
F0.74
sS'velocities_arr_4'
p105
F0.73
sS'velocities_arr_5'
p106
F0.73
sS'velocities_arr_6'
p107
I0
sS'velocities_arr_1'
p108
F0.75
sS'velocities_arr_8'
p109
I0
sS'velocities_arr_9'
p110
I0
sg49
I137
sg50
I155
sS'velocities_arr_7'
p111
I0
sS'category_exercise_name_12'
p112
I0
sS'category_exercise_name_13'
p113
I0
sS'category_exercise_name_10'
p114
I0
sS'category_exercise_name_11'
p115
I0
sg56
I6
sg57
I6
sS'category_exercise_name_0'
p116
I1
sS'category_exercise_name_1'
p117
I0
sS'velocities_arr_10'
p118
I0
sS'category_exercise_name_3'
p119
I0
sS'category_exercise_name_4'
p120
I0
sS'category_exercise_name_5'
p121
I0
sS'category_exercise_name_6'
p122
I0
sS'category_exercise_name_7'
p123
I0
sS'category_exercise_name_8'
p124
I0
sS'category_exercise_name_9'
p125
I0
sg68
I1
sg69
I0
sS'category_exercise_name_2'
p126
I0
sg71
I0
sS'velocities_arr_11'
p127
I0
sg73
I0
sg27
I0
sa(dp128
g4
I1
sS'velocities_arr_0'
p129
F0.59
sS'velocities_arr_2'
p130
F0.67
sS'velocities_arr_3'
p131
F0.66
sS'velocities_arr_4'
p132
F0.67
sS'velocities_arr_5'
p133
F0.67
sS'velocities_arr_6'
p134
I0
sS'velocities_arr_1'
p135
F0.64
sS'velocities_arr_8'
p136
I0
sS'velocities_arr_9'
p137
I0
sg49
I132
sg50
I185
sS'velocities_arr_7'
p138
I0
sS'category_exercise_name_12'
p139
I0
sS'category_exercise_name_13'
p140
I0
sS'category_exercise_name_10'
p141
I0
sS'category_exercise_name_11'
p142
I0
sg56
I6
sg57
I6
sS'category_exercise_name_0'
p143
I1
sS'category_exercise_name_1'
p144
I0
sS'velocities_arr_10'
p145
I0
sS'category_exercise_name_3'
p146
I0
sS'category_exercise_name_4'
p147
I0
sS'category_exercise_name_5'
p148
I0
sS'category_exercise_name_6'
p149
I0
sS'category_exercise_name_7'
p150
I0
sS'category_exercise_name_8'
p151
I0
sS'category_exercise_name_9'
p152
I0
sg68
I2
sg69
I0
sS'category_exercise_name_2'
p153
I0
sg71
I0
sS'velocities_arr_11'
p154
I0
sg73
I0
sg27
I0
sa(dp155
g4
I1
sS'velocities_arr_0'
p156
F0.64
sS'velocities_arr_2'
p157
F0.63
sS'velocities_arr_3'
p158
F0.58
sS'velocities_arr_4'
p159
F0.6
sS'velocities_arr_5'
p160
F0.6
sS'velocities_arr_6'
p161
I0
sS'velocities_arr_1'
p162
F0.71
sS'velocities_arr_8'
p163
I0
sS'velocities_arr_9'
p164
I0
sg49
I150
sg50
I195
sS'velocities_arr_7'
p165
I0
sS'category_exercise_name_12'
p166
I0
sS'category_exercise_name_13'
p167
I0
sS'category_exercise_name_10'
p168
I0
sS'category_exercise_name_11'
p169
I0
sg56
I6
sg57
I6
sS'category_exercise_name_0'
p170
I1
sS'category_exercise_name_1'
p171
I0
sS'velocities_arr_10'
p172
I0
sS'category_exercise_name_3'
p173
I0
sS'category_exercise_name_4'
p174
I0
sS'category_exercise_name_5'
p175
I0
sS'category_exercise_name_6'
p176
I0
sS'category_exercise_name_7'
p177
I0
sS'category_exercise_name_8'
p178
I0
sS'category_exercise_name_9'
p179
I0
sg68
I3
sg69
I0
sS'category_exercise_name_2'
p180
I0
sg71
I0
sS'velocities_arr_11'
p181
I0
sg73
I0
sg27
I0
sa(dp182
g4
I1
sS'velocities_arr_0'
p183
F1.44
sS'velocities_arr_2'
p184
F0.79
sS'velocities_arr_3'
p185
F0.6
sS'velocities_arr_4'
p186
F0.56
sS'velocities_arr_5'
p187
F0.9
sS'velocities_arr_6'
p188
I0
sS'velocities_arr_1'
p189
F0.7
sS'velocities_arr_8'
p190
I0
sS'velocities_arr_9'
p191
I0
sg49
I141
sg50
I205
sS'velocities_arr_7'
p192
I0
sS'category_exercise_name_12'
p193
I0
sS'category_exercise_name_13'
p194
I0
sS'category_exercise_name_10'
p195
I0
sS'category_exercise_name_11'
p196
I0
sg56
I6
sg57
I6
sS'category_exercise_name_0'
p197
I1
sS'category_exercise_name_1'
p198
I0
sS'velocities_arr_10'
p199
I0
sS'category_exercise_name_3'
p200
I0
sS'category_exercise_name_4'
p201
I0
sS'category_exercise_name_5'
p202
I0
sS'category_exercise_name_6'
p203
I0
sS'category_exercise_name_7'
p204
I0
sS'category_exercise_name_8'
p205
I0
sS'category_exercise_name_9'
p206
I0
sg68
I4
sg69
I0
sS'category_exercise_name_2'
p207
I0
sg71
I0
sS'velocities_arr_11'
p208
I0
sg73
I0
sg27
I0
sa(dp209
g4
I1
sS'velocities_arr_0'
p210
F0.77
sS'velocities_arr_2'
p211
F1.02
sS'velocities_arr_3'
p212
F0.58
sS'velocities_arr_4'
p213
F0.6
sS'velocities_arr_5'
p214
I0
sS'velocities_arr_6'
p215
I0
sS'velocities_arr_1'
p216
F0.66
sS'velocities_arr_8'
p217
I0
sS'velocities_arr_9'
p218
I0
sg49
I145
sg50
I225
sS'velocities_arr_7'
p219
I0
sS'category_exercise_name_12'
p220
I0
sS'category_exercise_name_13'
p221
I0
sS'category_exercise_name_10'
p222
I0
sS'category_exercise_name_11'
p223
I0
sg56
I5
sg57
I6
sS'category_exercise_name_0'
p224
I1
sS'category_exercise_name_1'
p225
I0
sS'velocities_arr_10'
p226
I0
sS'category_exercise_name_3'
p227
I0
sS'category_exercise_name_4'
p228
I0
sS'category_exercise_name_5'
p229
I0
sS'category_exercise_name_6'
p230
I0
sS'category_exercise_name_7'
p231
I0
sS'category_exercise_name_8'
p232
I0
sS'category_exercise_name_9'
p233
I0
sg68
I5
sg69
I1
sS'category_exercise_name_2'
p234
I0
sg71
I0
sS'velocities_arr_11'
p235
I0
sg73
I0
sg27
I0
sa(dp236
g4
I4
sS'velocities_arr_0'
p237
F1.07
sS'velocities_arr_2'
p238
F1.16
sS'velocities_arr_3'
p239
F1.1
sS'velocities_arr_4'
p240
F1.11
sS'velocities_arr_5'
p241
F1.05
sS'velocities_arr_6'
p242
I0
sS'velocities_arr_1'
p243
F1.08
sS'velocities_arr_8'
p244
I0
sS'velocities_arr_9'
p245
I0
sg49
I117
sg50
I45
sS'velocities_arr_7'
p246
I0
sS'category_exercise_name_12'
p247
I0
sS'category_exercise_name_13'
p248
I0
sS'category_exercise_name_10'
p249
I0
sS'category_exercise_name_11'
p250
I0
sg56
I6
sg57
I6
sS'category_exercise_name_0'
p251
I0
sS'category_exercise_name_1'
p252
I0
sS'velocities_arr_10'
p253
I0
sS'category_exercise_name_3'
p254
I0
sS'category_exercise_name_4'
p255
I0
sS'category_exercise_name_5'
p256
I0
sS'category_exercise_name_6'
p257
I0
sS'category_exercise_name_7'
p258
I0
sS'category_exercise_name_8'
p259
I0
sS'category_exercise_name_9'
p260
I0
sg68
I0
sg69
I0
sS'category_exercise_name_2'
p261
I1
sg71
I0
sS'velocities_arr_11'
p262
I0
sg73
I0
sg27
F0.0
sa(dp263
g4
I4
sS'velocities_arr_0'
p264
F0.91
sS'velocities_arr_2'
p265
F0.85
sS'velocities_arr_3'
p266
F0.79
sS'velocities_arr_4'
p267
F0.82
sS'velocities_arr_5'
p268
F0.76
sS'velocities_arr_6'
p269
I0
sS'velocities_arr_1'
p270
F0.89
sS'velocities_arr_8'
p271
I0
sS'velocities_arr_9'
p272
I0
sg49
I138
sg50
I135
sS'velocities_arr_7'
p273
I0
sS'category_exercise_name_12'
p274
I0
sS'category_exercise_name_13'
p275
I0
sS'category_exercise_name_10'
p276
I0
sS'category_exercise_name_11'
p277
I0
sg56
I6
sg57
I6
sS'category_exercise_name_0'
p278
I0
sS'category_exercise_name_1'
p279
I0
sS'velocities_arr_10'
p280
I0
sS'category_exercise_name_3'
p281
I0
sS'category_exercise_name_4'
p282
I0
sS'category_exercise_name_5'
p283
I0
sS'category_exercise_name_6'
p284
I0
sS'category_exercise_name_7'
p285
I0
sS'category_exercise_name_8'
p286
I0
sS'category_exercise_name_9'
p287
I0
sg68
I1
sg69
I0
sS'category_exercise_name_2'
p288
I1
sg71
I0
sS'velocities_arr_11'
p289
I0
sg73
I0
sg27
F0.0
sa(dp290
g4
I4
sS'velocities_arr_0'
p291
F0.74
sS'velocities_arr_2'
p292
F0.65
sS'velocities_arr_3'
p293
F0.64
sS'velocities_arr_4'
p294
F0.59
sS'velocities_arr_5'
p295
F0.58
sS'velocities_arr_6'
p296
I0
sS'velocities_arr_1'
p297
F0.7
sS'velocities_arr_8'
p298
I0
sS'velocities_arr_9'
p299
I0
sg49
I145
sg50
I185
sS'velocities_arr_7'
p300
I0
sS'category_exercise_name_12'
p301
I0
sS'category_exercise_name_13'
p302
I0
sS'category_exercise_name_10'
p303
I0
sS'category_exercise_name_11'
p304
I0
sg56
I6
sg57
I6
sS'category_exercise_name_0'
p305
I0
sS'category_exercise_name_1'
p306
I0
sS'velocities_arr_10'
p307
I0
sS'category_exercise_name_3'
p308
I0
sS'category_exercise_name_4'
p309
I0
sS'category_exercise_name_5'
p310
I0
sS'category_exercise_name_6'
p311
I0
sS'category_exercise_name_7'
p312
I0
sS'category_exercise_name_8'
p313
I0
sS'category_exercise_name_9'
p314
I0
sg68
I2
sg69
I0
sS'category_exercise_name_2'
p315
I1
sg71
I0
sS'velocities_arr_11'
p316
I0
sg73
I0
sg27
F0.0
sa(dp317
g4
I4
sS'velocities_arr_0'
p318
F0.66
sS'velocities_arr_2'
p319
F0.6
sS'velocities_arr_3'
p320
F0.55
sS'velocities_arr_4'
p321
F0.51
sS'velocities_arr_5'
p322
F0.52
sS'velocities_arr_6'
p323
I0
sS'velocities_arr_1'
p324
F0.6
sS'velocities_arr_8'
p325
I0
sS'velocities_arr_9'
p326
I0
sg49
I153
sg50
I205
sS'velocities_arr_7'
p327
I0
sS'category_exercise_name_12'
p328
I0
sS'category_exercise_name_13'
p329
I0
sS'category_exercise_name_10'
p330
I0
sS'category_exercise_name_11'
p331
I0
sg56
I6
sg57
I6
sS'category_exercise_name_0'
p332
I0
sS'category_exercise_name_1'
p333
I0
sS'velocities_arr_10'
p334
I0
sS'category_exercise_name_3'
p335
I0
sS'category_exercise_name_4'
p336
I0
sS'category_exercise_name_5'
p337
I0
sS'category_exercise_name_6'
p338
I0
sS'category_exercise_name_7'
p339
I0
sS'category_exercise_name_8'
p340
I0
sS'category_exercise_name_9'
p341
I0
sg68
I3
sg69
I0
sS'category_exercise_name_2'
p342
I1
sg71
I0
sS'velocities_arr_11'
p343
I0
sg73
I0
sg27
F0.0
sa(dp344
g4
I4
sS'velocities_arr_0'
p345
F0.56
sS'velocities_arr_2'
p346
F0.51
sS'velocities_arr_3'
p347
F0.51
sS'velocities_arr_4'
p348
F0.46
sS'velocities_arr_5'
p349
F0.45
sS'velocities_arr_6'
p350
I0
sS'velocities_arr_1'
p351
F0.55
sS'velocities_arr_8'
p352
I0
sS'velocities_arr_9'
p353
I0
sg49
I157
sg50
I225
sS'velocities_arr_7'
p354
I0
sS'category_exercise_name_12'
p355
I0
sS'category_exercise_name_13'
p356
I0
sS'category_exercise_name_10'
p357
I0
sS'category_exercise_name_11'
p358
I0
sg56
I6
sg57
I6
sS'category_exercise_name_0'
p359
I0
sS'category_exercise_name_1'
p360
I0
sS'velocities_arr_10'
p361
I0
sS'category_exercise_name_3'
p362
I0
sS'category_exercise_name_4'
p363
I0
sS'category_exercise_name_5'
p364
I0
sS'category_exercise_name_6'
p365
I0
sS'category_exercise_name_7'
p366
I0
sS'category_exercise_name_8'
p367
I0
sS'category_exercise_name_9'
p368
I0
sg68
I4
sg69
I0
sS'category_exercise_name_2'
p369
I1
sg71
I0
sS'velocities_arr_11'
p370
I0
sg73
I0
sg27
F0.0
sa(dp371
g4
I4
sS'velocities_arr_0'
p372
F2.71
sS'velocities_arr_2'
p373
F1.89
sS'velocities_arr_3'
p374
F2.03
sS'velocities_arr_4'
p375
F1.41
sS'velocities_arr_5'
p376
F2.16
sS'velocities_arr_6'
p377
F2.25
sS'velocities_arr_1'
p378
F2.52
sS'velocities_arr_8'
p379
I0
sS'velocities_arr_9'
p380
I0
sg49
I117
sg50
I45
sS'velocities_arr_7'
p381
F1.86
sS'category_exercise_name_12'
p382
I0
sS'category_exercise_name_13'
p383
I0
sS'category_exercise_name_10'
p384
I0
sS'category_exercise_name_11'
p385
I0
sg56
I8
sg57
I8
sS'category_exercise_name_0'
p386
I0
sS'category_exercise_name_1'
p387
I0
sS'velocities_arr_10'
p388
I0
sS'category_exercise_name_3'
p389
I1
sS'category_exercise_name_4'
p390
I0
sS'category_exercise_name_5'
p391
I0
sS'category_exercise_name_6'
p392
I0
sS'category_exercise_name_7'
p393
I0
sS'category_exercise_name_8'
p394
I0
sS'category_exercise_name_9'
p395
I0
sg68
I5
sg69
I0
sS'category_exercise_name_2'
p396
I0
sg71
I0
sS'velocities_arr_11'
p397
I0
sg73
I0
sg27
F0.0
sa(dp398
g4
I4
sS'velocities_arr_0'
p399
I0
sS'velocities_arr_2'
p400
I0
sS'velocities_arr_3'
p401
I0
sS'velocities_arr_4'
p402
I0
sS'velocities_arr_5'
p403
I0
sS'velocities_arr_6'
p404
I0
sS'velocities_arr_1'
p405
I0
sS'velocities_arr_8'
p406
I0
sS'velocities_arr_9'
p407
I0
sg49
I122
sg50
I100
sS'velocities_arr_7'
p408
I0
sS'category_exercise_name_12'
p409
I0
sS'category_exercise_name_13'
p410
I0
sS'category_exercise_name_10'
p411
I0
sS'category_exercise_name_11'
p412
I0
sg56
I8
sg57
I8
sS'category_exercise_name_0'
p413
I0
sS'category_exercise_name_1'
p414
I0
sS'velocities_arr_10'
p415
I0
sS'category_exercise_name_3'
p416
I1
sS'category_exercise_name_4'
p417
I0
sS'category_exercise_name_5'
p418
I0
sS'category_exercise_name_6'
p419
I0
sS'category_exercise_name_7'
p420
I0
sS'category_exercise_name_8'
p421
I0
sS'category_exercise_name_9'
p422
I0
sg68
I6
sg69
I0
sS'category_exercise_name_2'
p423
I0
sg71
I0
sS'velocities_arr_11'
p424
I0
sg73
I0
sg27
F0.0
sa(dp425
g4
I4
sS'velocities_arr_0'
p426
F0.78
sS'velocities_arr_2'
p427
F0.44
sS'velocities_arr_3'
p428
F0.44
sS'velocities_arr_4'
p429
F0.44
sS'velocities_arr_5'
p430
F0.44
sS'velocities_arr_6'
p431
F0.44
sS'velocities_arr_1'
p432
F0.44
sS'velocities_arr_8'
p433
I0
sS'velocities_arr_9'
p434
I0
sg49
I119
sg50
I110
sS'velocities_arr_7'
p435
F0.44
sS'category_exercise_name_12'
p436
I0
sS'category_exercise_name_13'
p437
I0
sS'category_exercise_name_10'
p438
I0
sS'category_exercise_name_11'
p439
I0
sg56
I8
sg57
I8
sS'category_exercise_name_0'
p440
I0
sS'category_exercise_name_1'
p441
I0
sS'velocities_arr_10'
p442
I0
sS'category_exercise_name_3'
p443
I1
sS'category_exercise_name_4'
p444
I0
sS'category_exercise_name_5'
p445
I0
sS'category_exercise_name_6'
p446
I0
sS'category_exercise_name_7'
p447
I0
sS'category_exercise_name_8'
p448
I0
sS'category_exercise_name_9'
p449
I0
sg68
I7
sg69
I0
sS'category_exercise_name_2'
p450
I0
sg71
I0
sS'velocities_arr_11'
p451
I0
sg73
I0
sg27
F0.0
sa(dp452
g4
I4
sS'velocities_arr_0'
p453
F0.62
sS'velocities_arr_2'
p454
F0.62
sS'velocities_arr_3'
p455
F0.68
sS'velocities_arr_4'
p456
F0.64
sS'velocities_arr_5'
p457
F0.66
sS'velocities_arr_6'
p458
F0.46
sS'velocities_arr_1'
p459
F0.69
sS'velocities_arr_8'
p460
I0
sS'velocities_arr_9'
p461
I0
sg49
I122
sg50
I110
sS'velocities_arr_7'
p462
F0.46
sS'category_exercise_name_12'
p463
I0
sS'category_exercise_name_13'
p464
I0
sS'category_exercise_name_10'
p465
I0
sS'category_exercise_name_11'
p466
I0
sg56
I8
sg57
I8
sS'category_exercise_name_0'
p467
I0
sS'category_exercise_name_1'
p468
I0
sS'velocities_arr_10'
p469
I0
sS'category_exercise_name_3'
p470
I1
sS'category_exercise_name_4'
p471
I0
sS'category_exercise_name_5'
p472
I0
sS'category_exercise_name_6'
p473
I0
sS'category_exercise_name_7'
p474
I0
sS'category_exercise_name_8'
p475
I0
sS'category_exercise_name_9'
p476
I0
sg68
I8
sg69
I0
sS'category_exercise_name_2'
p477
I0
sg71
I0
sS'velocities_arr_11'
p478
I0
sg73
I0
sg27
F0.0
sa(dp479
g4
I4
sS'velocities_arr_0'
p480
F0.67
sS'velocities_arr_2'
p481
F0.69
sS'velocities_arr_3'
p482
F0.65
sS'velocities_arr_4'
p483
F0.67
sS'velocities_arr_5'
p484
F0.57
sS'velocities_arr_6'
p485
F0.56
sS'velocities_arr_1'
p486
F0.69
sS'velocities_arr_8'
p487
I0
sS'velocities_arr_9'
p488
I0
sg49
I128
sg50
I110
sS'velocities_arr_7'
p489
F0.56
sS'category_exercise_name_12'
p490
I0
sS'category_exercise_name_13'
p491
I0
sS'category_exercise_name_10'
p492
I0
sS'category_exercise_name_11'
p493
I0
sg56
I8
sg57
I8
sS'category_exercise_name_0'
p494
I0
sS'category_exercise_name_1'
p495
I0
sS'velocities_arr_10'
p496
I0
sS'category_exercise_name_3'
p497
I1
sS'category_exercise_name_4'
p498
I0
sS'category_exercise_name_5'
p499
I0
sS'category_exercise_name_6'
p500
I0
sS'category_exercise_name_7'
p501
I0
sS'category_exercise_name_8'
p502
I0
sS'category_exercise_name_9'
p503
I0
sg68
I9
sg69
I0
sS'category_exercise_name_2'
p504
I0
sg71
I0
sS'velocities_arr_11'
p505
I0
sg73
I0
sg27
F0.0
sa(dp506
g4
I4
sS'velocities_arr_0'
p507
I0
sS'velocities_arr_2'
p508
I0
sS'velocities_arr_3'
p509
I0
sS'velocities_arr_4'
p510
I0
sS'velocities_arr_5'
p511
I0
sS'velocities_arr_6'
p512
I0
sS'velocities_arr_1'
p513
I0
sS'velocities_arr_8'
p514
I0
sS'velocities_arr_9'
p515
I0
sg49
I115
sg50
I10
sS'velocities_arr_7'
p516
I0
sS'category_exercise_name_12'
p517
I0
sS'category_exercise_name_13'
p518
I1
sS'category_exercise_name_10'
p519
I0
sS'category_exercise_name_11'
p520
I0
sg56
I12
sg57
I12
sS'category_exercise_name_0'
p521
I0
sS'category_exercise_name_1'
p522
I0
sS'velocities_arr_10'
p523
I0
sS'category_exercise_name_3'
p524
I0
sS'category_exercise_name_4'
p525
I0
sS'category_exercise_name_5'
p526
I0
sS'category_exercise_name_6'
p527
I0
sS'category_exercise_name_7'
p528
I0
sS'category_exercise_name_8'
p529
I0
sS'category_exercise_name_9'
p530
I0
sg68
I10
sg69
I0
sS'category_exercise_name_2'
p531
I0
sg71
I0
sS'velocities_arr_11'
p532
I0
sg73
I0
sg27
F0.0
sa(dp533
g4
I4
sS'velocities_arr_0'
p534
I0
sS'velocities_arr_2'
p535
I0
sS'velocities_arr_3'
p536
I0
sS'velocities_arr_4'
p537
I0
sS'velocities_arr_5'
p538
I0
sS'velocities_arr_6'
p539
I0
sS'velocities_arr_1'
p540
I0
sS'velocities_arr_8'
p541
I0
sS'velocities_arr_9'
p542
I0
sg49
I121
sg50
I15
sS'velocities_arr_7'
p543
I0
sS'category_exercise_name_12'
p544
I0
sS'category_exercise_name_13'
p545
I1
sS'category_exercise_name_10'
p546
I0
sS'category_exercise_name_11'
p547
I0
sg56
I8
sg57
I8
sS'category_exercise_name_0'
p548
I0
sS'category_exercise_name_1'
p549
I0
sS'velocities_arr_10'
p550
I0
sS'category_exercise_name_3'
p551
I0
sS'category_exercise_name_4'
p552
I0
sS'category_exercise_name_5'
p553
I0
sS'category_exercise_name_6'
p554
I0
sS'category_exercise_name_7'
p555
I0
sS'category_exercise_name_8'
p556
I0
sS'category_exercise_name_9'
p557
I0
sg68
I11
sg69
I0
sS'category_exercise_name_2'
p558
I0
sg71
I0
sS'velocities_arr_11'
p559
I0
sg73
I0
sg27
F0.0
sa(dp560
g4
I4
sS'velocities_arr_0'
p561
I0
sS'velocities_arr_2'
p562
I0
sS'velocities_arr_3'
p563
I0
sS'velocities_arr_4'
p564
I0
sS'velocities_arr_5'
p565
I0
sS'velocities_arr_6'
p566
I0
sS'velocities_arr_1'
p567
I0
sS'velocities_arr_8'
p568
I0
sS'velocities_arr_9'
p569
I0
sg49
I121
sg50
I20
sS'velocities_arr_7'
p570
I0
sS'category_exercise_name_12'
p571
I0
sS'category_exercise_name_13'
p572
I1
sS'category_exercise_name_10'
p573
I0
sS'category_exercise_name_11'
p574
I0
sg56
I5
sg57
I5
sS'category_exercise_name_0'
p575
I0
sS'category_exercise_name_1'
p576
I0
sS'velocities_arr_10'
p577
I0
sS'category_exercise_name_3'
p578
I0
sS'category_exercise_name_4'
p579
I0
sS'category_exercise_name_5'
p580
I0
sS'category_exercise_name_6'
p581
I0
sS'category_exercise_name_7'
p582
I0
sS'category_exercise_name_8'
p583
I0
sS'category_exercise_name_9'
p584
I0
sg68
I12
sg69
I0
sS'category_exercise_name_2'
p585
I0
sg71
I0
sS'velocities_arr_11'
p586
I0
sg73
I0
sg27
F0.0
sa(dp587
g4
I4
sS'velocities_arr_0'
p588
I0
sS'velocities_arr_2'
p589
I0
sS'velocities_arr_3'
p590
I0
sS'velocities_arr_4'
p591
I0
sS'velocities_arr_5'
p592
I0
sS'velocities_arr_6'
p593
I0
sS'velocities_arr_1'
p594
I0
sS'velocities_arr_8'
p595
I0
sS'velocities_arr_9'
p596
I0
sg49
I117
sg50
I15
sS'velocities_arr_7'
p597
I0
sS'category_exercise_name_12'
p598
I0
sS'category_exercise_name_13'
p599
I1
sS'category_exercise_name_10'
p600
I0
sS'category_exercise_name_11'
p601
I0
sg56
I3
sg57
I3
sS'category_exercise_name_0'
p602
I0
sS'category_exercise_name_1'
p603
I0
sS'velocities_arr_10'
p604
I0
sS'category_exercise_name_3'
p605
I0
sS'category_exercise_name_4'
p606
I0
sS'category_exercise_name_5'
p607
I0
sS'category_exercise_name_6'
p608
I0
sS'category_exercise_name_7'
p609
I0
sS'category_exercise_name_8'
p610
I0
sS'category_exercise_name_9'
p611
I0
sg68
I13
sg69
I0
sS'category_exercise_name_2'
p612
I0
sg71
I0
sS'velocities_arr_11'
p613
I0
sg73
I0
sg27
F0.0
sa(dp614
g4
I4
sS'velocities_arr_0'
p615
I0
sS'velocities_arr_2'
p616
I0
sS'velocities_arr_3'
p617
I0
sS'velocities_arr_4'
p618
I0
sS'velocities_arr_5'
p619
I0
sS'velocities_arr_6'
p620
I0
sS'velocities_arr_1'
p621
I0
sS'velocities_arr_8'
p622
I0
sS'velocities_arr_9'
p623
I0
sg49
I122
sg50
I10
sS'velocities_arr_7'
p624
I0
sS'category_exercise_name_12'
p625
I0
sS'category_exercise_name_13'
p626
I1
sS'category_exercise_name_10'
p627
I0
sS'category_exercise_name_11'
p628
I0
sg56
I8
sg57
I8
sS'category_exercise_name_0'
p629
I0
sS'category_exercise_name_1'
p630
I0
sS'velocities_arr_10'
p631
I0
sS'category_exercise_name_3'
p632
I0
sS'category_exercise_name_4'
p633
I0
sS'category_exercise_name_5'
p634
I0
sS'category_exercise_name_6'
p635
I0
sS'category_exercise_name_7'
p636
I0
sS'category_exercise_name_8'
p637
I0
sS'category_exercise_name_9'
p638
I0
sg68
I14
sg69
I0
sS'category_exercise_name_2'
p639
I0
sg71
I0
sS'velocities_arr_11'
p640
I0
sg73
I0
sg27
F0.0
sa(dp641
g4
I8
sS'velocities_arr_0'
p642
F0.71
sS'velocities_arr_2'
p643
F1.07
sS'velocities_arr_3'
p644
F1.12
sS'velocities_arr_4'
p645
F1.03
sS'velocities_arr_5'
p646
F1.03
sS'velocities_arr_6'
p647
I0
sS'velocities_arr_1'
p648
F1.04
sS'velocities_arr_8'
p649
I0
sS'velocities_arr_9'
p650
I0
sg49
I124
sg50
I45
sS'velocities_arr_7'
p651
I0
sS'category_exercise_name_12'
p652
I0
sS'category_exercise_name_13'
p653
I0
sS'category_exercise_name_10'
p654
I0
sS'category_exercise_name_11'
p655
I0
sg56
I6
sg57
I6
sS'category_exercise_name_0'
p656
I0
sS'category_exercise_name_1'
p657
I0
sS'velocities_arr_10'
p658
I0
sS'category_exercise_name_3'
p659
I0
sS'category_exercise_name_4'
p660
I0
sS'category_exercise_name_5'
p661
I0
sS'category_exercise_name_6'
p662
I0
sS'category_exercise_name_7'
p663
I0
sS'category_exercise_name_8'
p664
I0
sS'category_exercise_name_9'
p665
I0
sg68
I0
sg69
I0
sS'category_exercise_name_2'
p666
I1
sg71
I0
sS'velocities_arr_11'
p667
I0
sg73
I0
sg27
F0.0
sa(dp668
g4
I8
sS'velocities_arr_0'
p669
F0.79
sS'velocities_arr_2'
p670
F0.82
sS'velocities_arr_3'
p671
F0.74
sS'velocities_arr_4'
p672
F0.74
sS'velocities_arr_5'
p673
F0.64
sS'velocities_arr_6'
p674
I0
sS'velocities_arr_1'
p675
F0.43
sS'velocities_arr_8'
p676
I0
sS'velocities_arr_9'
p677
I0
sg49
I142
sg50
I135
sS'velocities_arr_7'
p678
I0
sS'category_exercise_name_12'
p679
I0
sS'category_exercise_name_13'
p680
I0
sS'category_exercise_name_10'
p681
I0
sS'category_exercise_name_11'
p682
I0
sg56
I6
sg57
I6
sS'category_exercise_name_0'
p683
I0
sS'category_exercise_name_1'
p684
I0
sS'velocities_arr_10'
p685
I0
sS'category_exercise_name_3'
p686
I0
sS'category_exercise_name_4'
p687
I0
sS'category_exercise_name_5'
p688
I0
sS'category_exercise_name_6'
p689
I0
sS'category_exercise_name_7'
p690
I0
sS'category_exercise_name_8'
p691
I0
sS'category_exercise_name_9'
p692
I0
sg68
I1
sg69
I0
sS'category_exercise_name_2'
p693
I1
sg71
I0
sS'velocities_arr_11'
p694
I0
sg73
I0
sg27
F0.0
sa(dp695
g4
I8
sS'velocities_arr_0'
p696
F0.65
sS'velocities_arr_2'
p697
F0.57
sS'velocities_arr_3'
p698
F0.56
sS'velocities_arr_4'
p699
F0.55
sS'velocities_arr_5'
p700
F0.52
sS'velocities_arr_6'
p701
I0
sS'velocities_arr_1'
p702
F0.6
sS'velocities_arr_8'
p703
I0
sS'velocities_arr_9'
p704
I0
sg49
I154
sg50
I205
sS'velocities_arr_7'
p705
I0
sS'category_exercise_name_12'
p706
I0
sS'category_exercise_name_13'
p707
I0
sS'category_exercise_name_10'
p708
I0
sS'category_exercise_name_11'
p709
I0
sg56
I6
sg57
I6
sS'category_exercise_name_0'
p710
I0
sS'category_exercise_name_1'
p711
I0
sS'velocities_arr_10'
p712
I0
sS'category_exercise_name_3'
p713
I0
sS'category_exercise_name_4'
p714
I0
sS'category_exercise_name_5'
p715
I0
sS'category_exercise_name_6'
p716
I0
sS'category_exercise_name_7'
p717
I0
sS'category_exercise_name_8'
p718
I0
sS'category_exercise_name_9'
p719
I0
sg68
I2
sg69
I0
sS'category_exercise_name_2'
p720
I1
sg71
I0
sS'velocities_arr_11'
p721
I0
sg73
I0
sg27
F0.0
sa(dp722
g4
I8
sS'velocities_arr_0'
p723
F0.56
sS'velocities_arr_2'
p724
F0.41
sS'velocities_arr_3'
p725
F0.48
sS'velocities_arr_4'
p726
F0.42
sS'velocities_arr_5'
p727
F0.66
sS'velocities_arr_6'
p728
I0
sS'velocities_arr_1'
p729
F0.53
sS'velocities_arr_8'
p730
I0
sS'velocities_arr_9'
p731
I0
sg49
I161
sg50
I230
sS'velocities_arr_7'
p732
I0
sS'category_exercise_name_12'
p733
I0
sS'category_exercise_name_13'
p734
I0
sS'category_exercise_name_10'
p735
I0
sS'category_exercise_name_11'
p736
I0
sg56
I6
sg57
I6
sS'category_exercise_name_0'
p737
I0
sS'category_exercise_name_1'
p738
I0
sS'velocities_arr_10'
p739
I0
sS'category_exercise_name_3'
p740
I0
sS'category_exercise_name_4'
p741
I0
sS'category_exercise_name_5'
p742
I0
sS'category_exercise_name_6'
p743
I0
sS'category_exercise_name_7'
p744
I0
sS'category_exercise_name_8'
p745
I0
sS'category_exercise_name_9'
p746
I0
sg68
I3
sg69
I0
sS'category_exercise_name_2'
p747
I1
sg71
I0
sS'velocities_arr_11'
p748
I0
sg73
I0
sg27
F0.0
sa(dp749
g4
I8
sS'velocities_arr_0'
p750
F0.56
sS'velocities_arr_2'
p751
F0.47
sS'velocities_arr_3'
p752
F0.48
sS'velocities_arr_4'
p753
F0.42
sS'velocities_arr_5'
p754
F0.66
sS'velocities_arr_6'
p755
I0
sS'velocities_arr_1'
p756
F0.53
sS'velocities_arr_8'
p757
I0
sS'velocities_arr_9'
p758
I0
sg49
I149
sg50
I245
sS'velocities_arr_7'
p759
I0
sS'category_exercise_name_12'
p760
I0
sS'category_exercise_name_13'
p761
I0
sS'category_exercise_name_10'
p762
I0
sS'category_exercise_name_11'
p763
I0
sg56
I2
sg57
I2
sS'category_exercise_name_0'
p764
I0
sS'category_exercise_name_1'
p765
I0
sS'velocities_arr_10'
p766
I0
sS'category_exercise_name_3'
p767
I0
sS'category_exercise_name_4'
p768
I0
sS'category_exercise_name_5'
p769
I0
sS'category_exercise_name_6'
p770
I0
sS'category_exercise_name_7'
p771
I0
sS'category_exercise_name_8'
p772
I0
sS'category_exercise_name_9'
p773
I0
sg68
I4
sg69
I0
sS'category_exercise_name_2'
p774
I1
sg71
I0
sS'velocities_arr_11'
p775
I0
sg73
I0
sg27
F0.0
sa(dp776
g4
I8
sg40
I0
sg41
I0
sg42
I0
sg43
I0
sg44
I0
sg45
I0
sg46
I0
sg47
I0
sg48
I0
sg49
I-1
sg50
F163.6
sg51
I0
sg52
I1
sg53
I0
sg54
I0
sg55
I0
sg60
I0
sg56
I-1
sg57
I6
sg58
I0
sg59
I0
sg70
I0
sg61
I0
sg62
I0
sg63
I0
sg64
I0
sg65
I0
sg66
I0
sg67
I0
sg68
I5
sg69
I-1
sg71
I0
sg72
I0
sg73
I-1
sg27
F0.0
sasS'workouty'
p777
(dp778
S'velocities_arr_0'
p779
I0
sS'velocities_arr_1'
p780
I0
sS'velocities_arr_2'
p781
I0
sS'velocities_arr_3'
p782
I0
sS'velocities_arr_4'
p783
I0
sS'velocities_arr_5'
p784
I0
sS'velocities_arr_6'
p785
I0
sS'velocities_arr_7'
p786
I0
sg56
I6
sS'velocities_arr_9'
p787
I0
sg49
I-1
sS'velocities_arr_10'
p788
I0
sS'velocities_arr_8'
p789
I0
sg69
I0
sS'velocities_arr_11'
p790
I0
sg73
I0
ssS'userx'
p791
(dp792
S'harris_benedict_bmr'
p793
I-1
sS'height_inches'
p794
F70.0
sS'genetically_gifted'
p795
I0
sS'wrist_width_inches'
p796
I7
sS'years_old'
p797
I31
sS'ankle_width_inches'
p798
I9
sS'sex_is_male'
p799
I1
ssS'dayy'
p800
(dp801
g10
F162.2
sg21
F80.0
sg6
F55.9
sg25
F7.4
sg15
F80.3
sg18
F3.9
ss.