(dp0
S'dayseriesx'
p1
(lp2
(dp3
S'day_number'
p4
I-1
sS'sleeptime_awake_hrs'
p5
I-1
sS'withings_body_water_percent'
p6
I-1
sS'heart_rate_variability_rmssd'
p7
I-1
sS'sleeptime_deep_rem_hrs'
p8
I-1
sS'withings_body_fat_percent'
p9
I-1
sS'withings_weight_lbs'
p10
I-1
sS'sleeptime_efficiency_percent'
p11
I-1
sS'post_day_calories_in'
p12
I-1
sS'post_day_fat_g'
p13
I-1
sS'sleeptime_bed_time_ampm_index'
p14
I-1
sS'withings_muscle_mass_percent'
p15
I-1
sS'days_since_last_recorded_day'
p16
I-1
sS'sleeptime_alarm_ring_ampm_index'
p17
I-1
sS'withings_bone_mass_percent'
p18
I-1
sS'sleeptime_snoozed'
p19
I-1
sS'sleeptime_light_sleep_hrs'
p20
I-1
sS'withings_heart_rate_bpm'
p21
I-1
sS'sleeptime_alarm_set_ampm_index'
p22
I-1
sS'post_day_protein_g'
p23
I-1
sS'post_day_wearable_calories_burned'
p24
I-1
sS'withings_pulse_wave_velocity_m_per_s'
p25
I-1
sS'sleeptime_rise_time_ampm_index'
p26
I-1
sS'days_since_last_workout'
p27
I-1
sS'post_day_carbs_g'
p28
I-1
sag3
ag3
ag3
ag3
ag3
ag3
ag3
ag3
ag3
a(dp29
g4
I0
sg5
F2.0166666666666666
sg6
I-1
sg7
I-1
sg8
F5.116666666666666
sg9
I-1
sg10
I-1
sg11
I74
sg12
I-1
sg13
I-1
sg14
I1397
sg15
I-1
sg16
F0.0
sg17
I415
sg18
I-1
sg19
I5
sg20
F0.9166666666666666
sg21
I-1
sg22
I425
sg23
I-1
sg24
I-1
sg25
I-1
sg26
I441
sg27
I0
sg28
I-1
sasS'workoutxseries'
p30
(lp31
(dp32
g4
I1
sS'velocities_arr_0'
p33
I0
sS'velocities_arr_2'
p34
I0
sS'velocities_arr_3'
p35
I0
sS'velocities_arr_4'
p36
I0
sS'velocities_arr_5'
p37
I0
sS'velocities_arr_6'
p38
I0
sS'velocities_arr_1'
p39
I0
sS'velocities_arr_8'
p40
I0
sS'velocities_arr_9'
p41
I0
sS'postset_heartrate'
p42
I-1
sS'weight_lbs'
p43
I-1
sS'velocities_arr_7'
p44
I0
sS'category_exercise_name_10'
p45
I0
sS'reps_completed'
p46
I-1
sS'reps_planned'
p47
I-1
sS'category_exercise_name_0'
p48
I0
sS'category_exercise_name_1'
p49
I0
sS'category_exercise_name_2'
p50
I0
sS'category_exercise_name_3'
p51
I0
sS'category_exercise_name_4'
p52
I0
sS'category_exercise_name_5'
p53
I0
sS'category_exercise_name_6'
p54
I0
sS'category_exercise_name_7'
p55
I0
sS'category_exercise_name_8'
p56
I0
sS'category_exercise_name_9'
p57
I0
sS'set_number_of_the_day'
p58
I13
sS'went_to_failure'
p59
I0
sS'velocities_arr_10'
p60
I0
sS'used_lifting_gear'
p61
I0
sS'velocities_arr_11'
p62
I0
sS'did_pull_muscle'
p63
I0
sg27
I0
sag32
ag32
ag32
ag32
ag32
ag32
ag32
ag32
ag32
ag32
ag32
ag32
ag32
ag32
ag32
ag32
ag32
ag32
a(dp64
g4
I1
sS'velocities_arr_0'
p65
I0
sS'velocities_arr_2'
p66
I0
sS'velocities_arr_3'
p67
I0
sS'velocities_arr_4'
p68
I0
sS'velocities_arr_5'
p69
I0
sS'velocities_arr_6'
p70
I0
sS'velocities_arr_1'
p71
I0
sS'velocities_arr_8'
p72
I0
sS'velocities_arr_9'
p73
I0
sg42
I-1
sg43
I45
sS'velocities_arr_7'
p74
I0
sS'category_exercise_name_10'
p75
I0
sg46
I5
sg47
I5
sS'category_exercise_name_0'
p76
I0
sS'category_exercise_name_1'
p77
I0
sS'velocities_arr_10'
p78
I0
sS'category_exercise_name_3'
p79
I0
sS'category_exercise_name_4'
p80
I0
sS'category_exercise_name_5'
p81
I0
sS'category_exercise_name_6'
p82
I0
sS'category_exercise_name_7'
p83
I0
sS'category_exercise_name_8'
p84
I0
sS'category_exercise_name_9'
p85
I0
sg58
I0
sg59
I0
sS'category_exercise_name_2'
p86
I1
sg61
I0
sS'velocities_arr_11'
p87
I0
sg63
I0
sg27
I0
sa(dp88
g4
I1
sS'velocities_arr_0'
p89
I0
sS'velocities_arr_2'
p90
I0
sS'velocities_arr_3'
p91
I0
sS'velocities_arr_4'
p92
I0
sS'velocities_arr_5'
p93
I0
sS'velocities_arr_6'
p94
I0
sS'velocities_arr_1'
p95
I0
sS'velocities_arr_8'
p96
I0
sS'velocities_arr_9'
p97
I0
sg42
I112
sg43
I45
sS'velocities_arr_7'
p98
I0
sS'category_exercise_name_10'
p99
I0
sg46
I5
sg47
I5
sS'category_exercise_name_0'
p100
I0
sS'category_exercise_name_1'
p101
I0
sS'velocities_arr_10'
p102
I0
sS'category_exercise_name_3'
p103
I0
sS'category_exercise_name_4'
p104
I0
sS'category_exercise_name_5'
p105
I0
sS'category_exercise_name_6'
p106
I0
sS'category_exercise_name_7'
p107
I0
sS'category_exercise_name_8'
p108
I0
sS'category_exercise_name_9'
p109
I0
sg58
I1
sg59
I0
sS'category_exercise_name_2'
p110
I1
sg61
I0
sS'velocities_arr_11'
p111
I0
sg63
I0
sg27
I0
sa(dp112
g4
I1
sS'velocities_arr_0'
p113
I0
sS'velocities_arr_2'
p114
I0
sS'velocities_arr_3'
p115
I0
sS'velocities_arr_4'
p116
I0
sS'velocities_arr_5'
p117
I0
sS'velocities_arr_6'
p118
I0
sS'velocities_arr_1'
p119
I0
sS'velocities_arr_8'
p120
I0
sS'velocities_arr_9'
p121
I0
sg42
I101
sg43
I135
sS'velocities_arr_7'
p122
I0
sS'category_exercise_name_10'
p123
I0
sg46
I2
sg47
I2
sS'category_exercise_name_0'
p124
I0
sS'category_exercise_name_1'
p125
I0
sS'velocities_arr_10'
p126
I0
sS'category_exercise_name_3'
p127
I0
sS'category_exercise_name_4'
p128
I0
sS'category_exercise_name_5'
p129
I0
sS'category_exercise_name_6'
p130
I0
sS'category_exercise_name_7'
p131
I0
sS'category_exercise_name_8'
p132
I0
sS'category_exercise_name_9'
p133
I0
sg58
I2
sg59
I0
sS'category_exercise_name_2'
p134
I1
sg61
I0
sS'velocities_arr_11'
p135
I0
sg63
I0
sg27
I0
sa(dp136
g4
I1
sS'velocities_arr_0'
p137
I0
sS'velocities_arr_2'
p138
I0
sS'velocities_arr_3'
p139
I0
sS'velocities_arr_4'
p140
I0
sS'velocities_arr_5'
p141
I0
sS'velocities_arr_6'
p142
I0
sS'velocities_arr_1'
p143
I0
sS'velocities_arr_8'
p144
I0
sS'velocities_arr_9'
p145
I0
sg42
I111
sg43
I185
sS'velocities_arr_7'
p146
I0
sS'category_exercise_name_10'
p147
I0
sg46
I2
sg47
I2
sS'category_exercise_name_0'
p148
I0
sS'category_exercise_name_1'
p149
I0
sS'velocities_arr_10'
p150
I0
sS'category_exercise_name_3'
p151
I0
sS'category_exercise_name_4'
p152
I0
sS'category_exercise_name_5'
p153
I0
sS'category_exercise_name_6'
p154
I0
sS'category_exercise_name_7'
p155
I0
sS'category_exercise_name_8'
p156
I0
sS'category_exercise_name_9'
p157
I0
sg58
I3
sg59
I0
sS'category_exercise_name_2'
p158
I1
sg61
I0
sS'velocities_arr_11'
p159
I0
sg63
I0
sg27
I0
sa(dp160
g4
I1
sS'velocities_arr_0'
p161
F0.43
sS'velocities_arr_2'
p162
I0
sS'velocities_arr_3'
p163
I0
sS'velocities_arr_4'
p164
I0
sS'velocities_arr_5'
p165
I0
sS'velocities_arr_6'
p166
I0
sS'velocities_arr_1'
p167
F0.43
sS'velocities_arr_8'
p168
I0
sS'velocities_arr_9'
p169
I0
sg42
I110
sg43
I225
sS'velocities_arr_7'
p170
I0
sS'category_exercise_name_10'
p171
I0
sg46
I2
sg47
I2
sS'category_exercise_name_0'
p172
I0
sS'category_exercise_name_1'
p173
I0
sS'velocities_arr_10'
p174
I0
sS'category_exercise_name_3'
p175
I0
sS'category_exercise_name_4'
p176
I0
sS'category_exercise_name_5'
p177
I0
sS'category_exercise_name_6'
p178
I0
sS'category_exercise_name_7'
p179
I0
sS'category_exercise_name_8'
p180
I0
sS'category_exercise_name_9'
p181
I0
sg58
I4
sg59
I0
sS'category_exercise_name_2'
p182
I1
sg61
I0
sS'velocities_arr_11'
p183
I0
sg63
I0
sg27
I0
sa(dp184
g4
I1
sS'velocities_arr_0'
p185
F0.43
sS'velocities_arr_2'
p186
F0.43
sS'velocities_arr_3'
p187
I0
sS'velocities_arr_4'
p188
I0
sS'velocities_arr_5'
p189
I0
sS'velocities_arr_6'
p190
I0
sS'velocities_arr_1'
p191
F0.43
sS'velocities_arr_8'
p192
I0
sS'velocities_arr_9'
p193
I0
sg42
I130
sg43
I245
sS'velocities_arr_7'
p194
I0
sS'category_exercise_name_10'
p195
I0
sg46
I3
sg47
I3
sS'category_exercise_name_0'
p196
I0
sS'category_exercise_name_1'
p197
I0
sS'velocities_arr_10'
p198
I0
sS'category_exercise_name_3'
p199
I0
sS'category_exercise_name_4'
p200
I0
sS'category_exercise_name_5'
p201
I0
sS'category_exercise_name_6'
p202
I0
sS'category_exercise_name_7'
p203
I0
sS'category_exercise_name_8'
p204
I0
sS'category_exercise_name_9'
p205
I0
sg58
I5
sg59
I0
sS'category_exercise_name_2'
p206
I1
sg61
I0
sS'velocities_arr_11'
p207
I0
sg63
I0
sg27
I0
sa(dp208
g4
I1
sS'velocities_arr_0'
p209
F0.38
sS'velocities_arr_2'
p210
I0
sS'velocities_arr_3'
p211
I0
sS'velocities_arr_4'
p212
I0
sS'velocities_arr_5'
p213
I0
sS'velocities_arr_6'
p214
I0
sS'velocities_arr_1'
p215
I0
sS'velocities_arr_8'
p216
I0
sS'velocities_arr_9'
p217
I0
sg42
I111
sg43
I265
sS'velocities_arr_7'
p218
I0
sS'category_exercise_name_10'
p219
I0
sg46
I1
sg47
I1
sS'category_exercise_name_0'
p220
I0
sS'category_exercise_name_1'
p221
I0
sS'velocities_arr_10'
p222
I0
sS'category_exercise_name_3'
p223
I0
sS'category_exercise_name_4'
p224
I0
sS'category_exercise_name_5'
p225
I0
sS'category_exercise_name_6'
p226
I0
sS'category_exercise_name_7'
p227
I0
sS'category_exercise_name_8'
p228
I0
sS'category_exercise_name_9'
p229
I0
sg58
I6
sg59
I0
sS'category_exercise_name_2'
p230
I1
sg61
I0
sS'velocities_arr_11'
p231
I0
sg63
I0
sg27
I0
sa(dp232
g4
I1
sS'velocities_arr_0'
p233
F0.61
sS'velocities_arr_2'
p234
F0.77
sS'velocities_arr_3'
p235
F0.7
sS'velocities_arr_4'
p236
F0.68
sS'velocities_arr_5'
p237
F0.71
sS'velocities_arr_6'
p238
F0.63
sS'velocities_arr_1'
p239
F0.71
sS'velocities_arr_8'
p240
F0.63
sS'velocities_arr_9'
p241
F0.63
sg42
I109
sg43
I95
sS'velocities_arr_7'
p242
F0.63
sS'category_exercise_name_10'
p243
I0
sg46
I10
sg47
I10
sS'category_exercise_name_0'
p244
I0
sS'category_exercise_name_1'
p245
I0
sS'velocities_arr_10'
p246
I0
sS'category_exercise_name_3'
p247
I1
sS'category_exercise_name_4'
p248
I0
sS'category_exercise_name_5'
p249
I0
sS'category_exercise_name_6'
p250
I0
sS'category_exercise_name_7'
p251
I0
sS'category_exercise_name_8'
p252
I0
sS'category_exercise_name_9'
p253
I0
sg58
I7
sg59
I0
sS'category_exercise_name_2'
p254
I0
sg61
I0
sS'velocities_arr_11'
p255
I0
sg63
I0
sg27
I0
sa(dp256
g4
I1
sS'velocities_arr_0'
p257
F0.56
sS'velocities_arr_2'
p258
F0.58
sS'velocities_arr_3'
p259
F0.52
sS'velocities_arr_4'
p260
F0.36
sS'velocities_arr_5'
p261
F0.36
sS'velocities_arr_6'
p262
F0.36
sS'velocities_arr_1'
p263
F0.55
sS'velocities_arr_8'
p264
I0
sS'velocities_arr_9'
p265
I0
sg42
I107
sg43
I105
sS'velocities_arr_7'
p266
I0
sS'category_exercise_name_10'
p267
I0
sg46
I7
sg47
I7
sS'category_exercise_name_0'
p268
I0
sS'category_exercise_name_1'
p269
I0
sS'velocities_arr_10'
p270
I0
sS'category_exercise_name_3'
p271
I1
sS'category_exercise_name_4'
p272
I0
sS'category_exercise_name_5'
p273
I0
sS'category_exercise_name_6'
p274
I0
sS'category_exercise_name_7'
p275
I0
sS'category_exercise_name_8'
p276
I0
sS'category_exercise_name_9'
p277
I0
sg58
I8
sg59
I0
sS'category_exercise_name_2'
p278
I0
sg61
I0
sS'velocities_arr_11'
p279
I0
sg63
I0
sg27
I0
sa(dp280
g4
I1
sS'velocities_arr_0'
p281
F0.55
sS'velocities_arr_2'
p282
F0.48
sS'velocities_arr_3'
p283
F0.38
sS'velocities_arr_4'
p284
F0.38
sS'velocities_arr_5'
p285
I0
sS'velocities_arr_6'
p286
I0
sS'velocities_arr_1'
p287
F0.29
sS'velocities_arr_8'
p288
I0
sS'velocities_arr_9'
p289
I0
sg42
I111
sg43
I115
sS'velocities_arr_7'
p290
I0
sS'category_exercise_name_10'
p291
I0
sg46
I5
sg47
I5
sS'category_exercise_name_0'
p292
I0
sS'category_exercise_name_1'
p293
I0
sS'velocities_arr_10'
p294
I0
sS'category_exercise_name_3'
p295
I1
sS'category_exercise_name_4'
p296
I0
sS'category_exercise_name_5'
p297
I0
sS'category_exercise_name_6'
p298
I0
sS'category_exercise_name_7'
p299
I0
sS'category_exercise_name_8'
p300
I0
sS'category_exercise_name_9'
p301
I0
sg58
I9
sg59
I0
sS'category_exercise_name_2'
p302
I0
sg61
I0
sS'velocities_arr_11'
p303
I0
sg63
I0
sg27
I0
sa(dp304
g4
I1
sS'velocities_arr_0'
p305
F0.37
sS'velocities_arr_2'
p306
F0.34
sS'velocities_arr_3'
p307
I0
sS'velocities_arr_4'
p308
I0
sS'velocities_arr_5'
p309
I0
sS'velocities_arr_6'
p310
I0
sS'velocities_arr_1'
p311
F0.34
sS'velocities_arr_8'
p312
I0
sS'velocities_arr_9'
p313
I0
sg42
I111
sg43
I125
sS'velocities_arr_7'
p314
I0
sS'category_exercise_name_10'
p315
I0
sg46
I3
sg47
I3
sS'category_exercise_name_0'
p316
I0
sS'category_exercise_name_1'
p317
I0
sS'velocities_arr_10'
p318
I0
sS'category_exercise_name_3'
p319
I1
sS'category_exercise_name_4'
p320
I0
sS'category_exercise_name_5'
p321
I0
sS'category_exercise_name_6'
p322
I0
sS'category_exercise_name_7'
p323
I0
sS'category_exercise_name_8'
p324
I0
sS'category_exercise_name_9'
p325
I0
sg58
I10
sg59
I0
sS'category_exercise_name_2'
p326
I0
sg61
I0
sS'velocities_arr_11'
p327
I0
sg63
I0
sg27
I0
sa(dp328
g4
I1
sS'velocities_arr_0'
p329
F0.73
sS'velocities_arr_2'
p330
F0.63
sS'velocities_arr_3'
p331
F0.82
sS'velocities_arr_4'
p332
F0.82
sS'velocities_arr_5'
p333
I0
sS'velocities_arr_6'
p334
I0
sS'velocities_arr_1'
p335
F0.68
sS'velocities_arr_8'
p336
I0
sS'velocities_arr_9'
p337
I0
sg42
I147
sg43
I135
sS'velocities_arr_7'
p338
I0
sS'category_exercise_name_10'
p339
I0
sg46
I5
sg47
I5
sS'category_exercise_name_0'
p340
I1
sS'category_exercise_name_1'
p341
I0
sS'velocities_arr_10'
p342
I0
sS'category_exercise_name_3'
p343
I0
sS'category_exercise_name_4'
p344
I0
sS'category_exercise_name_5'
p345
I0
sS'category_exercise_name_6'
p346
I0
sS'category_exercise_name_7'
p347
I0
sS'category_exercise_name_8'
p348
I0
sS'category_exercise_name_9'
p349
I0
sg58
I11
sg59
I0
sS'category_exercise_name_2'
p350
I0
sg61
I0
sS'velocities_arr_11'
p351
I0
sg63
I0
sg27
I0
sa(dp352
g4
I1
sS'velocities_arr_0'
p353
F0.73
sS'velocities_arr_2'
p354
F0.63
sS'velocities_arr_3'
p355
F0.82
sS'velocities_arr_4'
p356
I0
sS'velocities_arr_5'
p357
I0
sS'velocities_arr_6'
p358
I0
sS'velocities_arr_1'
p359
F0.68
sS'velocities_arr_8'
p360
I0
sS'velocities_arr_9'
p361
I0
sg42
I147
sg43
I225
sS'velocities_arr_7'
p362
I0
sS'category_exercise_name_10'
p363
I0
sg46
I4
sg47
I4
sS'category_exercise_name_0'
p364
I1
sS'category_exercise_name_1'
p365
I0
sS'velocities_arr_10'
p366
I0
sS'category_exercise_name_3'
p367
I0
sS'category_exercise_name_4'
p368
I0
sS'category_exercise_name_5'
p369
I0
sS'category_exercise_name_6'
p370
I0
sS'category_exercise_name_7'
p371
I0
sS'category_exercise_name_8'
p372
I0
sS'category_exercise_name_9'
p373
I0
sg58
I12
sg59
I0
sS'category_exercise_name_2'
p374
I0
sg61
I0
sS'velocities_arr_11'
p375
I0
sg63
I0
sg27
I0
sa(dp376
g4
I1
sg33
I0
sg34
I0
sg35
I0
sg36
I0
sg37
I0
sg38
I0
sg39
I0
sg40
I0
sg41
I0
sg42
I-1
sg43
I245
sg44
I0
sg45
I0
sg50
I0
sg46
I-1
sg47
I3
sg48
I1
sg49
I0
sg60
I0
sg51
I0
sg52
I0
sg53
I0
sg54
I0
sg55
I0
sg56
I0
sg57
I0
sg58
I13
sg59
I-1
sg61
I0
sg62
I0
sg63
I-1
sg27
I0
sasS'workouty'
p377
(dp378
S'velocities_arr_0'
p379
F0.53
sS'velocities_arr_1'
p380
F0.61
sS'velocities_arr_2'
p381
F0.69
sS'velocities_arr_3'
p382
I0
sS'velocities_arr_4'
p383
I0
sS'velocities_arr_5'
p384
I0
sS'velocities_arr_6'
p385
I0
sS'velocities_arr_7'
p386
I0
sg46
I3
sS'velocities_arr_9'
p387
I0
sg42
I125
sS'velocities_arr_10'
p388
I0
sS'velocities_arr_8'
p389
I0
sg59
I1
sS'velocities_arr_11'
p390
I0
sg63
I0
ssS'userx'
p391
(dp392
S'harris_benedict_bmr'
p393
I-1
sS'height_inches'
p394
F70.0
sS'genetically_gifted'
p395
I0
sS'wrist_width_inches'
p396
I7
sS'years_old'
p397
I31
sS'ankle_width_inches'
p398
I9
sS'sex_is_male'
p399
I1
ssS'dayy'
p400
(dp401
g10
I-1
sg21
I-1
sg6
I-1
sg25
I-1
sg15
I-1
sg18
I-1
ss.