(dp0
S'dayseriesx'
p1
(lp2
(dp3
S'day_number'
p4
I-1
sS'sleeptime_awake_hrs'
p5
I-1
sS'withings_body_water_percent'
p6
I-1
sS'heart_rate_variability_rmssd'
p7
I-1
sS'sleeptime_deep_rem_hrs'
p8
I-1
sS'withings_body_fat_percent'
p9
I-1
sS'withings_weight_lbs'
p10
I-1
sS'sleeptime_efficiency_percent'
p11
I-1
sS'post_day_calories_in'
p12
I-1
sS'post_day_fat_g'
p13
I-1
sS'sleeptime_bed_time_ampm_index'
p14
I-1
sS'withings_muscle_mass_percent'
p15
I-1
sS'days_since_last_recorded_day'
p16
I-1
sS'sleeptime_alarm_ring_ampm_index'
p17
I-1
sS'withings_bone_mass_percent'
p18
I-1
sS'sleeptime_snoozed'
p19
I-1
sS'sleeptime_light_sleep_hrs'
p20
I-1
sS'withings_heart_rate_bpm'
p21
I-1
sS'sleeptime_alarm_set_ampm_index'
p22
I-1
sS'post_day_protein_g'
p23
I-1
sS'post_day_wearable_calories_burned'
p24
I-1
sS'withings_pulse_wave_velocity_m_per_s'
p25
I-1
sS'sleeptime_rise_time_ampm_index'
p26
I-1
sS'days_since_last_workout'
p27
I-1
sS'post_day_carbs_g'
p28
I-1
sag3
ag3
ag3
ag3
ag3
ag3
ag3
ag3
ag3
a(dp29
g4
I0
sg5
F3.033333333333333
sg6
F56.8
sg7
I-1
sg8
F2.066666666666667
sg9
F14.0
sg10
F160.7
sg11
I60
sg12
I-1
sg13
I-1
sg14
I1415
sg15
F81.9
sg16
F0.0
sg17
I399
sg18
F4.0
sg19
I5
sg20
F2.65
sg21
I93
sg22
I425
sg23
I-1
sg24
I-1
sg25
F7.8
sg26
I441
sg27
I0
sg28
I-1
sasS'workoutxseries'
p30
(lp31
(dp32
g4
I1
sS'velocities_arr_0'
p33
I0
sS'velocities_arr_2'
p34
I0
sS'velocities_arr_3'
p35
I0
sS'velocities_arr_4'
p36
I0
sS'velocities_arr_5'
p37
I0
sS'velocities_arr_6'
p38
I0
sS'velocities_arr_1'
p39
I0
sS'velocities_arr_8'
p40
I0
sS'velocities_arr_9'
p41
I0
sS'postset_heartrate'
p42
I-1
sS'weight_lbs'
p43
I-1
sS'velocities_arr_7'
p44
I0
sS'category_exercise_name_10'
p45
I0
sS'reps_completed'
p46
I-1
sS'reps_planned'
p47
I-1
sS'category_exercise_name_0'
p48
I0
sS'category_exercise_name_1'
p49
I0
sS'category_exercise_name_2'
p50
I0
sS'category_exercise_name_3'
p51
I0
sS'category_exercise_name_4'
p52
I0
sS'category_exercise_name_5'
p53
I0
sS'category_exercise_name_6'
p54
I0
sS'category_exercise_name_7'
p55
I0
sS'category_exercise_name_8'
p56
I0
sS'category_exercise_name_9'
p57
I0
sS'set_number_of_the_day'
p58
I7
sS'went_to_failure'
p59
I0
sS'velocities_arr_10'
p60
I0
sS'used_lifting_gear'
p61
I0
sS'velocities_arr_11'
p62
I0
sS'did_pull_muscle'
p63
I0
sg27
I0
sag32
ag32
ag32
ag32
ag32
ag32
ag32
ag32
ag32
ag32
ag32
ag32
ag32
ag32
ag32
ag32
ag32
ag32
ag32
ag32
ag32
ag32
ag32
ag32
a(dp64
g4
I1
sS'velocities_arr_0'
p65
F0.66
sS'velocities_arr_2'
p66
F0.8
sS'velocities_arr_3'
p67
F0.72
sS'velocities_arr_4'
p68
F0.72
sS'velocities_arr_5'
p69
I0
sS'velocities_arr_6'
p70
I0
sS'velocities_arr_1'
p71
F0.61
sS'velocities_arr_8'
p72
I0
sS'velocities_arr_9'
p73
I0
sg42
I111
sg43
I135
sS'velocities_arr_7'
p74
I0
sS'category_exercise_name_10'
p75
I0
sg46
I5
sg47
I5
sS'category_exercise_name_0'
p76
I1
sS'category_exercise_name_1'
p77
I0
sS'velocities_arr_10'
p78
I0
sS'category_exercise_name_3'
p79
I0
sS'category_exercise_name_4'
p80
I0
sS'category_exercise_name_5'
p81
I0
sS'category_exercise_name_6'
p82
I0
sS'category_exercise_name_7'
p83
I0
sS'category_exercise_name_8'
p84
I0
sS'category_exercise_name_9'
p85
I0
sg58
I0
sg59
I0
sS'category_exercise_name_2'
p86
I0
sg61
I0
sS'velocities_arr_11'
p87
I0
sg63
I0
sg27
I0
sa(dp88
g4
I1
sS'velocities_arr_0'
p89
F0.36
sS'velocities_arr_2'
p90
F0.55
sS'velocities_arr_3'
p91
F0.61
sS'velocities_arr_4'
p92
F0.71
sS'velocities_arr_5'
p93
I0
sS'velocities_arr_6'
p94
I0
sS'velocities_arr_1'
p95
F0.56
sS'velocities_arr_8'
p96
I0
sS'velocities_arr_9'
p97
I0
sg42
I116
sg43
I155
sS'velocities_arr_7'
p98
I0
sS'category_exercise_name_10'
p99
I0
sg46
I5
sg47
I5
sS'category_exercise_name_0'
p100
I1
sS'category_exercise_name_1'
p101
I0
sS'velocities_arr_10'
p102
I0
sS'category_exercise_name_3'
p103
I0
sS'category_exercise_name_4'
p104
I0
sS'category_exercise_name_5'
p105
I0
sS'category_exercise_name_6'
p106
I0
sS'category_exercise_name_7'
p107
I0
sS'category_exercise_name_8'
p108
I0
sS'category_exercise_name_9'
p109
I0
sg58
I1
sg59
I0
sS'category_exercise_name_2'
p110
I0
sg61
I0
sS'velocities_arr_11'
p111
I0
sg63
I0
sg27
I0
sa(dp112
g4
I1
sS'velocities_arr_0'
p113
F1.43
sS'velocities_arr_2'
p114
F0.59
sS'velocities_arr_3'
p115
I0
sS'velocities_arr_4'
p116
I0
sS'velocities_arr_5'
p117
I0
sS'velocities_arr_6'
p118
I0
sS'velocities_arr_1'
p119
F0.65
sS'velocities_arr_8'
p120
I0
sS'velocities_arr_9'
p121
I0
sg42
I116
sg43
I185
sS'velocities_arr_7'
p122
I0
sS'category_exercise_name_10'
p123
I0
sg46
I3
sg47
I3
sS'category_exercise_name_0'
p124
I1
sS'category_exercise_name_1'
p125
I0
sS'velocities_arr_10'
p126
I0
sS'category_exercise_name_3'
p127
I0
sS'category_exercise_name_4'
p128
I0
sS'category_exercise_name_5'
p129
I0
sS'category_exercise_name_6'
p130
I0
sS'category_exercise_name_7'
p131
I0
sS'category_exercise_name_8'
p132
I0
sS'category_exercise_name_9'
p133
I0
sg58
I2
sg59
I0
sS'category_exercise_name_2'
p134
I0
sg61
I0
sS'velocities_arr_11'
p135
I0
sg63
I0
sg27
I0
sa(dp136
g4
I1
sS'velocities_arr_0'
p137
F0.54
sS'velocities_arr_2'
p138
F0.51
sS'velocities_arr_3'
p139
I0
sS'velocities_arr_4'
p140
I0
sS'velocities_arr_5'
p141
I0
sS'velocities_arr_6'
p142
I0
sS'velocities_arr_1'
p143
F0.51
sS'velocities_arr_8'
p144
I0
sS'velocities_arr_9'
p145
I0
sg42
I110
sg43
I205
sS'velocities_arr_7'
p146
I0
sS'category_exercise_name_10'
p147
I0
sg46
I3
sg47
I3
sS'category_exercise_name_0'
p148
I1
sS'category_exercise_name_1'
p149
I0
sS'velocities_arr_10'
p150
I0
sS'category_exercise_name_3'
p151
I0
sS'category_exercise_name_4'
p152
I0
sS'category_exercise_name_5'
p153
I0
sS'category_exercise_name_6'
p154
I0
sS'category_exercise_name_7'
p155
I0
sS'category_exercise_name_8'
p156
I0
sS'category_exercise_name_9'
p157
I0
sg58
I3
sg59
I0
sS'category_exercise_name_2'
p158
I0
sg61
I0
sS'velocities_arr_11'
p159
I0
sg63
I0
sg27
I0
sa(dp160
g4
I1
sS'velocities_arr_0'
p161
F0.83
sS'velocities_arr_2'
p162
F0.81
sS'velocities_arr_3'
p163
F0.8
sS'velocities_arr_4'
p164
F0.7
sS'velocities_arr_5'
p165
F0.68
sS'velocities_arr_6'
p166
F0.83
sS'velocities_arr_1'
p167
F0.83
sS'velocities_arr_8'
p168
F0.91
sS'velocities_arr_9'
p169
F0.55
sg42
I98
sg43
I45
sS'velocities_arr_7'
p170
F0.81
sS'category_exercise_name_10'
p171
I0
sg46
I10
sg47
I10
sS'category_exercise_name_0'
p172
I0
sS'category_exercise_name_1'
p173
I1
sS'velocities_arr_10'
p174
I0
sS'category_exercise_name_3'
p175
I0
sS'category_exercise_name_4'
p176
I0
sS'category_exercise_name_5'
p177
I0
sS'category_exercise_name_6'
p178
I0
sS'category_exercise_name_7'
p179
I0
sS'category_exercise_name_8'
p180
I0
sS'category_exercise_name_9'
p181
I0
sg58
I4
sg59
I0
sS'category_exercise_name_2'
p182
I0
sg61
I0
sS'velocities_arr_11'
p183
I0
sg63
I0
sg27
I0
sa(dp184
g4
I1
sS'velocities_arr_0'
p185
F0.5
sS'velocities_arr_2'
p186
F0.44
sS'velocities_arr_3'
p187
F0.38
sS'velocities_arr_4'
p188
I0
sS'velocities_arr_5'
p189
I0
sS'velocities_arr_6'
p190
I0
sS'velocities_arr_1'
p191
F0.43
sS'velocities_arr_8'
p192
I0
sS'velocities_arr_9'
p193
I0
sg42
I116
sg43
I65
sS'velocities_arr_7'
p194
I0
sS'category_exercise_name_10'
p195
I0
sg46
I4
sg47
I4
sS'category_exercise_name_0'
p196
I0
sS'category_exercise_name_1'
p197
I1
sS'velocities_arr_10'
p198
I0
sS'category_exercise_name_3'
p199
I0
sS'category_exercise_name_4'
p200
I0
sS'category_exercise_name_5'
p201
I0
sS'category_exercise_name_6'
p202
I0
sS'category_exercise_name_7'
p203
I0
sS'category_exercise_name_8'
p204
I0
sS'category_exercise_name_9'
p205
I0
sg58
I5
sg59
I0
sS'category_exercise_name_2'
p206
I0
sg61
I0
sS'velocities_arr_11'
p207
I0
sg63
I0
sg27
I0
sa(dp208
g4
I1
sS'velocities_arr_0'
p209
F0.75
sS'velocities_arr_2'
p210
F0.55
sS'velocities_arr_3'
p211
F0.57
sS'velocities_arr_4'
p212
F0.53
sS'velocities_arr_5'
p213
F0.49
sS'velocities_arr_6'
p214
F0.69
sS'velocities_arr_1'
p215
F0.76
sS'velocities_arr_8'
p216
I0
sS'velocities_arr_9'
p217
I0
sg42
I116
sg43
I55
sS'velocities_arr_7'
p218
I0
sS'category_exercise_name_10'
p219
I0
sg46
I7
sg47
I7
sS'category_exercise_name_0'
p220
I0
sS'category_exercise_name_1'
p221
I1
sS'velocities_arr_10'
p222
I0
sS'category_exercise_name_3'
p223
I0
sS'category_exercise_name_4'
p224
I0
sS'category_exercise_name_5'
p225
I0
sS'category_exercise_name_6'
p226
I0
sS'category_exercise_name_7'
p227
I0
sS'category_exercise_name_8'
p228
I0
sS'category_exercise_name_9'
p229
I0
sg58
I6
sg59
I0
sS'category_exercise_name_2'
p230
I0
sg61
I0
sS'velocities_arr_11'
p231
I0
sg63
I0
sg27
I0
sa(dp232
g4
I1
sg33
I0
sg34
I0
sg35
I0
sg36
I0
sg37
I0
sg38
I0
sg39
I0
sg40
I0
sg41
I0
sg42
I-1
sg43
F160.7
sg44
I0
sg45
I0
sg50
I0
sg46
I-1
sg47
I4
sg48
I0
sg49
I0
sg60
I0
sg51
I0
sg52
I0
sg53
I1
sg54
I0
sg55
I0
sg56
I0
sg57
I0
sg58
I7
sg59
I-1
sg61
I0
sg62
I0
sg63
I-1
sg27
I0
sasS'workouty'
p233
(dp234
S'velocities_arr_0'
p235
I0
sS'velocities_arr_1'
p236
I0
sS'velocities_arr_2'
p237
I0
sS'velocities_arr_3'
p238
I0
sS'velocities_arr_4'
p239
I0
sS'velocities_arr_5'
p240
I0
sS'velocities_arr_6'
p241
I0
sS'velocities_arr_7'
p242
I0
sg46
I4
sS'velocities_arr_9'
p243
I0
sg42
I-1
sS'velocities_arr_10'
p244
I0
sS'velocities_arr_8'
p245
I0
sg59
I0
sS'velocities_arr_11'
p246
I0
sg63
I0
ssS'userx'
p247
(dp248
S'harris_benedict_bmr'
p249
I-1
sS'height_inches'
p250
F70.0
sS'genetically_gifted'
p251
I0
sS'wrist_width_inches'
p252
I7
sS'years_old'
p253
I31
sS'ankle_width_inches'
p254
I9
sS'sex_is_male'
p255
I1
ssS'dayy'
p256
(dp257
g10
F160.5
sg21
I82
sg6
F57.3
sg25
F7.6
sg15
F82.6
sg18
F4.1
ss.