(dp0
S'dayseriesx'
p1
(lp2
(dp3
S'day_number'
p4
I-1
sS'sleeptime_awake_hrs'
p5
I-1
sS'withings_body_water_percent'
p6
I-1
sS'heart_rate_variability_rmssd'
p7
I-1
sS'sleeptime_deep_rem_hrs'
p8
I-1
sS'withings_body_fat_percent'
p9
I-1
sS'withings_weight_lbs'
p10
I-1
sS'sleeptime_efficiency_percent'
p11
I-1
sS'post_day_calories_in'
p12
I-1
sS'post_day_fat_g'
p13
I-1
sS'sleeptime_bed_time_ampm_index'
p14
I-1
sS'withings_muscle_mass_percent'
p15
I-1
sS'days_since_last_recorded_day'
p16
I-1
sS'sleeptime_alarm_ring_ampm_index'
p17
I-1
sS'withings_bone_mass_percent'
p18
I-1
sS'sleeptime_snoozed'
p19
I-1
sS'sleeptime_light_sleep_hrs'
p20
I-1
sS'withings_heart_rate_bpm'
p21
I-1
sS'sleeptime_alarm_set_ampm_index'
p22
I-1
sS'post_day_protein_g'
p23
I-1
sS'post_day_wearable_calories_burned'
p24
I-1
sS'withings_pulse_wave_velocity_m_per_s'
p25
I-1
sS'sleeptime_rise_time_ampm_index'
p26
I-1
sS'days_since_last_workout'
p27
I-1
sS'post_day_carbs_g'
p28
I-1
sag3
ag3
ag3
ag3
ag3
ag3
ag3
ag3
ag3
a(dp29
g4
I0
sg5
F0.6
sg6
F56.5
sg7
I-1
sg8
F2.6333333333333333
sg9
F14.5
sg10
F161.1
sg11
I92
sg12
I-1
sg13
I-1
sg14
I676
sg15
F81.4
sg16
F0.0
sg17
I423
sg18
F4.0
sg19
I5
sg20
F5.2
sg21
I98
sg22
I446
sg23
I-1
sg24
I-1
sg25
F7.4
sg26
I465
sg27
I0
sg28
I-1
sasS'workoutxseries'
p30
(lp31
(dp32
g4
I1
sS'velocities_arr_0'
p33
I0
sS'velocities_arr_2'
p34
I0
sS'velocities_arr_3'
p35
I0
sS'velocities_arr_4'
p36
I0
sS'velocities_arr_5'
p37
I0
sS'velocities_arr_6'
p38
I0
sS'velocities_arr_1'
p39
I0
sS'velocities_arr_8'
p40
I0
sS'velocities_arr_9'
p41
I0
sS'postset_heartrate'
p42
I-1
sS'weight_lbs'
p43
I-1
sS'velocities_arr_7'
p44
I0
sS'category_exercise_name_12'
p45
I0
sS'category_exercise_name_10'
p46
I0
sS'category_exercise_name_11'
p47
I0
sS'reps_completed'
p48
I-1
sS'reps_planned'
p49
I-1
sS'category_exercise_name_0'
p50
I0
sS'category_exercise_name_1'
p51
I0
sS'category_exercise_name_2'
p52
I0
sS'category_exercise_name_3'
p53
I0
sS'category_exercise_name_4'
p54
I0
sS'category_exercise_name_5'
p55
I0
sS'category_exercise_name_6'
p56
I0
sS'category_exercise_name_7'
p57
I0
sS'category_exercise_name_8'
p58
I0
sS'category_exercise_name_9'
p59
I0
sS'set_number_of_the_day'
p60
I7
sS'went_to_failure'
p61
I0
sS'velocities_arr_10'
p62
I0
sS'used_lifting_gear'
p63
I0
sS'velocities_arr_11'
p64
I0
sS'did_pull_muscle'
p65
I0
sg27
I0
sag32
ag32
ag32
ag32
ag32
ag32
ag32
ag32
ag32
ag32
ag32
ag32
ag32
ag32
ag32
ag32
ag32
ag32
ag32
ag32
ag32
ag32
ag32
ag32
ag32
ag32
ag32
ag32
ag32
ag32
a(dp66
g4
I1
sS'velocities_arr_0'
p67
F0.99
sS'velocities_arr_2'
p68
F1.03
sS'velocities_arr_3'
p69
F1.03
sS'velocities_arr_4'
p70
F1.07
sS'velocities_arr_5'
p71
I0
sS'velocities_arr_6'
p72
I0
sS'velocities_arr_1'
p73
F1.02
sS'velocities_arr_8'
p74
I0
sS'velocities_arr_9'
p75
I0
sg42
I110
sg43
I45
sS'velocities_arr_7'
p76
I0
sS'category_exercise_name_12'
p77
I0
sS'category_exercise_name_10'
p78
I0
sS'category_exercise_name_11'
p79
I0
sg48
I5
sg49
I5
sS'category_exercise_name_0'
p80
I0
sS'category_exercise_name_1'
p81
I0
sS'velocities_arr_10'
p82
I0
sS'category_exercise_name_3'
p83
I0
sS'category_exercise_name_4'
p84
I0
sS'category_exercise_name_5'
p85
I0
sS'category_exercise_name_6'
p86
I0
sS'category_exercise_name_7'
p87
I0
sS'category_exercise_name_8'
p88
I0
sS'category_exercise_name_9'
p89
I0
sg60
I0
sg61
I0
sS'category_exercise_name_2'
p90
I1
sg63
I0
sS'velocities_arr_11'
p91
I0
sg65
I0
sg27
I0
sa(dp92
g4
I1
sS'velocities_arr_0'
p93
F0.75
sS'velocities_arr_2'
p94
F0.77
sS'velocities_arr_3'
p95
F0.78
sS'velocities_arr_4'
p96
F0.73
sS'velocities_arr_5'
p97
I0
sS'velocities_arr_6'
p98
I0
sS'velocities_arr_1'
p99
F0.84
sS'velocities_arr_8'
p100
I0
sS'velocities_arr_9'
p101
I0
sg42
I130
sg43
I135
sS'velocities_arr_7'
p102
I0
sS'category_exercise_name_12'
p103
I0
sS'category_exercise_name_10'
p104
I0
sS'category_exercise_name_11'
p105
I0
sg48
I5
sg49
I5
sS'category_exercise_name_0'
p106
I0
sS'category_exercise_name_1'
p107
I0
sS'velocities_arr_10'
p108
I0
sS'category_exercise_name_3'
p109
I0
sS'category_exercise_name_4'
p110
I0
sS'category_exercise_name_5'
p111
I0
sS'category_exercise_name_6'
p112
I0
sS'category_exercise_name_7'
p113
I0
sS'category_exercise_name_8'
p114
I0
sS'category_exercise_name_9'
p115
I0
sg60
I1
sg61
I0
sS'category_exercise_name_2'
p116
I1
sg63
I0
sS'velocities_arr_11'
p117
I0
sg65
I0
sg27
I0
sa(dp118
g4
I1
sS'velocities_arr_0'
p119
F0.64
sS'velocities_arr_2'
p120
F0.61
sS'velocities_arr_3'
p121
F0.55
sS'velocities_arr_4'
p122
F0.53
sS'velocities_arr_5'
p123
I0
sS'velocities_arr_6'
p124
I0
sS'velocities_arr_1'
p125
F0.59
sS'velocities_arr_8'
p126
I0
sS'velocities_arr_9'
p127
I0
sg42
I137
sg43
I185
sS'velocities_arr_7'
p128
I0
sS'category_exercise_name_12'
p129
I0
sS'category_exercise_name_10'
p130
I0
sS'category_exercise_name_11'
p131
I0
sg48
I5
sg49
I5
sS'category_exercise_name_0'
p132
I0
sS'category_exercise_name_1'
p133
I0
sS'velocities_arr_10'
p134
I0
sS'category_exercise_name_3'
p135
I0
sS'category_exercise_name_4'
p136
I0
sS'category_exercise_name_5'
p137
I0
sS'category_exercise_name_6'
p138
I0
sS'category_exercise_name_7'
p139
I0
sS'category_exercise_name_8'
p140
I0
sS'category_exercise_name_9'
p141
I0
sg60
I2
sg61
I0
sS'category_exercise_name_2'
p142
I1
sg63
I0
sS'velocities_arr_11'
p143
I0
sg65
I0
sg27
I0
sa(dp144
g4
I1
sS'velocities_arr_0'
p145
F0.55
sS'velocities_arr_2'
p146
F0.47
sS'velocities_arr_3'
p147
F0.46
sS'velocities_arr_4'
p148
F0.42
sS'velocities_arr_5'
p149
I0
sS'velocities_arr_6'
p150
I0
sS'velocities_arr_1'
p151
F0.48
sS'velocities_arr_8'
p152
I0
sS'velocities_arr_9'
p153
I0
sg42
I152
sg43
I225
sS'velocities_arr_7'
p154
I0
sS'category_exercise_name_12'
p155
I0
sS'category_exercise_name_10'
p156
I0
sS'category_exercise_name_11'
p157
I0
sg48
I5
sg49
I5
sS'category_exercise_name_0'
p158
I0
sS'category_exercise_name_1'
p159
I0
sS'velocities_arr_10'
p160
I0
sS'category_exercise_name_3'
p161
I0
sS'category_exercise_name_4'
p162
I0
sS'category_exercise_name_5'
p163
I0
sS'category_exercise_name_6'
p164
I0
sS'category_exercise_name_7'
p165
I0
sS'category_exercise_name_8'
p166
I0
sS'category_exercise_name_9'
p167
I0
sg60
I3
sg61
I0
sS'category_exercise_name_2'
p168
I1
sg63
I0
sS'velocities_arr_11'
p169
I0
sg65
I0
sg27
I0
sa(dp170
g4
I1
sS'velocities_arr_0'
p171
F0.5
sS'velocities_arr_2'
p172
F0.42
sS'velocities_arr_3'
p173
F0.37
sS'velocities_arr_4'
p174
F0.36
sS'velocities_arr_5'
p175
I0
sS'velocities_arr_6'
p176
I0
sS'velocities_arr_1'
p177
F0.44
sS'velocities_arr_8'
p178
I0
sS'velocities_arr_9'
p179
I0
sg42
I154
sg43
I245
sS'velocities_arr_7'
p180
I0
sS'category_exercise_name_12'
p181
I0
sS'category_exercise_name_10'
p182
I0
sS'category_exercise_name_11'
p183
I0
sg48
I5
sg49
I5
sS'category_exercise_name_0'
p184
I0
sS'category_exercise_name_1'
p185
I0
sS'velocities_arr_10'
p186
I0
sS'category_exercise_name_3'
p187
I0
sS'category_exercise_name_4'
p188
I0
sS'category_exercise_name_5'
p189
I0
sS'category_exercise_name_6'
p190
I0
sS'category_exercise_name_7'
p191
I0
sS'category_exercise_name_8'
p192
I0
sS'category_exercise_name_9'
p193
I0
sg60
I4
sg61
I0
sS'category_exercise_name_2'
p194
I1
sg63
I0
sS'velocities_arr_11'
p195
I0
sg65
I0
sg27
I0
sa(dp196
g4
I1
sS'velocities_arr_0'
p197
F0.69
sS'velocities_arr_2'
p198
F0.74
sS'velocities_arr_3'
p199
F0.77
sS'velocities_arr_4'
p200
F0.65
sS'velocities_arr_5'
p201
F0.65
sS'velocities_arr_6'
p202
F0.66
sS'velocities_arr_1'
p203
F0.78
sS'velocities_arr_8'
p204
I0
sS'velocities_arr_9'
p205
I0
sg42
I152
sg43
I135
sS'velocities_arr_7'
p206
F0.62
sS'category_exercise_name_12'
p207
I0
sS'category_exercise_name_10'
p208
I0
sS'category_exercise_name_11'
p209
I0
sg48
I8
sg49
I8
sS'category_exercise_name_0'
p210
I0
sS'category_exercise_name_1'
p211
I0
sS'velocities_arr_10'
p212
I0
sS'category_exercise_name_3'
p213
I0
sS'category_exercise_name_4'
p214
I0
sS'category_exercise_name_5'
p215
I0
sS'category_exercise_name_6'
p216
I0
sS'category_exercise_name_7'
p217
I0
sS'category_exercise_name_8'
p218
I0
sS'category_exercise_name_9'
p219
I0
sg60
I5
sg61
I0
sS'category_exercise_name_2'
p220
I1
sg63
I0
sS'velocities_arr_11'
p221
I0
sg65
I0
sg27
I0
sa(dp222
g4
I1
sS'velocities_arr_0'
p223
F0.62
sS'velocities_arr_2'
p224
F0.7
sS'velocities_arr_3'
p225
F0.63
sS'velocities_arr_4'
p226
F0.65
sS'velocities_arr_5'
p227
F0.59
sS'velocities_arr_6'
p228
F0.51
sS'velocities_arr_1'
p229
F0.63
sS'velocities_arr_8'
p230
F0.42
sS'velocities_arr_9'
p231
F0.42
sg42
I121
sg43
I105
sS'velocities_arr_7'
p232
F0.42
sS'category_exercise_name_12'
p233
I0
sS'category_exercise_name_10'
p234
I0
sS'category_exercise_name_11'
p235
I0
sg48
I11
sg49
I11
sS'category_exercise_name_0'
p236
I0
sS'category_exercise_name_1'
p237
I0
sS'velocities_arr_10'
p238
F0.42
sS'category_exercise_name_3'
p239
I1
sS'category_exercise_name_4'
p240
I0
sS'category_exercise_name_5'
p241
I0
sS'category_exercise_name_6'
p242
I0
sS'category_exercise_name_7'
p243
I0
sS'category_exercise_name_8'
p244
I0
sS'category_exercise_name_9'
p245
I0
sg60
I6
sg61
I0
sS'category_exercise_name_2'
p246
I0
sg63
I0
sS'velocities_arr_11'
p247
I0
sg65
I0
sg27
I0
sa(dp248
g4
I1
sg33
I0
sg34
I0
sg35
I0
sg36
I0
sg37
I0
sg38
I0
sg39
I0
sg40
I0
sg41
I0
sg42
I-1
sg43
I115
sg44
I0
sg45
I0
sg46
I0
sg47
I0
sg52
I0
sg48
I-1
sg49
I7
sg50
I0
sg51
I0
sg62
I0
sg53
I1
sg54
I0
sg55
I0
sg56
I0
sg57
I0
sg58
I0
sg59
I0
sg60
I7
sg61
I-1
sg63
I0
sg64
I0
sg65
I-1
sg27
I0
sasS'workouty'
p249
(dp250
S'velocities_arr_0'
p251
F0.57
sS'velocities_arr_1'
p252
F0.62
sS'velocities_arr_2'
p253
F0.56
sS'velocities_arr_3'
p254
F0.57
sS'velocities_arr_4'
p255
F0.55
sS'velocities_arr_5'
p256
F0.48
sS'velocities_arr_6'
p257
F0.42
sS'velocities_arr_7'
p258
I0
sg48
I7
sS'velocities_arr_9'
p259
I0
sg42
I122
sS'velocities_arr_10'
p260
I0
sS'velocities_arr_8'
p261
I0
sg61
I0
sS'velocities_arr_11'
p262
I0
sg65
I0
ssS'userx'
p263
(dp264
S'harris_benedict_bmr'
p265
I-1
sS'height_inches'
p266
F70.0
sS'genetically_gifted'
p267
I0
sS'wrist_width_inches'
p268
I7
sS'years_old'
p269
I31
sS'ankle_width_inches'
p270
I9
sS'sex_is_male'
p271
I1
ssS'dayy'
p272
(dp273
g10
F163.2
sg21
I86
sg6
F57.0
sg25
F7.4
sg15
F82.2
sg18
F4.0
ss.