(dp0
S'dayseriesx'
p1
(lp2
(dp3
S'day_number'
p4
I-1
sS'sleeptime_awake_hrs'
p5
I-1
sS'withings_body_water_percent'
p6
I-1
sS'heart_rate_variability_rmssd'
p7
I-1
sS'sleeptime_deep_rem_hrs'
p8
I-1
sS'withings_body_fat_percent'
p9
I-1
sS'withings_weight_lbs'
p10
I-1
sS'sleeptime_efficiency_percent'
p11
I-1
sS'post_day_calories_in'
p12
I-1
sS'post_day_fat_g'
p13
I-1
sS'sleeptime_bed_time_ampm_index'
p14
I-1
sS'withings_muscle_mass_percent'
p15
I-1
sS'sleeptime_alarm_ring_ampm_index'
p16
I-1
sS'withings_bone_mass_percent'
p17
I-1
sS'sleeptime_snoozed'
p18
I-1
sS'sleeptime_light_sleep_hrs'
p19
I-1
sS'withings_heart_rate_bpm'
p20
I-1
sS'sleeptime_alarm_set_ampm_index'
p21
I-1
sS'post_day_protein_g'
p22
I-1
sS'post_day_wearable_calories_burned'
p23
I-1
sS'withings_pulse_wave_velocity_m_per_s'
p24
I-1
sS'sleeptime_rise_time_ampm_index'
p25
I-1
sS'days_since_last_workout'
p26
I-1
sS'post_day_carbs_g'
p27
I-1
sag3
ag3
ag3
ag3
ag3
ag3
ag3
ag3
ag3
a(dp28
g4
I0
sg5
F2.0166666666666666
sg6
F56.7
sg7
I-1
sg8
F3.2666666666666666
sg9
F14.2
sg10
F161.7
sg11
I72
sg12
I-1
sg13
I-1
sg14
I1439
sg15
F81.8
sg16
I399
sg17
F4.0
sg18
I4
sg19
F1.9833333333333334
sg20
I92
sg21
I425
sg22
I-1
sg23
I-1
sg24
F7.5
sg25
I437
sg26
I0
sg27
I-1
sasS'workoutxseries'
p29
(lp30
(dp31
g4
I1
sS'velocities_arr_0'
p32
I0
sS'velocities_arr_2'
p33
I0
sS'velocities_arr_3'
p34
I0
sS'velocities_arr_4'
p35
I0
sS'velocities_arr_5'
p36
I0
sS'velocities_arr_6'
p37
I0
sS'velocities_arr_1'
p38
I0
sS'velocities_arr_8'
p39
I0
sS'velocities_arr_9'
p40
I0
sS'postset_heartrate'
p41
I-1
sS'weight_lbs'
p42
I-1
sS'velocities_arr_7'
p43
I0
sS'category_exercise_name_10'
p44
I0
sS'reps_completed'
p45
I-1
sS'reps_planned'
p46
I-1
sS'category_exercise_name_0'
p47
I0
sS'category_exercise_name_1'
p48
I0
sS'category_exercise_name_2'
p49
I0
sS'category_exercise_name_3'
p50
I0
sS'category_exercise_name_4'
p51
I0
sS'category_exercise_name_5'
p52
I0
sS'category_exercise_name_6'
p53
I0
sS'category_exercise_name_7'
p54
I0
sS'category_exercise_name_8'
p55
I0
sS'category_exercise_name_9'
p56
I0
sS'set_number_of_the_day'
p57
I11
sS'went_to_failure'
p58
I0
sS'velocities_arr_10'
p59
I0
sS'used_lifting_gear'
p60
I0
sS'velocities_arr_11'
p61
I0
sS'did_pull_muscle'
p62
I0
sg26
I0
sag31
ag31
ag31
ag31
ag31
ag31
ag31
ag31
ag31
ag31
ag31
ag31
ag31
ag31
ag31
ag31
ag31
ag31
ag31
ag31
a(dp63
g4
I1
sS'velocities_arr_0'
p64
I0
sS'velocities_arr_2'
p65
I0
sS'velocities_arr_3'
p66
I0
sS'velocities_arr_4'
p67
I0
sS'velocities_arr_5'
p68
I0
sS'velocities_arr_6'
p69
I0
sS'velocities_arr_1'
p70
I0
sS'velocities_arr_8'
p71
I0
sS'velocities_arr_9'
p72
I0
sg41
I99
sg42
I45
sS'velocities_arr_7'
p73
I0
sS'category_exercise_name_10'
p74
I0
sg45
I5
sg46
I5
sS'category_exercise_name_0'
p75
I0
sS'category_exercise_name_1'
p76
I0
sS'velocities_arr_10'
p77
I0
sS'category_exercise_name_3'
p78
I0
sS'category_exercise_name_4'
p79
I0
sS'category_exercise_name_5'
p80
I0
sS'category_exercise_name_6'
p81
I0
sS'category_exercise_name_7'
p82
I0
sS'category_exercise_name_8'
p83
I0
sS'category_exercise_name_9'
p84
I0
sg57
I0
sg58
I0
sS'category_exercise_name_2'
p85
I1
sg60
I0
sS'velocities_arr_11'
p86
I0
sg62
I0
sg26
I0
sa(dp87
g4
I1
sS'velocities_arr_0'
p88
I0
sS'velocities_arr_2'
p89
I0
sS'velocities_arr_3'
p90
I0
sS'velocities_arr_4'
p91
I0
sS'velocities_arr_5'
p92
I0
sS'velocities_arr_6'
p93
I0
sS'velocities_arr_1'
p94
I0
sS'velocities_arr_8'
p95
I0
sS'velocities_arr_9'
p96
I0
sg41
I121
sg42
I135
sS'velocities_arr_7'
p97
I0
sS'category_exercise_name_10'
p98
I0
sg45
I5
sg46
I5
sS'category_exercise_name_0'
p99
I0
sS'category_exercise_name_1'
p100
I0
sS'velocities_arr_10'
p101
I0
sS'category_exercise_name_3'
p102
I0
sS'category_exercise_name_4'
p103
I0
sS'category_exercise_name_5'
p104
I0
sS'category_exercise_name_6'
p105
I0
sS'category_exercise_name_7'
p106
I0
sS'category_exercise_name_8'
p107
I0
sS'category_exercise_name_9'
p108
I0
sg57
I1
sg58
I0
sS'category_exercise_name_2'
p109
I1
sg60
I0
sS'velocities_arr_11'
p110
I0
sg62
I0
sg26
I0
sa(dp111
g4
I1
sS'velocities_arr_0'
p112
I0
sS'velocities_arr_2'
p113
I0
sS'velocities_arr_3'
p114
I0
sS'velocities_arr_4'
p115
I0
sS'velocities_arr_5'
p116
I0
sS'velocities_arr_6'
p117
I0
sS'velocities_arr_1'
p118
I0
sS'velocities_arr_8'
p119
I0
sS'velocities_arr_9'
p120
I0
sg41
I122
sg42
I185
sS'velocities_arr_7'
p121
I0
sS'category_exercise_name_10'
p122
I0
sg45
I5
sg46
I5
sS'category_exercise_name_0'
p123
I0
sS'category_exercise_name_1'
p124
I0
sS'velocities_arr_10'
p125
I0
sS'category_exercise_name_3'
p126
I0
sS'category_exercise_name_4'
p127
I0
sS'category_exercise_name_5'
p128
I0
sS'category_exercise_name_6'
p129
I0
sS'category_exercise_name_7'
p130
I0
sS'category_exercise_name_8'
p131
I0
sS'category_exercise_name_9'
p132
I0
sg57
I2
sg58
I0
sS'category_exercise_name_2'
p133
I1
sg60
I0
sS'velocities_arr_11'
p134
I0
sg62
I0
sg26
I0
sa(dp135
g4
I1
sS'velocities_arr_0'
p136
I0
sS'velocities_arr_2'
p137
I0
sS'velocities_arr_3'
p138
I0
sS'velocities_arr_4'
p139
I0
sS'velocities_arr_5'
p140
I0
sS'velocities_arr_6'
p141
I0
sS'velocities_arr_1'
p142
I0
sS'velocities_arr_8'
p143
I0
sS'velocities_arr_9'
p144
I0
sg41
I128
sg42
I205
sS'velocities_arr_7'
p145
I0
sS'category_exercise_name_10'
p146
I0
sg45
I5
sg46
I5
sS'category_exercise_name_0'
p147
I0
sS'category_exercise_name_1'
p148
I0
sS'velocities_arr_10'
p149
I0
sS'category_exercise_name_3'
p150
I0
sS'category_exercise_name_4'
p151
I0
sS'category_exercise_name_5'
p152
I0
sS'category_exercise_name_6'
p153
I0
sS'category_exercise_name_7'
p154
I0
sS'category_exercise_name_8'
p155
I0
sS'category_exercise_name_9'
p156
I0
sg57
I3
sg58
I0
sS'category_exercise_name_2'
p157
I1
sg60
I0
sS'velocities_arr_11'
p158
I0
sg62
I0
sg26
I0
sa(dp159
g4
I1
sS'velocities_arr_0'
p160
I0
sS'velocities_arr_2'
p161
I0
sS'velocities_arr_3'
p162
I0
sS'velocities_arr_4'
p163
I0
sS'velocities_arr_5'
p164
I0
sS'velocities_arr_6'
p165
I0
sS'velocities_arr_1'
p166
I0
sS'velocities_arr_8'
p167
I0
sS'velocities_arr_9'
p168
I0
sg41
I136
sg42
I225
sS'velocities_arr_7'
p169
I0
sS'category_exercise_name_10'
p170
I0
sg45
I5
sg46
I5
sS'category_exercise_name_0'
p171
I0
sS'category_exercise_name_1'
p172
I0
sS'velocities_arr_10'
p173
I0
sS'category_exercise_name_3'
p174
I0
sS'category_exercise_name_4'
p175
I0
sS'category_exercise_name_5'
p176
I0
sS'category_exercise_name_6'
p177
I0
sS'category_exercise_name_7'
p178
I0
sS'category_exercise_name_8'
p179
I0
sS'category_exercise_name_9'
p180
I0
sg57
I4
sg58
I0
sS'category_exercise_name_2'
p181
I1
sg60
I0
sS'velocities_arr_11'
p182
I0
sg62
I0
sg26
I0
sa(dp183
g4
I1
sS'velocities_arr_0'
p184
I0
sS'velocities_arr_2'
p185
I0
sS'velocities_arr_3'
p186
I0
sS'velocities_arr_4'
p187
I0
sS'velocities_arr_5'
p188
I0
sS'velocities_arr_6'
p189
I0
sS'velocities_arr_1'
p190
I0
sS'velocities_arr_8'
p191
I0
sS'velocities_arr_9'
p192
I0
sg41
I135
sg42
I245
sS'velocities_arr_7'
p193
I0
sS'category_exercise_name_10'
p194
I0
sg45
I3
sg46
I3
sS'category_exercise_name_0'
p195
I0
sS'category_exercise_name_1'
p196
I0
sS'velocities_arr_10'
p197
I0
sS'category_exercise_name_3'
p198
I0
sS'category_exercise_name_4'
p199
I0
sS'category_exercise_name_5'
p200
I0
sS'category_exercise_name_6'
p201
I0
sS'category_exercise_name_7'
p202
I0
sS'category_exercise_name_8'
p203
I0
sS'category_exercise_name_9'
p204
I0
sg57
I5
sg58
I0
sS'category_exercise_name_2'
p205
I1
sg60
I0
sS'velocities_arr_11'
p206
I0
sg62
I0
sg26
I0
sa(dp207
g4
I1
sS'velocities_arr_0'
p208
I0
sS'velocities_arr_2'
p209
I0
sS'velocities_arr_3'
p210
I0
sS'velocities_arr_4'
p211
I0
sS'velocities_arr_5'
p212
I0
sS'velocities_arr_6'
p213
I0
sS'velocities_arr_1'
p214
I0
sS'velocities_arr_8'
p215
I0
sS'velocities_arr_9'
p216
I0
sg41
I-1
sg42
F161.7
sS'velocities_arr_7'
p217
I0
sS'category_exercise_name_10'
p218
I0
sg45
I5
sg46
I5
sS'category_exercise_name_0'
p219
I0
sS'category_exercise_name_1'
p220
I0
sS'velocities_arr_10'
p221
I0
sS'category_exercise_name_3'
p222
I0
sS'category_exercise_name_4'
p223
I0
sS'category_exercise_name_5'
p224
I1
sS'category_exercise_name_6'
p225
I0
sS'category_exercise_name_7'
p226
I0
sS'category_exercise_name_8'
p227
I0
sS'category_exercise_name_9'
p228
I0
sg57
I6
sg58
I0
sS'category_exercise_name_2'
p229
I0
sg60
I0
sS'velocities_arr_11'
p230
I0
sg62
I0
sg26
I0
sa(dp231
g4
I1
sS'velocities_arr_0'
p232
I0
sS'velocities_arr_2'
p233
I0
sS'velocities_arr_3'
p234
I0
sS'velocities_arr_4'
p235
I0
sS'velocities_arr_5'
p236
I0
sS'velocities_arr_6'
p237
I0
sS'velocities_arr_1'
p238
I0
sS'velocities_arr_8'
p239
I0
sS'velocities_arr_9'
p240
I0
sg41
I-1
sg42
F161.7
sS'velocities_arr_7'
p241
I0
sS'category_exercise_name_10'
p242
I0
sg45
I3
sg46
I3
sS'category_exercise_name_0'
p243
I0
sS'category_exercise_name_1'
p244
I0
sS'velocities_arr_10'
p245
I0
sS'category_exercise_name_3'
p246
I0
sS'category_exercise_name_4'
p247
I0
sS'category_exercise_name_5'
p248
I0
sS'category_exercise_name_6'
p249
I0
sS'category_exercise_name_7'
p250
I0
sS'category_exercise_name_8'
p251
I1
sS'category_exercise_name_9'
p252
I0
sg57
I7
sg58
I0
sS'category_exercise_name_2'
p253
I0
sg60
I0
sS'velocities_arr_11'
p254
I0
sg62
I0
sg26
I0
sa(dp255
g4
I1
sS'velocities_arr_0'
p256
I0
sS'velocities_arr_2'
p257
I0
sS'velocities_arr_3'
p258
I0
sS'velocities_arr_4'
p259
I0
sS'velocities_arr_5'
p260
I0
sS'velocities_arr_6'
p261
I0
sS'velocities_arr_1'
p262
I0
sS'velocities_arr_8'
p263
I0
sS'velocities_arr_9'
p264
I0
sg41
I109
sg42
I95
sS'velocities_arr_7'
p265
I0
sS'category_exercise_name_10'
p266
I0
sg45
I8
sg46
I8
sS'category_exercise_name_0'
p267
I0
sS'category_exercise_name_1'
p268
I0
sS'velocities_arr_10'
p269
I0
sS'category_exercise_name_3'
p270
I1
sS'category_exercise_name_4'
p271
I0
sS'category_exercise_name_5'
p272
I0
sS'category_exercise_name_6'
p273
I0
sS'category_exercise_name_7'
p274
I0
sS'category_exercise_name_8'
p275
I0
sS'category_exercise_name_9'
p276
I0
sg57
I8
sg58
I0
sS'category_exercise_name_2'
p277
I0
sg60
I0
sS'velocities_arr_11'
p278
I0
sg62
I0
sg26
I0
sa(dp279
g4
I1
sS'velocities_arr_0'
p280
I0
sS'velocities_arr_2'
p281
I0
sS'velocities_arr_3'
p282
I0
sS'velocities_arr_4'
p283
I0
sS'velocities_arr_5'
p284
I0
sS'velocities_arr_6'
p285
I0
sS'velocities_arr_1'
p286
I0
sS'velocities_arr_8'
p287
I0
sS'velocities_arr_9'
p288
I0
sg41
I-1
sg42
I105
sS'velocities_arr_7'
p289
I0
sS'category_exercise_name_10'
p290
I0
sg45
I5
sg46
I5
sS'category_exercise_name_0'
p291
I0
sS'category_exercise_name_1'
p292
I0
sS'velocities_arr_10'
p293
I0
sS'category_exercise_name_3'
p294
I1
sS'category_exercise_name_4'
p295
I0
sS'category_exercise_name_5'
p296
I0
sS'category_exercise_name_6'
p297
I0
sS'category_exercise_name_7'
p298
I0
sS'category_exercise_name_8'
p299
I0
sS'category_exercise_name_9'
p300
I0
sg57
I9
sg58
I0
sS'category_exercise_name_2'
p301
I0
sg60
I0
sS'velocities_arr_11'
p302
I0
sg62
I0
sg26
I0
sa(dp303
g4
I1
sS'velocities_arr_0'
p304
I0
sS'velocities_arr_2'
p305
I0
sS'velocities_arr_3'
p306
I0
sS'velocities_arr_4'
p307
I0
sS'velocities_arr_5'
p308
I0
sS'velocities_arr_6'
p309
I0
sS'velocities_arr_1'
p310
I0
sS'velocities_arr_8'
p311
I0
sS'velocities_arr_9'
p312
I0
sg41
I113
sg42
I115
sS'velocities_arr_7'
p313
I0
sS'category_exercise_name_10'
p314
I0
sg45
I3
sg46
I3
sS'category_exercise_name_0'
p315
I0
sS'category_exercise_name_1'
p316
I0
sS'velocities_arr_10'
p317
I0
sS'category_exercise_name_3'
p318
I1
sS'category_exercise_name_4'
p319
I0
sS'category_exercise_name_5'
p320
I0
sS'category_exercise_name_6'
p321
I0
sS'category_exercise_name_7'
p322
I0
sS'category_exercise_name_8'
p323
I0
sS'category_exercise_name_9'
p324
I0
sg57
I10
sg58
I0
sS'category_exercise_name_2'
p325
I0
sg60
I0
sS'velocities_arr_11'
p326
I0
sg62
I0
sg26
I0
sa(dp327
g4
I1
sg32
I0
sg33
I0
sg34
I0
sg35
I0
sg36
I0
sg37
I0
sg38
I0
sg39
I0
sg40
I0
sg41
I-1
sg42
I50
sg43
I0
sg44
I0
sg49
I0
sg45
I-1
sg46
I25
sg47
I0
sg48
I0
sg59
I0
sg50
I0
sg51
I0
sg52
I0
sg53
I0
sg54
I0
sg55
I0
sg56
I1
sg57
I11
sg58
I-1
sg60
I0
sg61
I0
sg62
I-1
sg26
I0
sasS'workouty'
p328
(dp329
S'velocities_arr_0'
p330
I0
sS'velocities_arr_1'
p331
I0
sS'velocities_arr_2'
p332
I0
sS'velocities_arr_3'
p333
I0
sS'velocities_arr_4'
p334
I0
sS'velocities_arr_5'
p335
I0
sS'velocities_arr_6'
p336
I0
sS'velocities_arr_7'
p337
I0
sg45
I12
sS'velocities_arr_9'
p338
I0
sg41
I-1
sS'velocities_arr_10'
p339
I0
sS'velocities_arr_8'
p340
I0
sg58
I0
sS'velocities_arr_11'
p341
I0
sg62
I0
ssS'userx'
p342
(dp343
S'harris_benedict_bmr'
p344
I-1
sS'height_inches'
p345
F70.0
sS'genetically_gifted'
p346
I0
sS'wrist_width_inches'
p347
I7
sS'years_old'
p348
I31
sS'ankle_width_inches'
p349
I9
sS'sex_is_male'
p350
I1
ssS'dayy'
p351
(dp352
g10
F160.6
sg20
I90
sg6
F56.8
sg24
F7.4
sg15
F81.8
sg17
F4.0
ss.