(dp0
S'dayseriesx'
p1
(lp2
(dp3
S'day_number'
p4
I-1
sS'sleeptime_awake_hrs'
p5
I-1
sS'withings_body_water_percent'
p6
I-1
sS'heart_rate_variability_rmssd'
p7
I-1
sS'sleeptime_deep_rem_hrs'
p8
I-1
sS'withings_body_fat_percent'
p9
I-1
sS'withings_weight_lbs'
p10
I-1
sS'sleeptime_efficiency_percent'
p11
I-1
sS'post_day_calories_in'
p12
I-1
sS'post_day_fat_g'
p13
I-1
sS'sleeptime_bed_time_ampm_index'
p14
I-1
sS'withings_muscle_mass_percent'
p15
I-1
sS'days_since_last_recorded_day'
p16
I-1
sS'sleeptime_alarm_ring_ampm_index'
p17
I-1
sS'withings_bone_mass_percent'
p18
I-1
sS'sleeptime_snoozed'
p19
I-1
sS'sleeptime_light_sleep_hrs'
p20
I-1
sS'withings_heart_rate_bpm'
p21
I-1
sS'sleeptime_alarm_set_ampm_index'
p22
I-1
sS'post_day_protein_g'
p23
I-1
sS'post_day_wearable_calories_burned'
p24
I-1
sS'withings_pulse_wave_velocity_m_per_s'
p25
I-1
sS'sleeptime_rise_time_ampm_index'
p26
I-1
sS'days_since_last_workout'
p27
I-1
sS'post_day_carbs_g'
p28
I-1
sag3
ag3
ag3
ag3
ag3
ag3
ag3
ag3
ag3
ag3
ag3
ag3
ag3
ag3
ag3
ag3
ag3
ag3
ag3
ag3
ag3
ag3
a(dp29
g4
I0
sg5
F0.25
sg6
F56.9
sg7
I-1
sg8
F2.1
sg9
F14.0
sg10
F160.8
sg11
I95
sg12
I-1
sg13
I-1
sg14
I74
sg15
F82.0
sg16
F0.0
sg17
I403
sg18
F4.0
sg19
I5
sg20
F3.7333333333333334
sg21
I83
sg22
I425
sg23
I-1
sg24
I-1
sg25
F7.6
sg26
I441
sg27
I0
sg28
I-1
sasS'workoutxseries'
p30
(lp31
(dp32
g4
I1
sS'velocities_arr_0'
p33
I0
sS'velocities_arr_2'
p34
I0
sS'velocities_arr_3'
p35
I0
sS'velocities_arr_4'
p36
I0
sS'velocities_arr_5'
p37
I0
sS'velocities_arr_6'
p38
I0
sS'velocities_arr_1'
p39
I0
sS'velocities_arr_8'
p40
I0
sS'velocities_arr_9'
p41
I0
sS'postset_heartrate'
p42
I-1
sS'weight_lbs'
p43
I-1
sS'velocities_arr_7'
p44
I0
sS'category_exercise_name_12'
p45
I0
sS'category_exercise_name_13'
p46
I0
sS'category_exercise_name_10'
p47
I0
sS'category_exercise_name_11'
p48
I0
sS'reps_completed'
p49
I-1
sS'reps_planned'
p50
I-1
sS'category_exercise_name_0'
p51
I0
sS'category_exercise_name_1'
p52
I0
sS'category_exercise_name_2'
p53
I0
sS'category_exercise_name_3'
p54
I0
sS'category_exercise_name_4'
p55
I0
sS'category_exercise_name_5'
p56
I0
sS'category_exercise_name_6'
p57
I0
sS'category_exercise_name_7'
p58
I0
sS'category_exercise_name_8'
p59
I0
sS'category_exercise_name_9'
p60
I0
sS'set_number_of_the_day'
p61
I11
sS'went_to_failure'
p62
I0
sS'velocities_arr_10'
p63
I0
sS'used_lifting_gear'
p64
I0
sS'velocities_arr_11'
p65
I0
sS'did_pull_muscle'
p66
I0
sg27
I0
sag32
ag32
ag32
ag32
ag32
ag32
ag32
ag32
ag32
ag32
ag32
ag32
ag32
ag32
ag32
ag32
ag32
ag32
ag32
ag32
ag32
ag32
ag32
ag32
ag32
ag32
ag32
ag32
ag32
ag32
ag32
ag32
ag32
ag32
ag32
ag32
ag32
ag32
ag32
ag32
ag32
ag32
ag32
ag32
ag32
ag32
ag32
ag32
ag32
ag32
a(dp67
g4
I1
sS'velocities_arr_0'
p68
F1.31
sS'velocities_arr_2'
p69
F1.12
sS'velocities_arr_3'
p70
F1.04
sS'velocities_arr_4'
p71
I0
sS'velocities_arr_5'
p72
I0
sS'velocities_arr_6'
p73
I0
sS'velocities_arr_1'
p74
F0.7
sS'velocities_arr_8'
p75
I0
sS'velocities_arr_9'
p76
I0
sg42
I88
sg43
I45
sS'velocities_arr_7'
p77
I0
sS'category_exercise_name_12'
p78
I0
sS'category_exercise_name_13'
p79
I0
sS'category_exercise_name_10'
p80
I0
sS'category_exercise_name_11'
p81
I0
sg49
I4
sg50
I4
sS'category_exercise_name_0'
p82
I0
sS'category_exercise_name_1'
p83
I0
sS'velocities_arr_10'
p84
I0
sS'category_exercise_name_3'
p85
I0
sS'category_exercise_name_4'
p86
I0
sS'category_exercise_name_5'
p87
I0
sS'category_exercise_name_6'
p88
I0
sS'category_exercise_name_7'
p89
I0
sS'category_exercise_name_8'
p90
I0
sS'category_exercise_name_9'
p91
I0
sg61
I0
sg62
I0
sS'category_exercise_name_2'
p92
I1
sg64
I0
sS'velocities_arr_11'
p93
I0
sg66
I0
sg27
I0
sa(dp94
g4
I1
sS'velocities_arr_0'
p95
F0.94
sS'velocities_arr_2'
p96
F0.9
sS'velocities_arr_3'
p97
F0.89
sS'velocities_arr_4'
p98
F0.88
sS'velocities_arr_5'
p99
F0.88
sS'velocities_arr_6'
p100
I0
sS'velocities_arr_1'
p101
F0.63
sS'velocities_arr_8'
p102
I0
sS'velocities_arr_9'
p103
I0
sg42
I110
sg43
I95
sS'velocities_arr_7'
p104
I0
sS'category_exercise_name_12'
p105
I0
sS'category_exercise_name_13'
p106
I0
sS'category_exercise_name_10'
p107
I0
sS'category_exercise_name_11'
p108
I0
sg49
I6
sg50
I6
sS'category_exercise_name_0'
p109
I0
sS'category_exercise_name_1'
p110
I0
sS'velocities_arr_10'
p111
I0
sS'category_exercise_name_3'
p112
I0
sS'category_exercise_name_4'
p113
I0
sS'category_exercise_name_5'
p114
I0
sS'category_exercise_name_6'
p115
I0
sS'category_exercise_name_7'
p116
I0
sS'category_exercise_name_8'
p117
I0
sS'category_exercise_name_9'
p118
I0
sg61
I1
sg62
I0
sS'category_exercise_name_2'
p119
I1
sg64
I0
sS'velocities_arr_11'
p120
I0
sg66
I0
sg27
I0
sa(dp121
g4
I1
sS'velocities_arr_0'
p122
F0.88
sS'velocities_arr_2'
p123
F0.86
sS'velocities_arr_3'
p124
F0.86
sS'velocities_arr_4'
p125
F0.86
sS'velocities_arr_5'
p126
F0.85
sS'velocities_arr_6'
p127
I0
sS'velocities_arr_1'
p128
F0.87
sS'velocities_arr_8'
p129
I0
sS'velocities_arr_9'
p130
I0
sg42
I113
sg43
I115
sS'velocities_arr_7'
p131
I0
sS'category_exercise_name_12'
p132
I0
sS'category_exercise_name_13'
p133
I0
sS'category_exercise_name_10'
p134
I0
sS'category_exercise_name_11'
p135
I0
sg49
I6
sg50
I6
sS'category_exercise_name_0'
p136
I0
sS'category_exercise_name_1'
p137
I0
sS'velocities_arr_10'
p138
I0
sS'category_exercise_name_3'
p139
I0
sS'category_exercise_name_4'
p140
I0
sS'category_exercise_name_5'
p141
I0
sS'category_exercise_name_6'
p142
I0
sS'category_exercise_name_7'
p143
I0
sS'category_exercise_name_8'
p144
I0
sS'category_exercise_name_9'
p145
I0
sg61
I2
sg62
I0
sS'category_exercise_name_2'
p146
I1
sg64
I0
sS'velocities_arr_11'
p147
I0
sg66
I0
sg27
I0
sa(dp148
g4
I1
sS'velocities_arr_0'
p149
F0.88
sS'velocities_arr_2'
p150
F0.72
sS'velocities_arr_3'
p151
F0.68
sS'velocities_arr_4'
p152
F0.67
sS'velocities_arr_5'
p153
F0.67
sS'velocities_arr_6'
p154
F0.67
sS'velocities_arr_1'
p155
F0.77
sS'velocities_arr_8'
p156
I0
sS'velocities_arr_9'
p157
I0
sg42
I128
sg43
I135
sS'velocities_arr_7'
p158
I0
sS'category_exercise_name_12'
p159
I0
sS'category_exercise_name_13'
p160
I0
sS'category_exercise_name_10'
p161
I0
sS'category_exercise_name_11'
p162
I0
sg49
I7
sg50
I7
sS'category_exercise_name_0'
p163
I0
sS'category_exercise_name_1'
p164
I0
sS'velocities_arr_10'
p165
I0
sS'category_exercise_name_3'
p166
I0
sS'category_exercise_name_4'
p167
I0
sS'category_exercise_name_5'
p168
I0
sS'category_exercise_name_6'
p169
I0
sS'category_exercise_name_7'
p170
I0
sS'category_exercise_name_8'
p171
I0
sS'category_exercise_name_9'
p172
I0
sg61
I3
sg62
I0
sS'category_exercise_name_2'
p173
I1
sg64
I0
sS'velocities_arr_11'
p174
I0
sg66
I0
sg27
I0
sa(dp175
g4
I1
sS'velocities_arr_0'
p176
F0.66
sS'velocities_arr_2'
p177
F0.58
sS'velocities_arr_3'
p178
F0.54
sS'velocities_arr_4'
p179
F0.54
sS'velocities_arr_5'
p180
I0
sS'velocities_arr_6'
p181
I0
sS'velocities_arr_1'
p182
F0.66
sS'velocities_arr_8'
p183
I0
sS'velocities_arr_9'
p184
I0
sg42
I130
sg43
I155
sS'velocities_arr_7'
p185
I0
sS'category_exercise_name_12'
p186
I0
sS'category_exercise_name_13'
p187
I0
sS'category_exercise_name_10'
p188
I0
sS'category_exercise_name_11'
p189
I0
sg49
I5
sg50
I5
sS'category_exercise_name_0'
p190
I0
sS'category_exercise_name_1'
p191
I0
sS'velocities_arr_10'
p192
I0
sS'category_exercise_name_3'
p193
I0
sS'category_exercise_name_4'
p194
I0
sS'category_exercise_name_5'
p195
I0
sS'category_exercise_name_6'
p196
I0
sS'category_exercise_name_7'
p197
I0
sS'category_exercise_name_8'
p198
I0
sS'category_exercise_name_9'
p199
I0
sg61
I4
sg62
I0
sS'category_exercise_name_2'
p200
I1
sg64
I0
sS'velocities_arr_11'
p201
I0
sg66
I0
sg27
I0
sa(dp202
g4
I1
sS'velocities_arr_0'
p203
F0.61
sS'velocities_arr_2'
p204
I0
sS'velocities_arr_3'
p205
I0
sS'velocities_arr_4'
p206
I0
sS'velocities_arr_5'
p207
I0
sS'velocities_arr_6'
p208
I0
sS'velocities_arr_1'
p209
F0.58
sS'velocities_arr_8'
p210
I0
sS'velocities_arr_9'
p211
I0
sg42
I124
sg43
I195
sS'velocities_arr_7'
p212
I0
sS'category_exercise_name_12'
p213
I0
sS'category_exercise_name_13'
p214
I0
sS'category_exercise_name_10'
p215
I0
sS'category_exercise_name_11'
p216
I0
sg49
I2
sg50
I2
sS'category_exercise_name_0'
p217
I0
sS'category_exercise_name_1'
p218
I0
sS'velocities_arr_10'
p219
I0
sS'category_exercise_name_3'
p220
I0
sS'category_exercise_name_4'
p221
I0
sS'category_exercise_name_5'
p222
I0
sS'category_exercise_name_6'
p223
I0
sS'category_exercise_name_7'
p224
I0
sS'category_exercise_name_8'
p225
I0
sS'category_exercise_name_9'
p226
I0
sg61
I5
sg62
I0
sS'category_exercise_name_2'
p227
I1
sg64
I0
sS'velocities_arr_11'
p228
I0
sg66
I0
sg27
I0
sa(dp229
g4
I1
sS'velocities_arr_0'
p230
F0.6
sS'velocities_arr_2'
p231
F0.57
sS'velocities_arr_3'
p232
I0
sS'velocities_arr_4'
p233
I0
sS'velocities_arr_5'
p234
I0
sS'velocities_arr_6'
p235
I0
sS'velocities_arr_1'
p236
F0.57
sS'velocities_arr_8'
p237
I0
sS'velocities_arr_9'
p238
I0
sg42
I134
sg43
I205
sS'velocities_arr_7'
p239
I0
sS'category_exercise_name_12'
p240
I0
sS'category_exercise_name_13'
p241
I0
sS'category_exercise_name_10'
p242
I0
sS'category_exercise_name_11'
p243
I0
sg49
I3
sg50
I3
sS'category_exercise_name_0'
p244
I0
sS'category_exercise_name_1'
p245
I0
sS'velocities_arr_10'
p246
I0
sS'category_exercise_name_3'
p247
I0
sS'category_exercise_name_4'
p248
I0
sS'category_exercise_name_5'
p249
I0
sS'category_exercise_name_6'
p250
I0
sS'category_exercise_name_7'
p251
I0
sS'category_exercise_name_8'
p252
I0
sS'category_exercise_name_9'
p253
I0
sg61
I6
sg62
I0
sS'category_exercise_name_2'
p254
I1
sg64
I0
sS'velocities_arr_11'
p255
I0
sg66
I0
sg27
I0
sa(dp256
g4
I1
sS'velocities_arr_0'
p257
F0.58
sS'velocities_arr_2'
p258
I0
sS'velocities_arr_3'
p259
I0
sS'velocities_arr_4'
p260
I0
sS'velocities_arr_5'
p261
I0
sS'velocities_arr_6'
p262
I0
sS'velocities_arr_1'
p263
F0.53
sS'velocities_arr_8'
p264
I0
sS'velocities_arr_9'
p265
I0
sg42
I133
sg43
I215
sS'velocities_arr_7'
p266
I0
sS'category_exercise_name_12'
p267
I0
sS'category_exercise_name_13'
p268
I0
sS'category_exercise_name_10'
p269
I0
sS'category_exercise_name_11'
p270
I0
sg49
I2
sg50
I2
sS'category_exercise_name_0'
p271
I0
sS'category_exercise_name_1'
p272
I0
sS'velocities_arr_10'
p273
I0
sS'category_exercise_name_3'
p274
I0
sS'category_exercise_name_4'
p275
I0
sS'category_exercise_name_5'
p276
I0
sS'category_exercise_name_6'
p277
I0
sS'category_exercise_name_7'
p278
I0
sS'category_exercise_name_8'
p279
I0
sS'category_exercise_name_9'
p280
I0
sg61
I7
sg62
I0
sS'category_exercise_name_2'
p281
I1
sg64
I0
sS'velocities_arr_11'
p282
I0
sg66
I0
sg27
I0
sa(dp283
g4
I1
sS'velocities_arr_0'
p284
F0.84
sS'velocities_arr_2'
p285
F0.74
sS'velocities_arr_3'
p286
F0.76
sS'velocities_arr_4'
p287
F0.69
sS'velocities_arr_5'
p288
F0.66
sS'velocities_arr_6'
p289
F0.65
sS'velocities_arr_1'
p290
F0.75
sS'velocities_arr_8'
p291
I0
sS'velocities_arr_9'
p292
I0
sg42
I135
sg43
I135
sS'velocities_arr_7'
p293
F0.65
sS'category_exercise_name_12'
p294
I0
sS'category_exercise_name_13'
p295
I0
sS'category_exercise_name_10'
p296
I0
sS'category_exercise_name_11'
p297
I0
sg49
I8
sg50
I8
sS'category_exercise_name_0'
p298
I0
sS'category_exercise_name_1'
p299
I0
sS'velocities_arr_10'
p300
I0
sS'category_exercise_name_3'
p301
I0
sS'category_exercise_name_4'
p302
I0
sS'category_exercise_name_5'
p303
I0
sS'category_exercise_name_6'
p304
I0
sS'category_exercise_name_7'
p305
I0
sS'category_exercise_name_8'
p306
I0
sS'category_exercise_name_9'
p307
I0
sg61
I8
sg62
I0
sS'category_exercise_name_2'
p308
I1
sg64
I0
sS'velocities_arr_11'
p309
I0
sg66
I0
sg27
I0
sa(dp310
g4
I1
sS'velocities_arr_0'
p311
F1.05
sS'velocities_arr_2'
p312
F0.93
sS'velocities_arr_3'
p313
F1.16
sS'velocities_arr_4'
p314
F1.2
sS'velocities_arr_5'
p315
F1.19
sS'velocities_arr_6'
p316
F1.01
sS'velocities_arr_1'
p317
F1.34
sS'velocities_arr_8'
p318
F1.13
sS'velocities_arr_9'
p319
F0.92
sg42
I99
sg43
I65
sS'velocities_arr_7'
p320
F1.2
sS'category_exercise_name_12'
p321
I0
sS'category_exercise_name_13'
p322
I0
sS'category_exercise_name_10'
p323
I0
sS'category_exercise_name_11'
p324
I0
sg49
I10
sg50
I10
sS'category_exercise_name_0'
p325
I0
sS'category_exercise_name_1'
p326
I0
sS'velocities_arr_10'
p327
I0
sS'category_exercise_name_3'
p328
I1
sS'category_exercise_name_4'
p329
I0
sS'category_exercise_name_5'
p330
I0
sS'category_exercise_name_6'
p331
I0
sS'category_exercise_name_7'
p332
I0
sS'category_exercise_name_8'
p333
I0
sS'category_exercise_name_9'
p334
I0
sg61
I9
sg62
I0
sS'category_exercise_name_2'
p335
I0
sg64
I0
sS'velocities_arr_11'
p336
I0
sg66
I0
sg27
I0
sa(dp337
g4
I1
sS'velocities_arr_0'
p338
F0.75
sS'velocities_arr_2'
p339
F0.65
sS'velocities_arr_3'
p340
F0.67
sS'velocities_arr_4'
p341
F0.71
sS'velocities_arr_5'
p342
F0.66
sS'velocities_arr_6'
p343
F0.66
sS'velocities_arr_1'
p344
F0.73
sS'velocities_arr_8'
p345
I0
sS'velocities_arr_9'
p346
I0
sg42
I104
sg43
I95
sS'velocities_arr_7'
p347
I0
sS'category_exercise_name_12'
p348
I0
sS'category_exercise_name_13'
p349
I0
sS'category_exercise_name_10'
p350
I0
sS'category_exercise_name_11'
p351
I0
sg49
I7
sg50
I7
sS'category_exercise_name_0'
p352
I0
sS'category_exercise_name_1'
p353
I0
sS'velocities_arr_10'
p354
I0
sS'category_exercise_name_3'
p355
I1
sS'category_exercise_name_4'
p356
I0
sS'category_exercise_name_5'
p357
I0
sS'category_exercise_name_6'
p358
I0
sS'category_exercise_name_7'
p359
I0
sS'category_exercise_name_8'
p360
I0
sS'category_exercise_name_9'
p361
I0
sg61
I10
sg62
I0
sS'category_exercise_name_2'
p362
I0
sg64
I0
sS'velocities_arr_11'
p363
I0
sg66
I0
sg27
I0
sa(dp364
g4
I1
sg33
I0
sg34
I0
sg35
I0
sg36
I0
sg37
I0
sg38
I0
sg39
I0
sg40
I0
sg41
I0
sg42
I-1
sg43
I105
sg44
I0
sg45
I0
sg46
I0
sg47
I0
sg48
I0
sg53
I0
sg49
I-1
sg50
I4
sg51
I0
sg52
I0
sg63
I0
sg54
I1
sg55
I0
sg56
I0
sg57
I0
sg58
I0
sg59
I0
sg60
I0
sg61
I11
sg62
I-1
sg64
I0
sg65
I0
sg66
I-1
sg27
I0
sasS'workouty'
p365
(dp366
S'velocities_arr_0'
p367
F0.62
sS'velocities_arr_1'
p368
F0.67
sS'velocities_arr_2'
p369
F0.64
sS'velocities_arr_3'
p370
F0.52
sS'velocities_arr_4'
p371
I0
sS'velocities_arr_5'
p372
I0
sS'velocities_arr_6'
p373
I0
sS'velocities_arr_7'
p374
I0
sg49
I4
sS'velocities_arr_9'
p375
I0
sg42
I109
sS'velocities_arr_10'
p376
I0
sS'velocities_arr_8'
p377
I0
sg62
I0
sS'velocities_arr_11'
p378
I0
sg66
I0
ssS'userx'
p379
(dp380
S'harris_benedict_bmr'
p381
I-1
sS'height_inches'
p382
F70.0
sS'genetically_gifted'
p383
I0
sS'wrist_width_inches'
p384
I7
sS'years_old'
p385
I31
sS'ankle_width_inches'
p386
I9
sS'sex_is_male'
p387
I1
ssS'dayy'
p388
(dp389
g10
F160.7
sg21
I93
sg6
F56.8
sg25
F7.8
sg15
F81.9
sg18
F4.0
sg9
F14.0
ss.