(dp0
S'dayseriesx'
p1
(lp2
(dp3
S'day_number'
p4
I-1
sS'sleeptime_awake_hrs'
p5
I-1
sS'withings_body_water_percent'
p6
I-1
sS'heart_rate_variability_rmssd'
p7
I-1
sS'sleeptime_deep_rem_hrs'
p8
I-1
sS'withings_body_fat_percent'
p9
I-1
sS'withings_weight_lbs'
p10
I-1
sS'sleeptime_efficiency_percent'
p11
I-1
sS'post_day_calories_in'
p12
I-1
sS'post_day_fat_g'
p13
I-1
sS'sleeptime_bed_time_ampm_index'
p14
I-1
sS'withings_muscle_mass_percent'
p15
I-1
sS'days_since_last_recorded_day'
p16
I-1
sS'sleeptime_alarm_ring_ampm_index'
p17
I-1
sS'withings_bone_mass_percent'
p18
I-1
sS'sleeptime_snoozed'
p19
I-1
sS'sleeptime_light_sleep_hrs'
p20
I-1
sS'withings_heart_rate_bpm'
p21
I-1
sS'sleeptime_alarm_set_ampm_index'
p22
I-1
sS'post_day_protein_g'
p23
I-1
sS'post_day_wearable_calories_burned'
p24
I-1
sS'withings_pulse_wave_velocity_m_per_s'
p25
I-1
sS'sleeptime_rise_time_ampm_index'
p26
I-1
sS'days_since_last_workout'
p27
I-1
sS'post_day_carbs_g'
p28
I-1
sag3
ag3
ag3
ag3
ag3
ag3
ag3
ag3
ag3
ag3
ag3
ag3
ag3
ag3
ag3
ag3
ag3
a(dp29
g4
I0
sg5
F0.2833333333333333
sg6
F56.3
sg7
I-1
sg8
F3.4166666666666665
sg9
F14.9
sg10
F162.2
sg11
F96.0
sg12
I-1
sg13
I-1
sg14
I1322
sg15
F81.1
sg16
F0.0
sg17
I401
sg18
F4.0
sg19
I4
sg20
F5.533333333333333
sg21
F82.0
sg22
I425
sg23
I-1
sg24
I-1
sg25
F7.5
sg26
I437
sg27
I0
sg28
I-1
sa(dp30
g4
I1
sg5
F0.9833333333333333
sg6
I-1
sg7
I-1
sg8
F4.433333333333334
sg9
I-1
sg10
I-1
sg11
F88.0
sg12
I-1
sg13
I-1
sg14
I1376
sg15
I-1
sg16
F1.0
sg17
I406
sg18
I-1
sg19
I4
sg20
F2.9166666666666665
sg21
I-1
sg22
I425
sg23
I-1
sg24
I-1
sg25
I-1
sg26
I437
sg27
F1.0
sg28
I-1
sa(dp31
g4
I2
sg5
F1.3
sg6
F55.0
sg7
I-1
sg8
F5.033333333333333
sg9
F17.4
sg10
F162.3
sg11
F85.0
sg12
I-1
sg13
I-1
sg14
I1397
sg15
F78.7
sg16
F1.0
sg17
I1440
sg18
F3.9
sg19
I0
sg20
F2.6333333333333333
sg21
I82
sg22
I610
sg23
I-1
sg24
I-1
sg25
I-1
sg26
I495
sg27
F2.0
sg28
I-1
sa(dp32
g4
I3
sg5
F1.5
sg6
I-1
sg7
I-1
sg8
F3.45
sg9
I-1
sg10
I-1
sg11
F80.0
sg12
I-1
sg13
I-1
sg14
I111
sg15
I-1
sg16
F1.0
sg17
I583
sg18
I-1
sg19
I0
sg20
F2.8833333333333333
sg21
I-1
sg22
I610
sg23
I-1
sg24
I-1
sg25
I-1
sg26
I583
sg27
F3.0
sg28
I-1
sa(dp33
g4
I4
sg5
F1.0666666666666667
sg6
F55.0
sg7
I-1
sg8
F3.75
sg9
F14.6
sg10
F161.8
sg11
F86.0
sg12
I-1
sg13
I-1
sg14
I1396
sg15
F78.7
sg16
F1.0
sg17
I400
sg18
F3.9
sg19
I3
sg20
F3.183333333333333
sg21
I86
sg22
I425
sg23
I-1
sg24
I-1
sg25
F7.7
sg26
I437
sg27
F4.0
sg28
I-1
sa(dp34
g4
I5
sg5
F1.15
sg6
F57.1
sg7
I-1
sg8
F2.3666666666666667
sg9
F13.5
sg10
F161.1
sg11
F82.0
sg12
I-1
sg13
I-1
sg14
I30
sg15
F82.4
sg16
F1.0
sg17
I399
sg18
F4.0
sg19
I3
sg20
F3.25
sg21
I-1
sg22
I425
sg23
I-1
sg24
I-1
sg25
I-1
sg26
I437
sg27
F0.0
sg28
I-1
sasS'workoutxseries'
p35
(lp36
(dp37
g4
I6
sS'velocities_arr_0'
p38
I0
sS'velocities_arr_2'
p39
I0
sS'velocities_arr_3'
p40
I0
sS'velocities_arr_4'
p41
I0
sS'velocities_arr_5'
p42
I0
sS'velocities_arr_6'
p43
I0
sS'velocities_arr_1'
p44
I0
sS'velocities_arr_8'
p45
I0
sS'velocities_arr_9'
p46
I0
sS'postset_heartrate'
p47
I-1
sS'weight_lbs'
p48
I-1
sS'velocities_arr_7'
p49
I0
sS'category_exercise_name_12'
p50
I0
sS'category_exercise_name_13'
p51
I0
sS'category_exercise_name_10'
p52
I0
sS'category_exercise_name_11'
p53
I0
sS'reps_completed'
p54
I-1
sS'reps_planned'
p55
I-1
sS'category_exercise_name_0'
p56
I0
sS'category_exercise_name_1'
p57
I0
sS'category_exercise_name_2'
p58
I0
sS'category_exercise_name_3'
p59
I0
sS'category_exercise_name_4'
p60
I0
sS'category_exercise_name_5'
p61
I0
sS'category_exercise_name_6'
p62
I0
sS'category_exercise_name_7'
p63
I0
sS'category_exercise_name_8'
p64
I0
sS'category_exercise_name_9'
p65
I0
sS'set_number_of_the_day'
p66
I6
sS'went_to_failure'
p67
I0
sS'velocities_arr_10'
p68
I0
sS'used_lifting_gear'
p69
I0
sS'velocities_arr_11'
p70
I0
sS'did_pull_muscle'
p71
I0
sg27
I0
sag37
ag37
ag37
ag37
ag37
ag37
ag37
ag37
ag37
ag37
ag37
ag37
ag37
ag37
ag37
ag37
ag37
ag37
ag37
ag37
ag37
ag37
ag37
ag37
ag37
ag37
ag37
ag37
ag37
ag37
ag37
ag37
ag37
ag37
ag37
ag37
ag37
a(dp72
g4
I1
sS'velocities_arr_0'
p73
F1.04
sS'velocities_arr_2'
p74
I0
sS'velocities_arr_3'
p75
I0
sS'velocities_arr_4'
p76
I0
sS'velocities_arr_5'
p77
I0
sS'velocities_arr_6'
p78
I0
sS'velocities_arr_1'
p79
I0
sS'velocities_arr_8'
p80
I0
sS'velocities_arr_9'
p81
I0
sg47
I105
sg48
I45
sS'velocities_arr_7'
p82
I0
sS'category_exercise_name_12'
p83
I0
sS'category_exercise_name_13'
p84
I0
sS'category_exercise_name_10'
p85
I0
sS'category_exercise_name_11'
p86
I0
sg54
I1
sg55
I1
sS'category_exercise_name_0'
p87
I0
sS'category_exercise_name_1'
p88
I0
sS'velocities_arr_10'
p89
I0
sS'category_exercise_name_3'
p90
I0
sS'category_exercise_name_4'
p91
I0
sS'category_exercise_name_5'
p92
I0
sS'category_exercise_name_6'
p93
I0
sS'category_exercise_name_7'
p94
I0
sS'category_exercise_name_8'
p95
I0
sS'category_exercise_name_9'
p96
I0
sg66
I0
sg67
I0
sS'category_exercise_name_2'
p97
I1
sg69
I0
sS'velocities_arr_11'
p98
I0
sg71
I0
sg27
I0
sa(dp99
g4
I1
sS'velocities_arr_0'
p100
F0.65
sS'velocities_arr_2'
p101
F0.64
sS'velocities_arr_3'
p102
F0.61
sS'velocities_arr_4'
p103
F0.6
sS'velocities_arr_5'
p104
F0.58
sS'velocities_arr_6'
p105
F0.57
sS'velocities_arr_1'
p106
F0.65
sS'velocities_arr_8'
p107
F0.55
sS'velocities_arr_9'
p108
F0.49
sg47
I130
sg48
I160
sS'velocities_arr_7'
p109
F0.55
sS'category_exercise_name_12'
p110
I0
sS'category_exercise_name_13'
p111
I0
sS'category_exercise_name_10'
p112
I0
sS'category_exercise_name_11'
p113
I0
sg54
I11
sg55
I11
sS'category_exercise_name_0'
p114
I0
sS'category_exercise_name_1'
p115
I0
sS'velocities_arr_10'
p116
F0.49
sS'category_exercise_name_3'
p117
I0
sS'category_exercise_name_4'
p118
I0
sS'category_exercise_name_5'
p119
I0
sS'category_exercise_name_6'
p120
I0
sS'category_exercise_name_7'
p121
I0
sS'category_exercise_name_8'
p122
I0
sS'category_exercise_name_9'
p123
I0
sg66
I1
sg67
I0
sS'category_exercise_name_2'
p124
I1
sg69
I0
sS'velocities_arr_11'
p125
I0
sg71
I0
sg27
I0
sa(dp126
g4
I1
sS'velocities_arr_0'
p127
F0.69
sS'velocities_arr_2'
p128
F0.62
sS'velocities_arr_3'
p129
F0.61
sS'velocities_arr_4'
p130
F0.54
sS'velocities_arr_5'
p131
F0.56
sS'velocities_arr_6'
p132
F0.63
sS'velocities_arr_1'
p133
F0.67
sS'velocities_arr_8'
p134
F0.5
sS'velocities_arr_9'
p135
I0
sg47
I135
sg48
I170
sS'velocities_arr_7'
p136
F0.52
sS'category_exercise_name_12'
p137
I0
sS'category_exercise_name_13'
p138
I0
sS'category_exercise_name_10'
p139
I0
sS'category_exercise_name_11'
p140
I0
sg54
I9
sg55
I9
sS'category_exercise_name_0'
p141
I0
sS'category_exercise_name_1'
p142
I0
sS'velocities_arr_10'
p143
I0
sS'category_exercise_name_3'
p144
I0
sS'category_exercise_name_4'
p145
I0
sS'category_exercise_name_5'
p146
I0
sS'category_exercise_name_6'
p147
I0
sS'category_exercise_name_7'
p148
I0
sS'category_exercise_name_8'
p149
I0
sS'category_exercise_name_9'
p150
I0
sg66
I2
sg67
I0
sS'category_exercise_name_2'
p151
I1
sg69
I0
sS'velocities_arr_11'
p152
I0
sg71
I0
sg27
I0
sa(dp153
g4
I1
sS'velocities_arr_0'
p154
F0.52
sS'velocities_arr_2'
p155
I0
sS'velocities_arr_3'
p156
I0
sS'velocities_arr_4'
p157
I0
sS'velocities_arr_5'
p158
I0
sS'velocities_arr_6'
p159
I0
sS'velocities_arr_1'
p160
F0.46
sS'velocities_arr_8'
p161
I0
sS'velocities_arr_9'
p162
I0
sg47
I132
sg48
I210
sS'velocities_arr_7'
p163
I0
sS'category_exercise_name_12'
p164
I0
sS'category_exercise_name_13'
p165
I0
sS'category_exercise_name_10'
p166
I0
sS'category_exercise_name_11'
p167
I0
sg54
I2
sg55
I2
sS'category_exercise_name_0'
p168
I0
sS'category_exercise_name_1'
p169
I0
sS'velocities_arr_10'
p170
I0
sS'category_exercise_name_3'
p171
I0
sS'category_exercise_name_4'
p172
I0
sS'category_exercise_name_5'
p173
I0
sS'category_exercise_name_6'
p174
I0
sS'category_exercise_name_7'
p175
I0
sS'category_exercise_name_8'
p176
I0
sS'category_exercise_name_9'
p177
I0
sg66
I3
sg67
I0
sS'category_exercise_name_2'
p178
I1
sg69
I0
sS'velocities_arr_11'
p179
I0
sg71
I0
sg27
I0
sa(dp180
g4
I1
sS'velocities_arr_0'
p181
F0.48
sS'velocities_arr_2'
p182
F0.42
sS'velocities_arr_3'
p183
F0.46
sS'velocities_arr_4'
p184
I0
sS'velocities_arr_5'
p185
I0
sS'velocities_arr_6'
p186
I0
sS'velocities_arr_1'
p187
F0.46
sS'velocities_arr_8'
p188
I0
sS'velocities_arr_9'
p189
I0
sg47
I133
sg48
I220
sS'velocities_arr_7'
p190
I0
sS'category_exercise_name_12'
p191
I0
sS'category_exercise_name_13'
p192
I0
sS'category_exercise_name_10'
p193
I0
sS'category_exercise_name_11'
p194
I0
sg54
I3
sg55
I12
sS'category_exercise_name_0'
p195
I0
sS'category_exercise_name_1'
p196
I0
sS'velocities_arr_10'
p197
I0
sS'category_exercise_name_3'
p198
I0
sS'category_exercise_name_4'
p199
I0
sS'category_exercise_name_5'
p200
I0
sS'category_exercise_name_6'
p201
I0
sS'category_exercise_name_7'
p202
I0
sS'category_exercise_name_8'
p203
I0
sS'category_exercise_name_9'
p204
I0
sg66
I4
sg67
I0
sS'category_exercise_name_2'
p205
I1
sg69
I0
sS'velocities_arr_11'
p206
I0
sg71
I0
sg27
I0
sa(dp207
g4
I1
sS'velocities_arr_0'
p208
F0.86
sS'velocities_arr_2'
p209
I0
sS'velocities_arr_3'
p210
I0
sS'velocities_arr_4'
p211
I0
sS'velocities_arr_5'
p212
I0
sS'velocities_arr_6'
p213
I0
sS'velocities_arr_1'
p214
F0.83
sS'velocities_arr_8'
p215
I0
sS'velocities_arr_9'
p216
I0
sg47
I125
sg48
I115
sS'velocities_arr_7'
p217
I0
sS'category_exercise_name_12'
p218
I0
sS'category_exercise_name_13'
p219
I0
sS'category_exercise_name_10'
p220
I0
sS'category_exercise_name_11'
p221
I0
sg54
I2
sg55
I2
sS'category_exercise_name_0'
p222
I0
sS'category_exercise_name_1'
p223
I0
sS'velocities_arr_10'
p224
I0
sS'category_exercise_name_3'
p225
I0
sS'category_exercise_name_4'
p226
I0
sS'category_exercise_name_5'
p227
I0
sS'category_exercise_name_6'
p228
I0
sS'category_exercise_name_7'
p229
I0
sS'category_exercise_name_8'
p230
I0
sS'category_exercise_name_9'
p231
I0
sg66
I5
sg67
I0
sS'category_exercise_name_2'
p232
I1
sg69
I0
sS'velocities_arr_11'
p233
I0
sg71
I0
sg27
I0
sa(dp234
g4
I1
sS'velocities_arr_0'
p235
F0.98
sS'velocities_arr_2'
p236
F0.91
sS'velocities_arr_3'
p237
F0.92
sS'velocities_arr_4'
p238
F0.92
sS'velocities_arr_5'
p239
F0.92
sS'velocities_arr_6'
p240
F0.92
sS'velocities_arr_1'
p241
F0.83
sS'velocities_arr_8'
p242
I0
sS'velocities_arr_9'
p243
I0
sg47
I118
sg48
I55
sS'velocities_arr_7'
p244
F0.92
sS'category_exercise_name_12'
p245
I0
sS'category_exercise_name_13'
p246
I0
sS'category_exercise_name_10'
p247
I0
sS'category_exercise_name_11'
p248
I0
sg54
I8
sg55
I8
sS'category_exercise_name_0'
p249
I0
sS'category_exercise_name_1'
p250
I0
sS'velocities_arr_10'
p251
I0
sS'category_exercise_name_3'
p252
I0
sS'category_exercise_name_4'
p253
I0
sS'category_exercise_name_5'
p254
I0
sS'category_exercise_name_6'
p255
I0
sS'category_exercise_name_7'
p256
I0
sS'category_exercise_name_8'
p257
I0
sS'category_exercise_name_9'
p258
I0
sg66
I6
sg67
I0
sS'category_exercise_name_2'
p259
I1
sg69
I0
sS'velocities_arr_11'
p260
I0
sg71
I0
sg27
I0
sa(dp261
g4
I1
sS'velocities_arr_0'
p262
I0
sS'velocities_arr_2'
p263
I0
sS'velocities_arr_3'
p264
I0
sS'velocities_arr_4'
p265
I0
sS'velocities_arr_5'
p266
I0
sS'velocities_arr_6'
p267
I0
sS'velocities_arr_1'
p268
I0
sS'velocities_arr_8'
p269
I0
sS'velocities_arr_9'
p270
I0
sg47
I120
sg48
I75
sS'velocities_arr_7'
p271
I0
sS'category_exercise_name_12'
p272
I0
sS'category_exercise_name_13'
p273
I0
sS'category_exercise_name_10'
p274
I0
sS'category_exercise_name_11'
p275
I0
sg54
I12
sg55
I13
sS'category_exercise_name_0'
p276
I0
sS'category_exercise_name_1'
p277
I0
sS'velocities_arr_10'
p278
I0
sS'category_exercise_name_3'
p279
I0
sS'category_exercise_name_4'
p280
I0
sS'category_exercise_name_5'
p281
I0
sS'category_exercise_name_6'
p282
I0
sS'category_exercise_name_7'
p283
I0
sS'category_exercise_name_8'
p284
I0
sS'category_exercise_name_9'
p285
I0
sg66
I7
sg67
I0
sS'category_exercise_name_2'
p286
I1
sg69
I0
sS'velocities_arr_11'
p287
I0
sg71
I0
sg27
I0
sa(dp288
g4
I1
sS'velocities_arr_0'
p289
I0
sS'velocities_arr_2'
p290
I0
sS'velocities_arr_3'
p291
I0
sS'velocities_arr_4'
p292
I0
sS'velocities_arr_5'
p293
I0
sS'velocities_arr_6'
p294
I0
sS'velocities_arr_1'
p295
I0
sS'velocities_arr_8'
p296
I0
sS'velocities_arr_9'
p297
I0
sg47
I120
sg48
I135
sS'velocities_arr_7'
p298
I0
sS'category_exercise_name_12'
p299
I0
sS'category_exercise_name_13'
p300
I0
sS'category_exercise_name_10'
p301
I0
sS'category_exercise_name_11'
p302
I0
sg54
I7
sg55
I7
sS'category_exercise_name_0'
p303
I0
sS'category_exercise_name_1'
p304
I0
sS'velocities_arr_10'
p305
I0
sS'category_exercise_name_3'
p306
I0
sS'category_exercise_name_4'
p307
I0
sS'category_exercise_name_5'
p308
I0
sS'category_exercise_name_6'
p309
I0
sS'category_exercise_name_7'
p310
I0
sS'category_exercise_name_8'
p311
I0
sS'category_exercise_name_9'
p312
I0
sg66
I8
sg67
I0
sS'category_exercise_name_2'
p313
I1
sg69
I0
sS'velocities_arr_11'
p314
I0
sg71
I0
sg27
I0
sa(dp315
g4
I1
sS'velocities_arr_0'
p316
I0
sS'velocities_arr_2'
p317
I0
sS'velocities_arr_3'
p318
I0
sS'velocities_arr_4'
p319
I0
sS'velocities_arr_5'
p320
I0
sS'velocities_arr_6'
p321
I0
sS'velocities_arr_1'
p322
I0
sS'velocities_arr_8'
p323
I0
sS'velocities_arr_9'
p324
I0
sg47
I120
sg48
I135
sS'velocities_arr_7'
p325
I0
sS'category_exercise_name_12'
p326
I0
sS'category_exercise_name_13'
p327
I0
sS'category_exercise_name_10'
p328
I0
sS'category_exercise_name_11'
p329
I0
sg54
I7
sg55
I7
sS'category_exercise_name_0'
p330
I0
sS'category_exercise_name_1'
p331
I0
sS'velocities_arr_10'
p332
I0
sS'category_exercise_name_3'
p333
I0
sS'category_exercise_name_4'
p334
I0
sS'category_exercise_name_5'
p335
I0
sS'category_exercise_name_6'
p336
I0
sS'category_exercise_name_7'
p337
I0
sS'category_exercise_name_8'
p338
I0
sS'category_exercise_name_9'
p339
I0
sg66
I9
sg67
I0
sS'category_exercise_name_2'
p340
I1
sg69
I0
sS'velocities_arr_11'
p341
I0
sg71
I0
sg27
I0
sa(dp342
g4
I1
sS'velocities_arr_0'
p343
I0
sS'velocities_arr_2'
p344
I0
sS'velocities_arr_3'
p345
I0
sS'velocities_arr_4'
p346
I0
sS'velocities_arr_5'
p347
I0
sS'velocities_arr_6'
p348
I0
sS'velocities_arr_1'
p349
I0
sS'velocities_arr_8'
p350
I0
sS'velocities_arr_9'
p351
I0
sg47
I140
sg48
I195
sS'velocities_arr_7'
p352
I0
sS'category_exercise_name_12'
p353
I0
sS'category_exercise_name_13'
p354
I0
sS'category_exercise_name_10'
p355
I0
sS'category_exercise_name_11'
p356
I0
sg54
I3
sg55
I3
sS'category_exercise_name_0'
p357
I0
sS'category_exercise_name_1'
p358
I0
sS'velocities_arr_10'
p359
I0
sS'category_exercise_name_3'
p360
I0
sS'category_exercise_name_4'
p361
I0
sS'category_exercise_name_5'
p362
I0
sS'category_exercise_name_6'
p363
I0
sS'category_exercise_name_7'
p364
I0
sS'category_exercise_name_8'
p365
I0
sS'category_exercise_name_9'
p366
I0
sg66
I10
sg67
I0
sS'category_exercise_name_2'
p367
I1
sg69
I0
sS'velocities_arr_11'
p368
I0
sg71
I0
sg27
I0
sa(dp369
g4
I1
sS'velocities_arr_0'
p370
F0.0
sS'velocities_arr_2'
p371
I0
sS'velocities_arr_3'
p372
I0
sS'velocities_arr_4'
p373
I0
sS'velocities_arr_5'
p374
I0
sS'velocities_arr_6'
p375
I0
sS'velocities_arr_1'
p376
I0
sS'velocities_arr_8'
p377
I0
sS'velocities_arr_9'
p378
I0
sg47
I140
sg48
I316
sS'velocities_arr_7'
p379
I0
sS'category_exercise_name_12'
p380
I0
sS'category_exercise_name_13'
p381
I0
sS'category_exercise_name_10'
p382
I0
sS'category_exercise_name_11'
p383
I0
sg54
I0
sg55
I8
sS'category_exercise_name_0'
p384
I0
sS'category_exercise_name_1'
p385
I0
sS'velocities_arr_10'
p386
I0
sS'category_exercise_name_3'
p387
I0
sS'category_exercise_name_4'
p388
I0
sS'category_exercise_name_5'
p389
I0
sS'category_exercise_name_6'
p390
I0
sS'category_exercise_name_7'
p391
I0
sS'category_exercise_name_8'
p392
I0
sS'category_exercise_name_9'
p393
I0
sg66
I11
sg67
I1
sS'category_exercise_name_2'
p394
I1
sg69
I0
sS'velocities_arr_11'
p395
I0
sg71
I0
sg27
I0
sa(dp396
g4
I1
sS'velocities_arr_0'
p397
F0.0
sS'velocities_arr_2'
p398
I0
sS'velocities_arr_3'
p399
I0
sS'velocities_arr_4'
p400
I0
sS'velocities_arr_5'
p401
I0
sS'velocities_arr_6'
p402
I0
sS'velocities_arr_1'
p403
I0
sS'velocities_arr_8'
p404
I0
sS'velocities_arr_9'
p405
I0
sg47
I140
sg48
I1000
sS'velocities_arr_7'
p406
I0
sS'category_exercise_name_12'
p407
I0
sS'category_exercise_name_13'
p408
I0
sS'category_exercise_name_10'
p409
I0
sS'category_exercise_name_11'
p410
I0
sg54
I0
sg55
I14
sS'category_exercise_name_0'
p411
I0
sS'category_exercise_name_1'
p412
I0
sS'velocities_arr_10'
p413
I0
sS'category_exercise_name_3'
p414
I0
sS'category_exercise_name_4'
p415
I0
sS'category_exercise_name_5'
p416
I0
sS'category_exercise_name_6'
p417
I0
sS'category_exercise_name_7'
p418
I0
sS'category_exercise_name_8'
p419
I0
sS'category_exercise_name_9'
p420
I0
sg66
I12
sg67
I1
sS'category_exercise_name_2'
p421
I1
sg69
I0
sS'velocities_arr_11'
p422
I0
sg71
I0
sg27
I0
sa(dp423
g4
I1
sS'velocities_arr_0'
p424
F0.0
sS'velocities_arr_2'
p425
I0
sS'velocities_arr_3'
p426
I0
sS'velocities_arr_4'
p427
I0
sS'velocities_arr_5'
p428
I0
sS'velocities_arr_6'
p429
I0
sS'velocities_arr_1'
p430
I0
sS'velocities_arr_8'
p431
I0
sS'velocities_arr_9'
p432
I0
sg47
I140
sg48
I1000
sS'velocities_arr_7'
p433
I0
sS'category_exercise_name_12'
p434
I0
sS'category_exercise_name_13'
p435
I0
sS'category_exercise_name_10'
p436
I0
sS'category_exercise_name_11'
p437
I0
sg54
I0
sg55
I6
sS'category_exercise_name_0'
p438
I0
sS'category_exercise_name_1'
p439
I0
sS'velocities_arr_10'
p440
I0
sS'category_exercise_name_3'
p441
I0
sS'category_exercise_name_4'
p442
I0
sS'category_exercise_name_5'
p443
I0
sS'category_exercise_name_6'
p444
I0
sS'category_exercise_name_7'
p445
I0
sS'category_exercise_name_8'
p446
I0
sS'category_exercise_name_9'
p447
I0
sg66
I13
sg67
I1
sS'category_exercise_name_2'
p448
I1
sg69
I0
sS'velocities_arr_11'
p449
I0
sg71
I0
sg27
I0
sa(dp450
g4
I1
sS'velocities_arr_0'
p451
F0.0
sS'velocities_arr_2'
p452
I0
sS'velocities_arr_3'
p453
I0
sS'velocities_arr_4'
p454
I0
sS'velocities_arr_5'
p455
I0
sS'velocities_arr_6'
p456
I0
sS'velocities_arr_1'
p457
I0
sS'velocities_arr_8'
p458
I0
sS'velocities_arr_9'
p459
I0
sg47
I140
sg48
I1000
sS'velocities_arr_7'
p460
I0
sS'category_exercise_name_12'
p461
I0
sS'category_exercise_name_13'
p462
I0
sS'category_exercise_name_10'
p463
I0
sS'category_exercise_name_11'
p464
I0
sg54
I0
sg55
I7
sS'category_exercise_name_0'
p465
I0
sS'category_exercise_name_1'
p466
I0
sS'velocities_arr_10'
p467
I0
sS'category_exercise_name_3'
p468
I0
sS'category_exercise_name_4'
p469
I0
sS'category_exercise_name_5'
p470
I0
sS'category_exercise_name_6'
p471
I0
sS'category_exercise_name_7'
p472
I0
sS'category_exercise_name_8'
p473
I0
sS'category_exercise_name_9'
p474
I0
sg66
I14
sg67
I1
sS'category_exercise_name_2'
p475
I1
sg69
I0
sS'velocities_arr_11'
p476
I0
sg71
I0
sg27
I0
sa(dp477
g4
I1
sS'velocities_arr_0'
p478
F0.0
sS'velocities_arr_2'
p479
I0
sS'velocities_arr_3'
p480
I0
sS'velocities_arr_4'
p481
I0
sS'velocities_arr_5'
p482
I0
sS'velocities_arr_6'
p483
I0
sS'velocities_arr_1'
p484
I0
sS'velocities_arr_8'
p485
I0
sS'velocities_arr_9'
p486
I0
sg47
I140
sg48
I950
sS'velocities_arr_7'
p487
I0
sS'category_exercise_name_12'
p488
I0
sS'category_exercise_name_13'
p489
I0
sS'category_exercise_name_10'
p490
I0
sS'category_exercise_name_11'
p491
I0
sg54
I0
sg55
I1
sS'category_exercise_name_0'
p492
I0
sS'category_exercise_name_1'
p493
I0
sS'velocities_arr_10'
p494
I0
sS'category_exercise_name_3'
p495
I0
sS'category_exercise_name_4'
p496
I0
sS'category_exercise_name_5'
p497
I0
sS'category_exercise_name_6'
p498
I0
sS'category_exercise_name_7'
p499
I0
sS'category_exercise_name_8'
p500
I0
sS'category_exercise_name_9'
p501
I0
sg66
I15
sg67
I1
sS'category_exercise_name_2'
p502
I1
sg69
I0
sS'velocities_arr_11'
p503
I0
sg71
I0
sg27
I0
sa(dp504
g4
I1
sS'velocities_arr_0'
p505
F0.0
sS'velocities_arr_2'
p506
I0
sS'velocities_arr_3'
p507
I0
sS'velocities_arr_4'
p508
I0
sS'velocities_arr_5'
p509
I0
sS'velocities_arr_6'
p510
I0
sS'velocities_arr_1'
p511
I0
sS'velocities_arr_8'
p512
I0
sS'velocities_arr_9'
p513
I0
sg47
I140
sg48
I990
sS'velocities_arr_7'
p514
I0
sS'category_exercise_name_12'
p515
I0
sS'category_exercise_name_13'
p516
I0
sS'category_exercise_name_10'
p517
I0
sS'category_exercise_name_11'
p518
I0
sg54
I0
sg55
I13
sS'category_exercise_name_0'
p519
I0
sS'category_exercise_name_1'
p520
I0
sS'velocities_arr_10'
p521
I0
sS'category_exercise_name_3'
p522
I0
sS'category_exercise_name_4'
p523
I0
sS'category_exercise_name_5'
p524
I0
sS'category_exercise_name_6'
p525
I0
sS'category_exercise_name_7'
p526
I0
sS'category_exercise_name_8'
p527
I0
sS'category_exercise_name_9'
p528
I0
sg66
I16
sg67
I1
sS'category_exercise_name_2'
p529
I1
sg69
I0
sS'velocities_arr_11'
p530
I0
sg71
I0
sg27
I0
sa(dp531
g4
I1
sS'velocities_arr_0'
p532
F0.0
sS'velocities_arr_2'
p533
I0
sS'velocities_arr_3'
p534
I0
sS'velocities_arr_4'
p535
I0
sS'velocities_arr_5'
p536
I0
sS'velocities_arr_6'
p537
I0
sS'velocities_arr_1'
p538
I0
sS'velocities_arr_8'
p539
I0
sS'velocities_arr_9'
p540
I0
sg47
I140
sg48
I975
sS'velocities_arr_7'
p541
I0
sS'category_exercise_name_12'
p542
I0
sS'category_exercise_name_13'
p543
I0
sS'category_exercise_name_10'
p544
I0
sS'category_exercise_name_11'
p545
I0
sg54
I0
sg55
I14
sS'category_exercise_name_0'
p546
I0
sS'category_exercise_name_1'
p547
I0
sS'velocities_arr_10'
p548
I0
sS'category_exercise_name_3'
p549
I0
sS'category_exercise_name_4'
p550
I0
sS'category_exercise_name_5'
p551
I0
sS'category_exercise_name_6'
p552
I0
sS'category_exercise_name_7'
p553
I0
sS'category_exercise_name_8'
p554
I0
sS'category_exercise_name_9'
p555
I0
sg66
I17
sg67
I1
sS'category_exercise_name_2'
p556
I1
sg69
I0
sS'velocities_arr_11'
p557
I0
sg71
I0
sg27
I0
sa(dp558
g4
I6
sS'velocities_arr_0'
p559
F0.51
sS'velocities_arr_2'
p560
F0.71
sS'velocities_arr_3'
p561
F0.92
sS'velocities_arr_4'
p562
I0
sS'velocities_arr_5'
p563
I0
sS'velocities_arr_6'
p564
I0
sS'velocities_arr_1'
p565
F0.6
sS'velocities_arr_8'
p566
I0
sS'velocities_arr_9'
p567
I0
sg47
I100
sg48
I45
sS'velocities_arr_7'
p568
I0
sS'category_exercise_name_12'
p569
I0
sS'category_exercise_name_13'
p570
I0
sS'category_exercise_name_10'
p571
I0
sS'category_exercise_name_11'
p572
I0
sg54
I4
sg55
I4
sS'category_exercise_name_0'
p573
I0
sS'category_exercise_name_1'
p574
I0
sS'velocities_arr_10'
p575
I0
sS'category_exercise_name_3'
p576
I0
sS'category_exercise_name_4'
p577
I0
sS'category_exercise_name_5'
p578
I0
sS'category_exercise_name_6'
p579
I0
sS'category_exercise_name_7'
p580
I0
sS'category_exercise_name_8'
p581
I0
sS'category_exercise_name_9'
p582
I0
sg66
I0
sg67
I0
sS'category_exercise_name_2'
p583
I1
sg69
I0
sS'velocities_arr_11'
p584
I0
sg71
I0
sg27
F0.0
sa(dp585
g4
I6
sS'velocities_arr_0'
p586
F0.74
sS'velocities_arr_2'
p587
F0.61
sS'velocities_arr_3'
p588
F0.63
sS'velocities_arr_4'
p589
F0.63
sS'velocities_arr_5'
p590
I0
sS'velocities_arr_6'
p591
I0
sS'velocities_arr_1'
p592
F0.69
sS'velocities_arr_8'
p593
I0
sS'velocities_arr_9'
p594
I0
sg47
I110
sg48
I135
sS'velocities_arr_7'
p595
I0
sS'category_exercise_name_12'
p596
I0
sS'category_exercise_name_13'
p597
I0
sS'category_exercise_name_10'
p598
I0
sS'category_exercise_name_11'
p599
I0
sg54
I5
sg55
I5
sS'category_exercise_name_0'
p600
I0
sS'category_exercise_name_1'
p601
I0
sS'velocities_arr_10'
p602
I0
sS'category_exercise_name_3'
p603
I0
sS'category_exercise_name_4'
p604
I0
sS'category_exercise_name_5'
p605
I0
sS'category_exercise_name_6'
p606
I0
sS'category_exercise_name_7'
p607
I0
sS'category_exercise_name_8'
p608
I0
sS'category_exercise_name_9'
p609
I0
sg66
I1
sg67
I0
sS'category_exercise_name_2'
p610
I1
sg69
I0
sS'velocities_arr_11'
p611
I0
sg71
I0
sg27
F0.0
sa(dp612
g4
I6
sS'velocities_arr_0'
p613
F0.64
sS'velocities_arr_2'
p614
F0.59
sS'velocities_arr_3'
p615
F0.57
sS'velocities_arr_4'
p616
F0.57
sS'velocities_arr_5'
p617
I0
sS'velocities_arr_6'
p618
I0
sS'velocities_arr_1'
p619
F0.6
sS'velocities_arr_8'
p620
I0
sS'velocities_arr_9'
p621
I0
sg47
I110
sg48
I155
sS'velocities_arr_7'
p622
I0
sS'category_exercise_name_12'
p623
I0
sS'category_exercise_name_13'
p624
I0
sS'category_exercise_name_10'
p625
I0
sS'category_exercise_name_11'
p626
I0
sg54
I5
sg55
I5
sS'category_exercise_name_0'
p627
I0
sS'category_exercise_name_1'
p628
I0
sS'velocities_arr_10'
p629
I0
sS'category_exercise_name_3'
p630
I0
sS'category_exercise_name_4'
p631
I0
sS'category_exercise_name_5'
p632
I0
sS'category_exercise_name_6'
p633
I0
sS'category_exercise_name_7'
p634
I0
sS'category_exercise_name_8'
p635
I0
sS'category_exercise_name_9'
p636
I0
sg66
I2
sg67
I0
sS'category_exercise_name_2'
p637
I1
sg69
I0
sS'velocities_arr_11'
p638
I0
sg71
I0
sg27
F0.0
sa(dp639
g4
I6
sS'velocities_arr_0'
p640
F0.61
sS'velocities_arr_2'
p641
F0.59
sS'velocities_arr_3'
p642
F0.51
sS'velocities_arr_4'
p643
F0.52
sS'velocities_arr_5'
p644
I0
sS'velocities_arr_6'
p645
I0
sS'velocities_arr_1'
p646
F0.58
sS'velocities_arr_8'
p647
I0
sS'velocities_arr_9'
p648
I0
sg47
I116
sg48
I185
sS'velocities_arr_7'
p649
I0
sS'category_exercise_name_12'
p650
I0
sS'category_exercise_name_13'
p651
I0
sS'category_exercise_name_10'
p652
I0
sS'category_exercise_name_11'
p653
I0
sg54
I5
sg55
I5
sS'category_exercise_name_0'
p654
I0
sS'category_exercise_name_1'
p655
I0
sS'velocities_arr_10'
p656
I0
sS'category_exercise_name_3'
p657
I0
sS'category_exercise_name_4'
p658
I0
sS'category_exercise_name_5'
p659
I0
sS'category_exercise_name_6'
p660
I0
sS'category_exercise_name_7'
p661
I0
sS'category_exercise_name_8'
p662
I0
sS'category_exercise_name_9'
p663
I0
sg66
I3
sg67
I0
sS'category_exercise_name_2'
p664
I1
sg69
I0
sS'velocities_arr_11'
p665
I0
sg71
I0
sg27
F0.0
sa(dp666
g4
I6
sS'velocities_arr_0'
p667
F0.52
sS'velocities_arr_2'
p668
F0.48
sS'velocities_arr_3'
p669
F0.6
sS'velocities_arr_4'
p670
F0.43
sS'velocities_arr_5'
p671
I0
sS'velocities_arr_6'
p672
I0
sS'velocities_arr_1'
p673
F0.6
sS'velocities_arr_8'
p674
I0
sS'velocities_arr_9'
p675
I0
sg47
I129
sg48
I205
sS'velocities_arr_7'
p676
I0
sS'category_exercise_name_12'
p677
I0
sS'category_exercise_name_13'
p678
I0
sS'category_exercise_name_10'
p679
I0
sS'category_exercise_name_11'
p680
I0
sg54
I5
sg55
I5
sS'category_exercise_name_0'
p681
I0
sS'category_exercise_name_1'
p682
I0
sS'velocities_arr_10'
p683
I0
sS'category_exercise_name_3'
p684
I0
sS'category_exercise_name_4'
p685
I0
sS'category_exercise_name_5'
p686
I0
sS'category_exercise_name_6'
p687
I0
sS'category_exercise_name_7'
p688
I0
sS'category_exercise_name_8'
p689
I0
sS'category_exercise_name_9'
p690
I0
sg66
I4
sg67
I0
sS'category_exercise_name_2'
p691
I1
sg69
I0
sS'velocities_arr_11'
p692
I0
sg71
I0
sg27
F0.0
sa(dp693
g4
I6
sS'velocities_arr_0'
p694
I0
sS'velocities_arr_2'
p695
I0
sS'velocities_arr_3'
p696
I0
sS'velocities_arr_4'
p697
I0
sS'velocities_arr_5'
p698
I0
sS'velocities_arr_6'
p699
I0
sS'velocities_arr_1'
p700
I0
sS'velocities_arr_8'
p701
I0
sS'velocities_arr_9'
p702
I0
sg47
I138
sg48
I162
sS'velocities_arr_7'
p703
I0
sS'category_exercise_name_12'
p704
I0
sS'category_exercise_name_13'
p705
I0
sS'category_exercise_name_10'
p706
I0
sS'category_exercise_name_11'
p707
I1
sg54
I5
sg55
I5
sS'category_exercise_name_0'
p708
I0
sS'category_exercise_name_1'
p709
I0
sS'velocities_arr_10'
p710
I0
sS'category_exercise_name_3'
p711
I0
sS'category_exercise_name_4'
p712
I0
sS'category_exercise_name_5'
p713
I0
sS'category_exercise_name_6'
p714
I0
sS'category_exercise_name_7'
p715
I0
sS'category_exercise_name_8'
p716
I0
sS'category_exercise_name_9'
p717
I0
sg66
I5
sg67
I0
sS'category_exercise_name_2'
p718
I0
sg69
I0
sS'velocities_arr_11'
p719
I0
sg71
I0
sg27
F0.0
sa(dp720
g4
I6
sg38
I0
sg39
I0
sg40
I0
sg41
I0
sg42
I0
sg43
I0
sg44
I0
sg45
I0
sg46
I0
sg47
I-1
sg48
I162
sg49
I0
sg50
I0
sg51
I0
sg52
I0
sg53
I1
sg58
I0
sg54
I-1
sg55
I2
sg56
I0
sg57
I0
sg68
I0
sg59
I0
sg60
I0
sg61
I0
sg62
I0
sg63
I0
sg64
I0
sg65
I0
sg66
I6
sg67
I-1
sg69
I0
sg70
I0
sg71
I-1
sg27
F0.0
sasS'workouty'
p721
(dp722
S'velocities_arr_0'
p723
I0
sS'velocities_arr_1'
p724
I0
sS'velocities_arr_2'
p725
I0
sS'velocities_arr_3'
p726
I0
sS'velocities_arr_4'
p727
I0
sS'velocities_arr_5'
p728
I0
sS'velocities_arr_6'
p729
I0
sS'velocities_arr_7'
p730
I0
sg54
I2
sS'velocities_arr_9'
p731
I0
sg47
I121
sS'velocities_arr_10'
p732
I0
sS'velocities_arr_8'
p733
I0
sg67
I0
sS'velocities_arr_11'
p734
I0
sg71
I0
ssS'userx'
p735
(dp736
S'harris_benedict_bmr'
p737
I-1
sS'height_inches'
p738
F70.0
sS'genetically_gifted'
p739
I0
sS'wrist_width_inches'
p740
I7
sS'years_old'
p741
I31
sS'ankle_width_inches'
p742
I9
sS'sex_is_male'
p743
I1
ssS'dayy'
p744
(dp745
g10
I-1
sg21
I-1
sg6
I-1
sg25
I-1
sg15
I-1
sg18
I-1
sg9
I-1
ss.