(dp0
S'dayseriesx'
p1
(lp2
(dp3
S'day_number'
p4
I-1
sS'sleeptime_awake_hrs'
p5
I-1
sS'withings_body_water_percent'
p6
I-1
sS'heart_rate_variability_rmssd'
p7
I-1
sS'sleeptime_deep_rem_hrs'
p8
I-1
sS'withings_body_fat_percent'
p9
I-1
sS'withings_weight_lbs'
p10
I-1
sS'sleeptime_efficiency_percent'
p11
I-1
sS'post_day_calories_in'
p12
I-1
sS'post_day_fat_g'
p13
I-1
sS'sleeptime_bed_time_ampm_index'
p14
I-1
sS'withings_muscle_mass_percent'
p15
I-1
sS'days_since_last_recorded_day'
p16
I-1
sS'sleeptime_alarm_ring_ampm_index'
p17
I-1
sS'withings_bone_mass_percent'
p18
I-1
sS'sleeptime_snoozed'
p19
I-1
sS'sleeptime_light_sleep_hrs'
p20
I-1
sS'withings_heart_rate_bpm'
p21
I-1
sS'sleeptime_alarm_set_ampm_index'
p22
I-1
sS'post_day_protein_g'
p23
I-1
sS'post_day_wearable_calories_burned'
p24
I-1
sS'withings_pulse_wave_velocity_m_per_s'
p25
I-1
sS'sleeptime_rise_time_ampm_index'
p26
I-1
sS'days_since_last_workout'
p27
I-1
sS'post_day_carbs_g'
p28
I-1
sag3
ag3
ag3
ag3
ag3
ag3
ag3
ag3
ag3
a(dp29
g4
I0
sg5
F0.9166666666666666
sg6
F56.4
sg7
I-1
sg8
F4.1
sg9
F14.8
sg10
F163.7
sg11
F88.0
sg12
I-1
sg13
I-1
sg14
I1389
sg15
F81.2
sg16
F0.0
sg17
I411
sg18
F4.0
sg19
I4
sg20
F3.1666666666666665
sg21
I86
sg22
I425
sg23
I-1
sg24
I-1
sg25
F7.4
sg26
I441
sg27
I0
sg28
I-1
sasS'workoutxseries'
p30
(lp31
(dp32
g4
I1
sS'velocities_arr_0'
p33
I0
sS'velocities_arr_2'
p34
I0
sS'velocities_arr_3'
p35
I0
sS'velocities_arr_4'
p36
I0
sS'velocities_arr_5'
p37
I0
sS'velocities_arr_6'
p38
I0
sS'velocities_arr_1'
p39
I0
sS'velocities_arr_8'
p40
I0
sS'velocities_arr_9'
p41
I0
sS'postset_heartrate'
p42
I-1
sS'weight_lbs'
p43
I-1
sS'velocities_arr_7'
p44
I0
sS'category_exercise_name_12'
p45
I0
sS'category_exercise_name_10'
p46
I0
sS'category_exercise_name_11'
p47
I0
sS'reps_completed'
p48
I-1
sS'reps_planned'
p49
I-1
sS'category_exercise_name_0'
p50
I0
sS'category_exercise_name_1'
p51
I0
sS'category_exercise_name_2'
p52
I0
sS'category_exercise_name_3'
p53
I0
sS'category_exercise_name_4'
p54
I0
sS'category_exercise_name_5'
p55
I0
sS'category_exercise_name_6'
p56
I0
sS'category_exercise_name_7'
p57
I0
sS'category_exercise_name_8'
p58
I0
sS'category_exercise_name_9'
p59
I0
sS'set_number_of_the_day'
p60
I3
sS'went_to_failure'
p61
I0
sS'velocities_arr_10'
p62
I0
sS'used_lifting_gear'
p63
I0
sS'velocities_arr_11'
p64
I0
sS'did_pull_muscle'
p65
I0
sg27
I0
sag32
ag32
ag32
ag32
ag32
ag32
ag32
ag32
ag32
ag32
ag32
ag32
ag32
ag32
ag32
ag32
ag32
ag32
ag32
ag32
ag32
ag32
ag32
ag32
ag32
ag32
ag32
ag32
ag32
ag32
ag32
ag32
ag32
ag32
a(dp66
g4
I1
sS'velocities_arr_0'
p67
F0.49
sS'velocities_arr_2'
p68
F0.68
sS'velocities_arr_3'
p69
F0.61
sS'velocities_arr_4'
p70
F0.56
sS'velocities_arr_5'
p71
I0
sS'velocities_arr_6'
p72
I0
sS'velocities_arr_1'
p73
F0.82
sS'velocities_arr_8'
p74
I0
sS'velocities_arr_9'
p75
I0
sg42
I116
sg43
I185
sS'velocities_arr_7'
p76
I0
sS'category_exercise_name_12'
p77
I0
sS'category_exercise_name_10'
p78
I0
sS'category_exercise_name_11'
p79
I0
sg48
I5
sg49
I5
sS'category_exercise_name_0'
p80
I1
sS'category_exercise_name_1'
p81
I0
sS'velocities_arr_10'
p82
I0
sS'category_exercise_name_3'
p83
I0
sS'category_exercise_name_4'
p84
I0
sS'category_exercise_name_5'
p85
I0
sS'category_exercise_name_6'
p86
I0
sS'category_exercise_name_7'
p87
I0
sS'category_exercise_name_8'
p88
I0
sS'category_exercise_name_9'
p89
I0
sg60
I0
sg61
I0
sS'category_exercise_name_2'
p90
I0
sg63
I0
sS'velocities_arr_11'
p91
I0
sg65
I0
sg27
I0
sa(dp92
g4
I1
sS'velocities_arr_0'
p93
F0.59
sS'velocities_arr_2'
p94
F1.29
sS'velocities_arr_3'
p95
F1.29
sS'velocities_arr_4'
p96
F1.29
sS'velocities_arr_5'
p97
I0
sS'velocities_arr_6'
p98
I0
sS'velocities_arr_1'
p99
F0.55
sS'velocities_arr_8'
p100
I0
sS'velocities_arr_9'
p101
I0
sg42
I115
sg43
I225
sS'velocities_arr_7'
p102
I0
sS'category_exercise_name_12'
p103
I0
sS'category_exercise_name_10'
p104
I0
sS'category_exercise_name_11'
p105
I0
sg48
I5
sg49
I5
sS'category_exercise_name_0'
p106
I1
sS'category_exercise_name_1'
p107
I0
sS'velocities_arr_10'
p108
I0
sS'category_exercise_name_3'
p109
I0
sS'category_exercise_name_4'
p110
I0
sS'category_exercise_name_5'
p111
I0
sS'category_exercise_name_6'
p112
I0
sS'category_exercise_name_7'
p113
I0
sS'category_exercise_name_8'
p114
I0
sS'category_exercise_name_9'
p115
I0
sg60
I1
sg61
I0
sS'category_exercise_name_2'
p116
I0
sg63
I0
sS'velocities_arr_11'
p117
I0
sg65
I0
sg27
I0
sa(dp118
g4
I1
sS'velocities_arr_0'
p119
F0.53
sS'velocities_arr_2'
p120
F0.59
sS'velocities_arr_3'
p121
F0.54
sS'velocities_arr_4'
p122
F0.54
sS'velocities_arr_5'
p123
I0
sS'velocities_arr_6'
p124
I0
sS'velocities_arr_1'
p125
F0.56
sS'velocities_arr_8'
p126
I0
sS'velocities_arr_9'
p127
I0
sg42
I130
sg43
I245
sS'velocities_arr_7'
p128
I0
sS'category_exercise_name_12'
p129
I0
sS'category_exercise_name_10'
p130
I0
sS'category_exercise_name_11'
p131
I0
sg48
I5
sg49
I5
sS'category_exercise_name_0'
p132
I1
sS'category_exercise_name_1'
p133
I0
sS'velocities_arr_10'
p134
I0
sS'category_exercise_name_3'
p135
I0
sS'category_exercise_name_4'
p136
I0
sS'category_exercise_name_5'
p137
I0
sS'category_exercise_name_6'
p138
I0
sS'category_exercise_name_7'
p139
I0
sS'category_exercise_name_8'
p140
I0
sS'category_exercise_name_9'
p141
I0
sg60
I2
sg61
I0
sS'category_exercise_name_2'
p142
I0
sg63
I0
sS'velocities_arr_11'
p143
I0
sg65
I0
sg27
I0
sa(dp144
g4
I1
sg33
I0
sg34
I0
sg35
I0
sg36
I0
sg37
I0
sg38
I0
sg39
I0
sg40
I0
sg41
I0
sg42
I-1
sg43
I265
sg44
I0
sg45
I0
sg46
I0
sg47
I0
sg52
I0
sg48
I-1
sg49
I2
sg50
I1
sg51
I0
sg62
I0
sg53
I0
sg54
I0
sg55
I0
sg56
I0
sg57
I0
sg58
I0
sg59
I0
sg60
I3
sg61
I-1
sg63
I0
sg64
I0
sg65
I-1
sg27
I0
sasS'workouty'
p145
(dp146
S'velocities_arr_0'
p147
F0.5
sS'velocities_arr_1'
p148
F0.5
sS'velocities_arr_2'
p149
I0
sS'velocities_arr_3'
p150
I0
sS'velocities_arr_4'
p151
I0
sS'velocities_arr_5'
p152
I0
sS'velocities_arr_6'
p153
I0
sS'velocities_arr_7'
p154
I0
sg48
I2
sS'velocities_arr_9'
p155
I0
sg42
I121
sS'velocities_arr_10'
p156
I0
sS'velocities_arr_8'
p157
I0
sg61
I0
sS'velocities_arr_11'
p158
I0
sg65
I0
ssS'userx'
p159
(dp160
S'harris_benedict_bmr'
p161
I-1
sS'height_inches'
p162
F70.0
sS'genetically_gifted'
p163
I0
sS'wrist_width_inches'
p164
I7
sS'years_old'
p165
I31
sS'ankle_width_inches'
p166
I9
sS'sex_is_male'
p167
I1
ssS'dayy'
p168
(dp169
g10
F163.2
sg21
I87
sg6
F56.3
sg25
F7.4
sg15
F81.1
sg18
F4.0
ss.