(dp0
S'dayseriesx'
p1
(lp2
(dp3
S'day_number'
p4
I-1
sS'sleeptime_awake_hrs'
p5
I-1
sS'withings_body_water_percent'
p6
I-1
sS'heart_rate_variability_rmssd'
p7
I-1
sS'sleeptime_deep_rem_hrs'
p8
I-1
sS'withings_body_fat_percent'
p9
I-1
sS'withings_weight_lbs'
p10
I-1
sS'sleeptime_efficiency_percent'
p11
I-1
sS'post_day_calories_in'
p12
I-1
sS'post_day_fat_g'
p13
I-1
sS'sleeptime_bed_time_ampm_index'
p14
I-1
sS'withings_muscle_mass_percent'
p15
I-1
sS'days_since_last_recorded_day'
p16
I-1
sS'sleeptime_alarm_ring_ampm_index'
p17
I-1
sS'withings_bone_mass_percent'
p18
I-1
sS'sleeptime_snoozed'
p19
I-1
sS'sleeptime_light_sleep_hrs'
p20
I-1
sS'withings_heart_rate_bpm'
p21
I-1
sS'sleeptime_alarm_set_ampm_index'
p22
I-1
sS'post_day_protein_g'
p23
I-1
sS'post_day_wearable_calories_burned'
p24
I-1
sS'withings_pulse_wave_velocity_m_per_s'
p25
I-1
sS'sleeptime_rise_time_ampm_index'
p26
I-1
sS'days_since_last_workout'
p27
I-1
sS'post_day_carbs_g'
p28
I-1
sag3
ag3
ag3
ag3
ag3
ag3
ag3
ag3
ag3
a(dp29
g4
I0
sg5
F0.25
sg6
F56.9
sg7
I-1
sg8
F2.1
sg9
F14.0
sg10
F160.8
sg11
I95
sg12
I-1
sg13
I-1
sg14
I74
sg15
F82.0
sg16
F0.0
sg17
I403
sg18
F4.0
sg19
I5
sg20
F3.7333333333333334
sg21
I83
sg22
I425
sg23
I-1
sg24
I-1
sg25
F7.6
sg26
I441
sg27
I0
sg28
I-1
sasS'workoutxseries'
p30
(lp31
(dp32
g4
I1
sS'velocities_arr_0'
p33
I0
sS'velocities_arr_2'
p34
I0
sS'velocities_arr_3'
p35
I0
sS'velocities_arr_4'
p36
I0
sS'velocities_arr_5'
p37
I0
sS'velocities_arr_6'
p38
I0
sS'velocities_arr_1'
p39
I0
sS'velocities_arr_8'
p40
I0
sS'velocities_arr_9'
p41
I0
sS'postset_heartrate'
p42
I-1
sS'weight_lbs'
p43
I-1
sS'velocities_arr_7'
p44
I0
sS'category_exercise_name_10'
p45
I0
sS'reps_completed'
p46
I-1
sS'reps_planned'
p47
I-1
sS'category_exercise_name_0'
p48
I0
sS'category_exercise_name_1'
p49
I0
sS'category_exercise_name_2'
p50
I0
sS'category_exercise_name_3'
p51
I0
sS'category_exercise_name_4'
p52
I0
sS'category_exercise_name_5'
p53
I0
sS'category_exercise_name_6'
p54
I0
sS'category_exercise_name_7'
p55
I0
sS'category_exercise_name_8'
p56
I0
sS'category_exercise_name_9'
p57
I0
sS'set_number_of_the_day'
p58
I11
sS'went_to_failure'
p59
I0
sS'velocities_arr_10'
p60
I0
sS'used_lifting_gear'
p61
I0
sS'velocities_arr_11'
p62
I0
sS'did_pull_muscle'
p63
I0
sg27
I0
sag32
ag32
ag32
ag32
ag32
ag32
ag32
ag32
ag32
ag32
ag32
ag32
ag32
ag32
ag32
ag32
ag32
ag32
ag32
ag32
a(dp64
g4
I1
sS'velocities_arr_0'
p65
F1.31
sS'velocities_arr_2'
p66
F1.12
sS'velocities_arr_3'
p67
F1.04
sS'velocities_arr_4'
p68
I0
sS'velocities_arr_5'
p69
I0
sS'velocities_arr_6'
p70
I0
sS'velocities_arr_1'
p71
F0.7
sS'velocities_arr_8'
p72
I0
sS'velocities_arr_9'
p73
I0
sg42
I88
sg43
I45
sS'velocities_arr_7'
p74
I0
sS'category_exercise_name_10'
p75
I0
sg46
I4
sg47
I4
sS'category_exercise_name_0'
p76
I0
sS'category_exercise_name_1'
p77
I0
sS'velocities_arr_10'
p78
I0
sS'category_exercise_name_3'
p79
I0
sS'category_exercise_name_4'
p80
I0
sS'category_exercise_name_5'
p81
I0
sS'category_exercise_name_6'
p82
I0
sS'category_exercise_name_7'
p83
I0
sS'category_exercise_name_8'
p84
I0
sS'category_exercise_name_9'
p85
I0
sg58
I0
sg59
I0
sS'category_exercise_name_2'
p86
I1
sg61
I0
sS'velocities_arr_11'
p87
I0
sg63
I0
sg27
I0
sa(dp88
g4
I1
sS'velocities_arr_0'
p89
F0.94
sS'velocities_arr_2'
p90
F0.9
sS'velocities_arr_3'
p91
F0.89
sS'velocities_arr_4'
p92
F0.88
sS'velocities_arr_5'
p93
F0.88
sS'velocities_arr_6'
p94
I0
sS'velocities_arr_1'
p95
F0.63
sS'velocities_arr_8'
p96
I0
sS'velocities_arr_9'
p97
I0
sg42
I110
sg43
I95
sS'velocities_arr_7'
p98
I0
sS'category_exercise_name_10'
p99
I0
sg46
I6
sg47
I6
sS'category_exercise_name_0'
p100
I0
sS'category_exercise_name_1'
p101
I0
sS'velocities_arr_10'
p102
I0
sS'category_exercise_name_3'
p103
I0
sS'category_exercise_name_4'
p104
I0
sS'category_exercise_name_5'
p105
I0
sS'category_exercise_name_6'
p106
I0
sS'category_exercise_name_7'
p107
I0
sS'category_exercise_name_8'
p108
I0
sS'category_exercise_name_9'
p109
I0
sg58
I1
sg59
I0
sS'category_exercise_name_2'
p110
I1
sg61
I0
sS'velocities_arr_11'
p111
I0
sg63
I0
sg27
I0
sa(dp112
g4
I1
sS'velocities_arr_0'
p113
F0.88
sS'velocities_arr_2'
p114
F0.86
sS'velocities_arr_3'
p115
F0.86
sS'velocities_arr_4'
p116
F0.86
sS'velocities_arr_5'
p117
F0.85
sS'velocities_arr_6'
p118
I0
sS'velocities_arr_1'
p119
F0.87
sS'velocities_arr_8'
p120
I0
sS'velocities_arr_9'
p121
I0
sg42
I113
sg43
I115
sS'velocities_arr_7'
p122
I0
sS'category_exercise_name_10'
p123
I0
sg46
I6
sg47
I6
sS'category_exercise_name_0'
p124
I0
sS'category_exercise_name_1'
p125
I0
sS'velocities_arr_10'
p126
I0
sS'category_exercise_name_3'
p127
I0
sS'category_exercise_name_4'
p128
I0
sS'category_exercise_name_5'
p129
I0
sS'category_exercise_name_6'
p130
I0
sS'category_exercise_name_7'
p131
I0
sS'category_exercise_name_8'
p132
I0
sS'category_exercise_name_9'
p133
I0
sg58
I2
sg59
I0
sS'category_exercise_name_2'
p134
I1
sg61
I0
sS'velocities_arr_11'
p135
I0
sg63
I0
sg27
I0
sa(dp136
g4
I1
sS'velocities_arr_0'
p137
F0.88
sS'velocities_arr_2'
p138
F0.72
sS'velocities_arr_3'
p139
F0.68
sS'velocities_arr_4'
p140
F0.67
sS'velocities_arr_5'
p141
F0.67
sS'velocities_arr_6'
p142
F0.67
sS'velocities_arr_1'
p143
F0.77
sS'velocities_arr_8'
p144
I0
sS'velocities_arr_9'
p145
I0
sg42
I128
sg43
I135
sS'velocities_arr_7'
p146
I0
sS'category_exercise_name_10'
p147
I0
sg46
I7
sg47
I7
sS'category_exercise_name_0'
p148
I0
sS'category_exercise_name_1'
p149
I0
sS'velocities_arr_10'
p150
I0
sS'category_exercise_name_3'
p151
I0
sS'category_exercise_name_4'
p152
I0
sS'category_exercise_name_5'
p153
I0
sS'category_exercise_name_6'
p154
I0
sS'category_exercise_name_7'
p155
I0
sS'category_exercise_name_8'
p156
I0
sS'category_exercise_name_9'
p157
I0
sg58
I3
sg59
I0
sS'category_exercise_name_2'
p158
I1
sg61
I0
sS'velocities_arr_11'
p159
I0
sg63
I0
sg27
I0
sa(dp160
g4
I1
sS'velocities_arr_0'
p161
F0.66
sS'velocities_arr_2'
p162
F0.58
sS'velocities_arr_3'
p163
F0.54
sS'velocities_arr_4'
p164
F0.54
sS'velocities_arr_5'
p165
I0
sS'velocities_arr_6'
p166
I0
sS'velocities_arr_1'
p167
F0.66
sS'velocities_arr_8'
p168
I0
sS'velocities_arr_9'
p169
I0
sg42
I130
sg43
I155
sS'velocities_arr_7'
p170
I0
sS'category_exercise_name_10'
p171
I0
sg46
I5
sg47
I5
sS'category_exercise_name_0'
p172
I0
sS'category_exercise_name_1'
p173
I0
sS'velocities_arr_10'
p174
I0
sS'category_exercise_name_3'
p175
I0
sS'category_exercise_name_4'
p176
I0
sS'category_exercise_name_5'
p177
I0
sS'category_exercise_name_6'
p178
I0
sS'category_exercise_name_7'
p179
I0
sS'category_exercise_name_8'
p180
I0
sS'category_exercise_name_9'
p181
I0
sg58
I4
sg59
I0
sS'category_exercise_name_2'
p182
I1
sg61
I0
sS'velocities_arr_11'
p183
I0
sg63
I0
sg27
I0
sa(dp184
g4
I1
sS'velocities_arr_0'
p185
F0.61
sS'velocities_arr_2'
p186
I0
sS'velocities_arr_3'
p187
I0
sS'velocities_arr_4'
p188
I0
sS'velocities_arr_5'
p189
I0
sS'velocities_arr_6'
p190
I0
sS'velocities_arr_1'
p191
F0.58
sS'velocities_arr_8'
p192
I0
sS'velocities_arr_9'
p193
I0
sg42
I124
sg43
I195
sS'velocities_arr_7'
p194
I0
sS'category_exercise_name_10'
p195
I0
sg46
I2
sg47
I2
sS'category_exercise_name_0'
p196
I0
sS'category_exercise_name_1'
p197
I0
sS'velocities_arr_10'
p198
I0
sS'category_exercise_name_3'
p199
I0
sS'category_exercise_name_4'
p200
I0
sS'category_exercise_name_5'
p201
I0
sS'category_exercise_name_6'
p202
I0
sS'category_exercise_name_7'
p203
I0
sS'category_exercise_name_8'
p204
I0
sS'category_exercise_name_9'
p205
I0
sg58
I5
sg59
I0
sS'category_exercise_name_2'
p206
I1
sg61
I0
sS'velocities_arr_11'
p207
I0
sg63
I0
sg27
I0
sa(dp208
g4
I1
sS'velocities_arr_0'
p209
F0.6
sS'velocities_arr_2'
p210
F0.57
sS'velocities_arr_3'
p211
I0
sS'velocities_arr_4'
p212
I0
sS'velocities_arr_5'
p213
I0
sS'velocities_arr_6'
p214
I0
sS'velocities_arr_1'
p215
F0.57
sS'velocities_arr_8'
p216
I0
sS'velocities_arr_9'
p217
I0
sg42
I134
sg43
I205
sS'velocities_arr_7'
p218
I0
sS'category_exercise_name_10'
p219
I0
sg46
I3
sg47
I3
sS'category_exercise_name_0'
p220
I0
sS'category_exercise_name_1'
p221
I0
sS'velocities_arr_10'
p222
I0
sS'category_exercise_name_3'
p223
I0
sS'category_exercise_name_4'
p224
I0
sS'category_exercise_name_5'
p225
I0
sS'category_exercise_name_6'
p226
I0
sS'category_exercise_name_7'
p227
I0
sS'category_exercise_name_8'
p228
I0
sS'category_exercise_name_9'
p229
I0
sg58
I6
sg59
I0
sS'category_exercise_name_2'
p230
I1
sg61
I0
sS'velocities_arr_11'
p231
I0
sg63
I0
sg27
I0
sa(dp232
g4
I1
sS'velocities_arr_0'
p233
F0.58
sS'velocities_arr_2'
p234
I0
sS'velocities_arr_3'
p235
I0
sS'velocities_arr_4'
p236
I0
sS'velocities_arr_5'
p237
I0
sS'velocities_arr_6'
p238
I0
sS'velocities_arr_1'
p239
F0.53
sS'velocities_arr_8'
p240
I0
sS'velocities_arr_9'
p241
I0
sg42
I133
sg43
I215
sS'velocities_arr_7'
p242
I0
sS'category_exercise_name_10'
p243
I0
sg46
I2
sg47
I2
sS'category_exercise_name_0'
p244
I0
sS'category_exercise_name_1'
p245
I0
sS'velocities_arr_10'
p246
I0
sS'category_exercise_name_3'
p247
I0
sS'category_exercise_name_4'
p248
I0
sS'category_exercise_name_5'
p249
I0
sS'category_exercise_name_6'
p250
I0
sS'category_exercise_name_7'
p251
I0
sS'category_exercise_name_8'
p252
I0
sS'category_exercise_name_9'
p253
I0
sg58
I7
sg59
I0
sS'category_exercise_name_2'
p254
I1
sg61
I0
sS'velocities_arr_11'
p255
I0
sg63
I0
sg27
I0
sa(dp256
g4
I1
sS'velocities_arr_0'
p257
F0.84
sS'velocities_arr_2'
p258
F0.74
sS'velocities_arr_3'
p259
F0.76
sS'velocities_arr_4'
p260
F0.69
sS'velocities_arr_5'
p261
F0.66
sS'velocities_arr_6'
p262
F0.65
sS'velocities_arr_1'
p263
F0.75
sS'velocities_arr_8'
p264
I0
sS'velocities_arr_9'
p265
I0
sg42
I135
sg43
I135
sS'velocities_arr_7'
p266
F0.65
sS'category_exercise_name_10'
p267
I0
sg46
I8
sg47
I8
sS'category_exercise_name_0'
p268
I0
sS'category_exercise_name_1'
p269
I0
sS'velocities_arr_10'
p270
I0
sS'category_exercise_name_3'
p271
I0
sS'category_exercise_name_4'
p272
I0
sS'category_exercise_name_5'
p273
I0
sS'category_exercise_name_6'
p274
I0
sS'category_exercise_name_7'
p275
I0
sS'category_exercise_name_8'
p276
I0
sS'category_exercise_name_9'
p277
I0
sg58
I8
sg59
I0
sS'category_exercise_name_2'
p278
I1
sg61
I0
sS'velocities_arr_11'
p279
I0
sg63
I0
sg27
I0
sa(dp280
g4
I1
sS'velocities_arr_0'
p281
F1.05
sS'velocities_arr_2'
p282
F0.93
sS'velocities_arr_3'
p283
F1.16
sS'velocities_arr_4'
p284
F1.2
sS'velocities_arr_5'
p285
F1.19
sS'velocities_arr_6'
p286
F1.01
sS'velocities_arr_1'
p287
F1.34
sS'velocities_arr_8'
p288
F1.13
sS'velocities_arr_9'
p289
F0.92
sg42
I99
sg43
I65
sS'velocities_arr_7'
p290
F1.2
sS'category_exercise_name_10'
p291
I0
sg46
I10
sg47
I10
sS'category_exercise_name_0'
p292
I0
sS'category_exercise_name_1'
p293
I0
sS'velocities_arr_10'
p294
I0
sS'category_exercise_name_3'
p295
I1
sS'category_exercise_name_4'
p296
I0
sS'category_exercise_name_5'
p297
I0
sS'category_exercise_name_6'
p298
I0
sS'category_exercise_name_7'
p299
I0
sS'category_exercise_name_8'
p300
I0
sS'category_exercise_name_9'
p301
I0
sg58
I9
sg59
I0
sS'category_exercise_name_2'
p302
I0
sg61
I0
sS'velocities_arr_11'
p303
I0
sg63
I0
sg27
I0
sa(dp304
g4
I1
sS'velocities_arr_0'
p305
F0.75
sS'velocities_arr_2'
p306
F0.65
sS'velocities_arr_3'
p307
F0.67
sS'velocities_arr_4'
p308
F0.71
sS'velocities_arr_5'
p309
F0.66
sS'velocities_arr_6'
p310
F0.66
sS'velocities_arr_1'
p311
F0.73
sS'velocities_arr_8'
p312
I0
sS'velocities_arr_9'
p313
I0
sg42
I104
sg43
I95
sS'velocities_arr_7'
p314
I0
sS'category_exercise_name_10'
p315
I0
sg46
I7
sg47
I7
sS'category_exercise_name_0'
p316
I0
sS'category_exercise_name_1'
p317
I0
sS'velocities_arr_10'
p318
I0
sS'category_exercise_name_3'
p319
I1
sS'category_exercise_name_4'
p320
I0
sS'category_exercise_name_5'
p321
I0
sS'category_exercise_name_6'
p322
I0
sS'category_exercise_name_7'
p323
I0
sS'category_exercise_name_8'
p324
I0
sS'category_exercise_name_9'
p325
I0
sg58
I10
sg59
I0
sS'category_exercise_name_2'
p326
I0
sg61
I0
sS'velocities_arr_11'
p327
I0
sg63
I0
sg27
I0
sa(dp328
g4
I1
sg33
I0
sg34
I0
sg35
I0
sg36
I0
sg37
I0
sg38
I0
sg39
I0
sg40
I0
sg41
I0
sg42
I-1
sg43
I105
sg44
I0
sg45
I0
sg50
I0
sg46
I-1
sg47
I4
sg48
I0
sg49
I0
sg60
I0
sg51
I1
sg52
I0
sg53
I0
sg54
I0
sg55
I0
sg56
I0
sg57
I0
sg58
I11
sg59
I-1
sg61
I0
sg62
I0
sg63
I-1
sg27
I0
sasS'workouty'
p329
(dp330
S'velocities_arr_0'
p331
F0.62
sS'velocities_arr_1'
p332
F0.67
sS'velocities_arr_2'
p333
F0.64
sS'velocities_arr_3'
p334
F0.52
sS'velocities_arr_4'
p335
I0
sS'velocities_arr_5'
p336
I0
sS'velocities_arr_6'
p337
I0
sS'velocities_arr_7'
p338
I0
sg46
I4
sS'velocities_arr_9'
p339
I0
sg42
I109
sS'velocities_arr_10'
p340
I0
sS'velocities_arr_8'
p341
I0
sg59
I0
sS'velocities_arr_11'
p342
I0
sg63
I0
ssS'userx'
p343
(dp344
S'harris_benedict_bmr'
p345
I-1
sS'height_inches'
p346
F70.0
sS'genetically_gifted'
p347
I0
sS'wrist_width_inches'
p348
I7
sS'years_old'
p349
I31
sS'ankle_width_inches'
p350
I9
sS'sex_is_male'
p351
I1
ssS'dayy'
p352
(dp353
g10
F160.7
sg21
I93
sg6
F56.8
sg25
F7.8
sg15
F81.9
sg18
F4.0
ss.