(dp0
S'dayseriesx'
p1
(lp2
(dp3
S'day_number'
p4
I-1
sS'sleeptime_awake_hrs'
p5
I-1
sS'withings_body_water_percent'
p6
I-1
sS'heart_rate_variability_rmssd'
p7
I-1
sS'sleeptime_deep_rem_hrs'
p8
I-1
sS'withings_body_fat_percent'
p9
I-1
sS'withings_weight_lbs'
p10
I-1
sS'sleeptime_efficiency_percent'
p11
I-1
sS'post_day_calories_in'
p12
I-1
sS'post_day_fat_g'
p13
I-1
sS'sleeptime_bed_time_ampm_index'
p14
I-1
sS'withings_muscle_mass_percent'
p15
I-1
sS'days_since_last_recorded_day'
p16
I-1
sS'sleeptime_alarm_ring_ampm_index'
p17
I-1
sS'withings_bone_mass_percent'
p18
I-1
sS'sleeptime_snoozed'
p19
I-1
sS'sleeptime_light_sleep_hrs'
p20
I-1
sS'withings_heart_rate_bpm'
p21
I-1
sS'sleeptime_alarm_set_ampm_index'
p22
I-1
sS'post_day_protein_g'
p23
I-1
sS'post_day_wearable_calories_burned'
p24
I-1
sS'withings_pulse_wave_velocity_m_per_s'
p25
I-1
sS'sleeptime_rise_time_ampm_index'
p26
I-1
sS'days_since_last_workout'
p27
I-1
sS'post_day_carbs_g'
p28
I-1
sag3
ag3
ag3
ag3
ag3
ag3
ag3
ag3
ag3
ag3
ag3
ag3
ag3
ag3
ag3
ag3
ag3
ag3
ag3
ag3
ag3
ag3
a(dp29
g4
I0
sg5
F0.35
sg6
F56.0
sg7
I-1
sg8
F4.233333333333333
sg9
F15.4
sg10
F162.4
sg11
F95.0
sg12
I-1
sg13
I-1
sg14
I1355
sg15
F80.6
sg16
F0.0
sg17
I412
sg18
F3.9
sg19
I4
sg20
F4.15
sg21
F88.0
sg22
I428
sg23
I-1
sg24
I-1
sg25
F7.5
sg26
I440
sg27
I0
sg28
I-1
sasS'workoutxseries'
p30
(lp31
(dp32
g4
I1
sS'velocities_arr_0'
p33
I0
sS'velocities_arr_2'
p34
I0
sS'velocities_arr_3'
p35
I0
sS'velocities_arr_4'
p36
I0
sS'velocities_arr_5'
p37
I0
sS'velocities_arr_6'
p38
I0
sS'velocities_arr_1'
p39
I0
sS'velocities_arr_8'
p40
I0
sS'velocities_arr_9'
p41
I0
sS'postset_heartrate'
p42
I-1
sS'weight_lbs'
p43
I-1
sS'velocities_arr_7'
p44
I0
sS'category_exercise_name_12'
p45
I0
sS'category_exercise_name_13'
p46
I0
sS'category_exercise_name_10'
p47
I0
sS'category_exercise_name_11'
p48
I0
sS'reps_completed'
p49
I-1
sS'reps_planned'
p50
I-1
sS'category_exercise_name_0'
p51
I0
sS'category_exercise_name_1'
p52
I0
sS'category_exercise_name_2'
p53
I0
sS'category_exercise_name_3'
p54
I0
sS'category_exercise_name_4'
p55
I0
sS'category_exercise_name_5'
p56
I0
sS'category_exercise_name_6'
p57
I0
sS'category_exercise_name_7'
p58
I0
sS'category_exercise_name_8'
p59
I0
sS'category_exercise_name_9'
p60
I0
sS'set_number_of_the_day'
p61
I8
sS'went_to_failure'
p62
I0
sS'velocities_arr_10'
p63
I0
sS'used_lifting_gear'
p64
I0
sS'velocities_arr_11'
p65
I0
sS'did_pull_muscle'
p66
I0
sg27
I0
sag32
ag32
ag32
ag32
ag32
ag32
ag32
ag32
ag32
ag32
ag32
ag32
ag32
ag32
ag32
ag32
ag32
ag32
ag32
ag32
ag32
ag32
ag32
ag32
ag32
ag32
ag32
ag32
ag32
ag32
ag32
ag32
ag32
ag32
ag32
ag32
ag32
ag32
ag32
ag32
ag32
ag32
ag32
ag32
ag32
ag32
ag32
ag32
ag32
ag32
ag32
ag32
ag32
a(dp67
g4
I1
sS'velocities_arr_0'
p68
F2.58
sS'velocities_arr_2'
p69
F1.89
sS'velocities_arr_3'
p70
F2.2
sS'velocities_arr_4'
p71
F1.89
sS'velocities_arr_5'
p72
F2.2
sS'velocities_arr_6'
p73
F1.89
sS'velocities_arr_1'
p74
F2.08
sS'velocities_arr_8'
p75
F1.76
sS'velocities_arr_9'
p76
F0.47
sg42
I88
sg43
I45
sS'velocities_arr_7'
p77
F1.89
sS'category_exercise_name_12'
p78
I0
sS'category_exercise_name_13'
p79
I0
sS'category_exercise_name_10'
p80
I0
sS'category_exercise_name_11'
p81
I0
sg49
I8
sg50
I8
sS'category_exercise_name_0'
p82
I0
sS'category_exercise_name_1'
p83
I0
sS'velocities_arr_10'
p84
I0
sS'category_exercise_name_3'
p85
I1
sS'category_exercise_name_4'
p86
I0
sS'category_exercise_name_5'
p87
I0
sS'category_exercise_name_6'
p88
I0
sS'category_exercise_name_7'
p89
I0
sS'category_exercise_name_8'
p90
I0
sS'category_exercise_name_9'
p91
I0
sg61
I0
sg62
I0
sS'category_exercise_name_2'
p92
I0
sg64
I0
sS'velocities_arr_11'
p93
I0
sg66
I0
sg27
I0
sa(dp94
g4
I1
sS'velocities_arr_0'
p95
F0.7
sS'velocities_arr_2'
p96
F0.72
sS'velocities_arr_3'
p97
F0.71
sS'velocities_arr_4'
p98
F0.71
sS'velocities_arr_5'
p99
F0.76
sS'velocities_arr_6'
p100
F0.71
sS'velocities_arr_1'
p101
F0.73
sS'velocities_arr_8'
p102
I0
sS'velocities_arr_9'
p103
I0
sg42
I89
sg43
I95
sS'velocities_arr_7'
p104
F0.65
sS'category_exercise_name_12'
p105
I0
sS'category_exercise_name_13'
p106
I0
sS'category_exercise_name_10'
p107
I0
sS'category_exercise_name_11'
p108
I0
sg49
I8
sg50
I8
sS'category_exercise_name_0'
p109
I0
sS'category_exercise_name_1'
p110
I0
sS'velocities_arr_10'
p111
I0
sS'category_exercise_name_3'
p112
I1
sS'category_exercise_name_4'
p113
I0
sS'category_exercise_name_5'
p114
I0
sS'category_exercise_name_6'
p115
I0
sS'category_exercise_name_7'
p116
I0
sS'category_exercise_name_8'
p117
I0
sS'category_exercise_name_9'
p118
I0
sg61
I1
sg62
I0
sS'category_exercise_name_2'
p119
I0
sg64
I0
sS'velocities_arr_11'
p120
I0
sg66
I0
sg27
I0
sa(dp121
g4
I1
sS'velocities_arr_0'
p122
F0.82
sS'velocities_arr_2'
p123
F0.9
sS'velocities_arr_3'
p124
F0.8
sS'velocities_arr_4'
p125
F0.8
sS'velocities_arr_5'
p126
F0.71
sS'velocities_arr_6'
p127
F0.78
sS'velocities_arr_1'
p128
F0.86
sS'velocities_arr_8'
p129
I0
sS'velocities_arr_9'
p130
I0
sg42
I95
sg43
I95
sS'velocities_arr_7'
p131
F0.74
sS'category_exercise_name_12'
p132
I0
sS'category_exercise_name_13'
p133
I0
sS'category_exercise_name_10'
p134
I0
sS'category_exercise_name_11'
p135
I0
sg49
I8
sg50
I8
sS'category_exercise_name_0'
p136
I0
sS'category_exercise_name_1'
p137
I0
sS'velocities_arr_10'
p138
I0
sS'category_exercise_name_3'
p139
I1
sS'category_exercise_name_4'
p140
I0
sS'category_exercise_name_5'
p141
I0
sS'category_exercise_name_6'
p142
I0
sS'category_exercise_name_7'
p143
I0
sS'category_exercise_name_8'
p144
I0
sS'category_exercise_name_9'
p145
I0
sg61
I2
sg62
I0
sS'category_exercise_name_2'
p146
I0
sg64
I0
sS'velocities_arr_11'
p147
I0
sg66
I0
sg27
I0
sa(dp148
g4
I1
sS'velocities_arr_0'
p149
F0.62
sS'velocities_arr_2'
p150
F0.71
sS'velocities_arr_3'
p151
F0.67
sS'velocities_arr_4'
p152
F0.66
sS'velocities_arr_5'
p153
F0.55
sS'velocities_arr_6'
p154
F0.59
sS'velocities_arr_1'
p155
F0.75
sS'velocities_arr_8'
p156
I0
sS'velocities_arr_9'
p157
I0
sg42
I103
sg43
I105
sS'velocities_arr_7'
p158
F0.54
sS'category_exercise_name_12'
p159
I0
sS'category_exercise_name_13'
p160
I0
sS'category_exercise_name_10'
p161
I0
sS'category_exercise_name_11'
p162
I0
sg49
I8
sg50
I8
sS'category_exercise_name_0'
p163
I0
sS'category_exercise_name_1'
p164
I0
sS'velocities_arr_10'
p165
I0
sS'category_exercise_name_3'
p166
I1
sS'category_exercise_name_4'
p167
I0
sS'category_exercise_name_5'
p168
I0
sS'category_exercise_name_6'
p169
I0
sS'category_exercise_name_7'
p170
I0
sS'category_exercise_name_8'
p171
I0
sS'category_exercise_name_9'
p172
I0
sg61
I3
sg62
I0
sS'category_exercise_name_2'
p173
I0
sg64
I0
sS'velocities_arr_11'
p174
I0
sg66
I0
sg27
I0
sa(dp175
g4
I1
sS'velocities_arr_0'
p176
I0
sS'velocities_arr_2'
p177
I0
sS'velocities_arr_3'
p178
I0
sS'velocities_arr_4'
p179
I0
sS'velocities_arr_5'
p180
I0
sS'velocities_arr_6'
p181
I0
sS'velocities_arr_1'
p182
I0
sS'velocities_arr_8'
p183
I0
sS'velocities_arr_9'
p184
I0
sg42
I112
sg43
I115
sS'velocities_arr_7'
p185
I0
sS'category_exercise_name_12'
p186
I0
sS'category_exercise_name_13'
p187
I0
sS'category_exercise_name_10'
p188
I0
sS'category_exercise_name_11'
p189
I0
sg49
I8
sg50
I8
sS'category_exercise_name_0'
p190
I0
sS'category_exercise_name_1'
p191
I0
sS'velocities_arr_10'
p192
I0
sS'category_exercise_name_3'
p193
I1
sS'category_exercise_name_4'
p194
I0
sS'category_exercise_name_5'
p195
I0
sS'category_exercise_name_6'
p196
I0
sS'category_exercise_name_7'
p197
I0
sS'category_exercise_name_8'
p198
I0
sS'category_exercise_name_9'
p199
I0
sg61
I4
sg62
I0
sS'category_exercise_name_2'
p200
I0
sg64
I0
sS'velocities_arr_11'
p201
I0
sg66
I0
sg27
I0
sa(dp202
g4
I1
sS'velocities_arr_0'
p203
F0.45
sS'velocities_arr_2'
p204
F0.4
sS'velocities_arr_3'
p205
F0.4
sS'velocities_arr_4'
p206
I0
sS'velocities_arr_5'
p207
I0
sS'velocities_arr_6'
p208
I0
sS'velocities_arr_1'
p209
F0.43
sS'velocities_arr_8'
p210
I0
sS'velocities_arr_9'
p211
I0
sg42
I111
sg43
I125
sS'velocities_arr_7'
p212
I0
sS'category_exercise_name_12'
p213
I0
sS'category_exercise_name_13'
p214
I0
sS'category_exercise_name_10'
p215
I0
sS'category_exercise_name_11'
p216
I0
sg49
I4
sg50
I4
sS'category_exercise_name_0'
p217
I0
sS'category_exercise_name_1'
p218
I0
sS'velocities_arr_10'
p219
I0
sS'category_exercise_name_3'
p220
I1
sS'category_exercise_name_4'
p221
I0
sS'category_exercise_name_5'
p222
I0
sS'category_exercise_name_6'
p223
I0
sS'category_exercise_name_7'
p224
I0
sS'category_exercise_name_8'
p225
I0
sS'category_exercise_name_9'
p226
I0
sg61
I5
sg62
I0
sS'category_exercise_name_2'
p227
I0
sg64
I0
sS'velocities_arr_11'
p228
I0
sg66
I0
sg27
I0
sa(dp229
g4
I1
sS'velocities_arr_0'
p230
F0.3
sS'velocities_arr_2'
p231
F0.3
sS'velocities_arr_3'
p232
I0
sS'velocities_arr_4'
p233
I0
sS'velocities_arr_5'
p234
I0
sS'velocities_arr_6'
p235
I0
sS'velocities_arr_1'
p236
F0.3
sS'velocities_arr_8'
p237
I0
sS'velocities_arr_9'
p238
I0
sg42
I107
sg43
I135
sS'velocities_arr_7'
p239
I0
sS'category_exercise_name_12'
p240
I0
sS'category_exercise_name_13'
p241
I0
sS'category_exercise_name_10'
p242
I0
sS'category_exercise_name_11'
p243
I0
sg49
I3
sg50
I3
sS'category_exercise_name_0'
p244
I0
sS'category_exercise_name_1'
p245
I0
sS'velocities_arr_10'
p246
I0
sS'category_exercise_name_3'
p247
I1
sS'category_exercise_name_4'
p248
I0
sS'category_exercise_name_5'
p249
I0
sS'category_exercise_name_6'
p250
I0
sS'category_exercise_name_7'
p251
I0
sS'category_exercise_name_8'
p252
I0
sS'category_exercise_name_9'
p253
I0
sg61
I6
sg62
I0
sS'category_exercise_name_2'
p254
I0
sg64
I0
sS'velocities_arr_11'
p255
I0
sg66
I0
sg27
I0
sa(dp256
g4
I1
sS'velocities_arr_0'
p257
I0
sS'velocities_arr_2'
p258
I0
sS'velocities_arr_3'
p259
I0
sS'velocities_arr_4'
p260
I0
sS'velocities_arr_5'
p261
I0
sS'velocities_arr_6'
p262
I0
sS'velocities_arr_1'
p263
I0
sS'velocities_arr_8'
p264
I0
sS'velocities_arr_9'
p265
I0
sg42
I121
sg43
F162.4
sS'velocities_arr_7'
p266
I0
sS'category_exercise_name_12'
p267
I1
sS'category_exercise_name_13'
p268
I0
sS'category_exercise_name_10'
p269
I0
sS'category_exercise_name_11'
p270
I0
sg49
I8
sg50
I8
sS'category_exercise_name_0'
p271
I0
sS'category_exercise_name_1'
p272
I0
sS'velocities_arr_10'
p273
I0
sS'category_exercise_name_3'
p274
I0
sS'category_exercise_name_4'
p275
I0
sS'category_exercise_name_5'
p276
I0
sS'category_exercise_name_6'
p277
I0
sS'category_exercise_name_7'
p278
I0
sS'category_exercise_name_8'
p279
I0
sS'category_exercise_name_9'
p280
I0
sg61
I7
sg62
I0
sS'category_exercise_name_2'
p281
I0
sg64
I0
sS'velocities_arr_11'
p282
I0
sg66
I0
sg27
I0
sa(dp283
g4
I1
sg33
I0
sg34
I0
sg35
I0
sg36
I0
sg37
I0
sg38
I0
sg39
I0
sg40
I0
sg41
I0
sg42
I-1
sg43
F162.4
sg44
I0
sg45
I1
sg46
I0
sg47
I0
sg48
I0
sg53
I0
sg49
I-1
sg50
I4
sg51
I0
sg52
I0
sg63
I0
sg54
I0
sg55
I0
sg56
I0
sg57
I0
sg58
I0
sg59
I0
sg60
I0
sg61
I8
sg62
I-1
sg64
I0
sg65
I0
sg66
I-1
sg27
I0
sasS'workouty'
p284
(dp285
S'velocities_arr_0'
p286
I0
sS'velocities_arr_1'
p287
I0
sS'velocities_arr_2'
p288
I0
sS'velocities_arr_3'
p289
I0
sS'velocities_arr_4'
p290
I0
sS'velocities_arr_5'
p291
I0
sS'velocities_arr_6'
p292
I0
sS'velocities_arr_7'
p293
I0
sg49
I4
sS'velocities_arr_9'
p294
I0
sg42
I121
sS'velocities_arr_10'
p295
I0
sS'velocities_arr_8'
p296
I0
sg62
I0
sS'velocities_arr_11'
p297
I0
sg66
I0
ssS'userx'
p298
(dp299
S'harris_benedict_bmr'
p300
I-1
sS'height_inches'
p301
F70.0
sS'genetically_gifted'
p302
I0
sS'wrist_width_inches'
p303
I7
sS'years_old'
p304
I31
sS'ankle_width_inches'
p305
I9
sS'sex_is_male'
p306
I1
ssS'dayy'
p307
(dp308
g10
F161.7
sg21
F76.0
sg6
F56.2
sg25
F7.6
sg15
F80.9
sg18
F3.9
sg9
F15.1
ss.