(dp0
S'dayseriesx'
p1
(lp2
(dp3
S'day_number'
p4
I-1
sS'sleeptime_awake_hrs'
p5
I-1
sS'withings_body_water_percent'
p6
I-1
sS'heart_rate_variability_rmssd'
p7
I-1
sS'sleeptime_deep_rem_hrs'
p8
I-1
sS'withings_body_fat_percent'
p9
I-1
sS'withings_weight_lbs'
p10
I-1
sS'sleeptime_efficiency_percent'
p11
I-1
sS'post_day_calories_in'
p12
I-1
sS'post_day_fat_g'
p13
I-1
sS'sleeptime_bed_time_ampm_index'
p14
I-1
sS'withings_muscle_mass_percent'
p15
I-1
sS'days_since_last_recorded_day'
p16
I-1
sS'sleeptime_alarm_ring_ampm_index'
p17
I-1
sS'withings_bone_mass_percent'
p18
I-1
sS'sleeptime_snoozed'
p19
I-1
sS'sleeptime_light_sleep_hrs'
p20
I-1
sS'withings_heart_rate_bpm'
p21
I-1
sS'sleeptime_alarm_set_ampm_index'
p22
I-1
sS'post_day_protein_g'
p23
I-1
sS'post_day_wearable_calories_burned'
p24
I-1
sS'withings_pulse_wave_velocity_m_per_s'
p25
I-1
sS'sleeptime_rise_time_ampm_index'
p26
I-1
sS'days_since_last_workout'
p27
I-1
sS'post_day_carbs_g'
p28
I-1
sag3
ag3
ag3
ag3
ag3
ag3
ag3
ag3
ag3
ag3
ag3
ag3
ag3
ag3
ag3
ag3
ag3
ag3
ag3
ag3
ag3
ag3
a(dp29
g4
I0
sg5
F0.2833333333333333
sg6
F56.0
sg7
I-1
sg8
F2.1333333333333333
sg9
F15.6
sg10
F164.1
sg11
F96.0
sg12
I-1
sg13
I-1
sg14
I1
sg15
F80.4
sg16
F0.0
sg17
I1440
sg18
F4.0
sg19
I0
sg20
F4.85
sg21
I76
sg22
I480
sg23
I-1
sg24
I-1
sg25
F7.5
sg26
I438
sg27
I0
sg28
I-1
sasS'workoutxseries'
p30
(lp31
(dp32
g4
I1
sS'velocities_arr_0'
p33
I0
sS'velocities_arr_2'
p34
I0
sS'velocities_arr_3'
p35
I0
sS'velocities_arr_4'
p36
I0
sS'velocities_arr_5'
p37
I0
sS'velocities_arr_6'
p38
I0
sS'velocities_arr_1'
p39
I0
sS'velocities_arr_8'
p40
I0
sS'velocities_arr_9'
p41
I0
sS'postset_heartrate'
p42
I-1
sS'weight_lbs'
p43
I-1
sS'velocities_arr_7'
p44
I0
sS'category_exercise_name_12'
p45
I0
sS'category_exercise_name_13'
p46
I0
sS'category_exercise_name_10'
p47
I0
sS'category_exercise_name_11'
p48
I0
sS'reps_completed'
p49
I-1
sS'reps_planned'
p50
I-1
sS'category_exercise_name_0'
p51
I0
sS'category_exercise_name_1'
p52
I0
sS'category_exercise_name_2'
p53
I0
sS'category_exercise_name_3'
p54
I0
sS'category_exercise_name_4'
p55
I0
sS'category_exercise_name_5'
p56
I0
sS'category_exercise_name_6'
p57
I0
sS'category_exercise_name_7'
p58
I0
sS'category_exercise_name_8'
p59
I0
sS'category_exercise_name_9'
p60
I0
sS'set_number_of_the_day'
p61
I21
sS'went_to_failure'
p62
I0
sS'velocities_arr_10'
p63
I0
sS'used_lifting_gear'
p64
I0
sS'velocities_arr_11'
p65
I0
sS'did_pull_muscle'
p66
I0
sg27
I0
sag32
ag32
ag32
ag32
ag32
ag32
ag32
ag32
ag32
ag32
ag32
ag32
ag32
ag32
ag32
ag32
ag32
ag32
ag32
ag32
ag32
ag32
ag32
ag32
ag32
ag32
ag32
ag32
ag32
ag32
ag32
ag32
ag32
ag32
ag32
ag32
ag32
ag32
ag32
ag32
a(dp67
g4
I1
sS'velocities_arr_0'
p68
F1.16
sS'velocities_arr_2'
p69
F1.36
sS'velocities_arr_3'
p70
F1.18
sS'velocities_arr_4'
p71
F1.12
sS'velocities_arr_5'
p72
F1.1
sS'velocities_arr_6'
p73
I0
sS'velocities_arr_1'
p74
F1.25
sS'velocities_arr_8'
p75
I0
sS'velocities_arr_9'
p76
I0
sg42
I103
sg43
I45
sS'velocities_arr_7'
p77
I0
sS'category_exercise_name_12'
p78
I0
sS'category_exercise_name_13'
p79
I0
sS'category_exercise_name_10'
p80
I0
sS'category_exercise_name_11'
p81
I0
sg49
I6
sg50
I6
sS'category_exercise_name_0'
p82
I0
sS'category_exercise_name_1'
p83
I0
sS'velocities_arr_10'
p84
I0
sS'category_exercise_name_3'
p85
I0
sS'category_exercise_name_4'
p86
I0
sS'category_exercise_name_5'
p87
I0
sS'category_exercise_name_6'
p88
I0
sS'category_exercise_name_7'
p89
I0
sS'category_exercise_name_8'
p90
I0
sS'category_exercise_name_9'
p91
I0
sg61
I0
sg62
I0
sS'category_exercise_name_2'
p92
I1
sg64
I0
sS'velocities_arr_11'
p93
I0
sg66
I0
sg27
I0
sa(dp94
g4
I1
sS'velocities_arr_0'
p95
F0.89
sS'velocities_arr_2'
p96
F0.81
sS'velocities_arr_3'
p97
F0.8
sS'velocities_arr_4'
p98
F0.81
sS'velocities_arr_5'
p99
F0.81
sS'velocities_arr_6'
p100
I0
sS'velocities_arr_1'
p101
F0.9
sS'velocities_arr_8'
p102
I0
sS'velocities_arr_9'
p103
I0
sg42
I117
sg43
I135
sS'velocities_arr_7'
p104
I0
sS'category_exercise_name_12'
p105
I0
sS'category_exercise_name_13'
p106
I0
sS'category_exercise_name_10'
p107
I0
sS'category_exercise_name_11'
p108
I0
sg49
I6
sg50
I6
sS'category_exercise_name_0'
p109
I0
sS'category_exercise_name_1'
p110
I0
sS'velocities_arr_10'
p111
I0
sS'category_exercise_name_3'
p112
I0
sS'category_exercise_name_4'
p113
I0
sS'category_exercise_name_5'
p114
I0
sS'category_exercise_name_6'
p115
I0
sS'category_exercise_name_7'
p116
I0
sS'category_exercise_name_8'
p117
I0
sS'category_exercise_name_9'
p118
I0
sg61
I1
sg62
I0
sS'category_exercise_name_2'
p119
I1
sg64
I0
sS'velocities_arr_11'
p120
I0
sg66
I0
sg27
I0
sa(dp121
g4
I1
sS'velocities_arr_0'
p122
F0.74
sS'velocities_arr_2'
p123
F0.68
sS'velocities_arr_3'
p124
F0.64
sS'velocities_arr_4'
p125
F0.64
sS'velocities_arr_5'
p126
F0.64
sS'velocities_arr_6'
p127
I0
sS'velocities_arr_1'
p128
F0.7
sS'velocities_arr_8'
p129
I0
sS'velocities_arr_9'
p130
I0
sg42
I130
sg43
I185
sS'velocities_arr_7'
p131
I0
sS'category_exercise_name_12'
p132
I0
sS'category_exercise_name_13'
p133
I0
sS'category_exercise_name_10'
p134
I0
sS'category_exercise_name_11'
p135
I0
sg49
I6
sg50
I6
sS'category_exercise_name_0'
p136
I0
sS'category_exercise_name_1'
p137
I0
sS'velocities_arr_10'
p138
I0
sS'category_exercise_name_3'
p139
I0
sS'category_exercise_name_4'
p140
I0
sS'category_exercise_name_5'
p141
I0
sS'category_exercise_name_6'
p142
I0
sS'category_exercise_name_7'
p143
I0
sS'category_exercise_name_8'
p144
I0
sS'category_exercise_name_9'
p145
I0
sg61
I2
sg62
I0
sS'category_exercise_name_2'
p146
I1
sg64
I0
sS'velocities_arr_11'
p147
I0
sg66
I0
sg27
I0
sa(dp148
g4
I1
sS'velocities_arr_0'
p149
F0.76
sS'velocities_arr_2'
p150
F0.68
sS'velocities_arr_3'
p151
F0.67
sS'velocities_arr_4'
p152
F0.62
sS'velocities_arr_5'
p153
F0.6
sS'velocities_arr_6'
p154
I0
sS'velocities_arr_1'
p155
F0.76
sS'velocities_arr_8'
p156
I0
sS'velocities_arr_9'
p157
I0
sg42
I146
sg43
I175
sS'velocities_arr_7'
p158
I0
sS'category_exercise_name_12'
p159
I0
sS'category_exercise_name_13'
p160
I0
sS'category_exercise_name_10'
p161
I0
sS'category_exercise_name_11'
p162
I0
sg49
I6
sg50
I6
sS'category_exercise_name_0'
p163
I0
sS'category_exercise_name_1'
p164
I0
sS'velocities_arr_10'
p165
I0
sS'category_exercise_name_3'
p166
I0
sS'category_exercise_name_4'
p167
I0
sS'category_exercise_name_5'
p168
I0
sS'category_exercise_name_6'
p169
I0
sS'category_exercise_name_7'
p170
I0
sS'category_exercise_name_8'
p171
I0
sS'category_exercise_name_9'
p172
I0
sg61
I3
sg62
I0
sS'category_exercise_name_2'
p173
I1
sg64
I0
sS'velocities_arr_11'
p174
I0
sg66
I0
sg27
I0
sa(dp175
g4
I1
sS'velocities_arr_0'
p176
F0.85
sS'velocities_arr_2'
p177
F0.77
sS'velocities_arr_3'
p178
F0.69
sS'velocities_arr_4'
p179
F0.68
sS'velocities_arr_5'
p180
F0.7
sS'velocities_arr_6'
p181
I0
sS'velocities_arr_1'
p182
F0.8
sS'velocities_arr_8'
p183
I0
sS'velocities_arr_9'
p184
I0
sg42
I149
sg43
I165
sS'velocities_arr_7'
p185
I0
sS'category_exercise_name_12'
p186
I0
sS'category_exercise_name_13'
p187
I0
sS'category_exercise_name_10'
p188
I0
sS'category_exercise_name_11'
p189
I0
sg49
I6
sg50
I6
sS'category_exercise_name_0'
p190
I0
sS'category_exercise_name_1'
p191
I0
sS'velocities_arr_10'
p192
I0
sS'category_exercise_name_3'
p193
I0
sS'category_exercise_name_4'
p194
I0
sS'category_exercise_name_5'
p195
I0
sS'category_exercise_name_6'
p196
I0
sS'category_exercise_name_7'
p197
I0
sS'category_exercise_name_8'
p198
I0
sS'category_exercise_name_9'
p199
I0
sg61
I4
sg62
I0
sS'category_exercise_name_2'
p200
I1
sg64
I0
sS'velocities_arr_11'
p201
I0
sg66
I0
sg27
I0
sa(dp202
g4
I1
sS'velocities_arr_0'
p203
F0.76
sS'velocities_arr_2'
p204
F0.69
sS'velocities_arr_3'
p205
F0.59
sS'velocities_arr_4'
p206
F0.58
sS'velocities_arr_5'
p207
F0.62
sS'velocities_arr_6'
p208
I0
sS'velocities_arr_1'
p209
F0.74
sS'velocities_arr_8'
p210
I0
sS'velocities_arr_9'
p211
I0
sg42
I149
sg43
I170
sS'velocities_arr_7'
p212
I0
sS'category_exercise_name_12'
p213
I0
sS'category_exercise_name_13'
p214
I0
sS'category_exercise_name_10'
p215
I0
sS'category_exercise_name_11'
p216
I0
sg49
I6
sg50
I6
sS'category_exercise_name_0'
p217
I0
sS'category_exercise_name_1'
p218
I0
sS'velocities_arr_10'
p219
I0
sS'category_exercise_name_3'
p220
I0
sS'category_exercise_name_4'
p221
I0
sS'category_exercise_name_5'
p222
I0
sS'category_exercise_name_6'
p223
I0
sS'category_exercise_name_7'
p224
I0
sS'category_exercise_name_8'
p225
I0
sS'category_exercise_name_9'
p226
I0
sg61
I5
sg62
I0
sS'category_exercise_name_2'
p227
I1
sg64
I0
sS'velocities_arr_11'
p228
I0
sg66
I0
sg27
I0
sa(dp229
g4
I1
sS'velocities_arr_0'
p230
F1.92
sS'velocities_arr_2'
p231
F2.41
sS'velocities_arr_3'
p232
F1.96
sS'velocities_arr_4'
p233
F1.65
sS'velocities_arr_5'
p234
F1.68
sS'velocities_arr_6'
p235
I0
sS'velocities_arr_1'
p236
F2.12
sS'velocities_arr_8'
p237
I0
sS'velocities_arr_9'
p238
I0
sg42
I116
sg43
I45
sS'velocities_arr_7'
p239
I0
sS'category_exercise_name_12'
p240
I0
sS'category_exercise_name_13'
p241
I0
sS'category_exercise_name_10'
p242
I0
sS'category_exercise_name_11'
p243
I0
sg49
I6
sg50
I6
sS'category_exercise_name_0'
p244
I0
sS'category_exercise_name_1'
p245
I0
sS'velocities_arr_10'
p246
I0
sS'category_exercise_name_3'
p247
I1
sS'category_exercise_name_4'
p248
I0
sS'category_exercise_name_5'
p249
I0
sS'category_exercise_name_6'
p250
I0
sS'category_exercise_name_7'
p251
I0
sS'category_exercise_name_8'
p252
I0
sS'category_exercise_name_9'
p253
I0
sg61
I6
sg62
I0
sS'category_exercise_name_2'
p254
I0
sg64
I0
sS'velocities_arr_11'
p255
I0
sg66
I0
sg27
I0
sa(dp256
g4
I1
sS'velocities_arr_0'
p257
F0.94
sS'velocities_arr_2'
p258
F0.88
sS'velocities_arr_3'
p259
F0.9
sS'velocities_arr_4'
p260
F0.0
sS'velocities_arr_5'
p261
F0.84
sS'velocities_arr_6'
p262
I0
sS'velocities_arr_1'
p263
F0.84
sS'velocities_arr_8'
p264
I0
sS'velocities_arr_9'
p265
I0
sg42
I125
sg43
I95
sS'velocities_arr_7'
p266
I0
sS'category_exercise_name_12'
p267
I0
sS'category_exercise_name_13'
p268
I0
sS'category_exercise_name_10'
p269
I0
sS'category_exercise_name_11'
p270
I0
sg49
I6
sg50
I6
sS'category_exercise_name_0'
p271
I0
sS'category_exercise_name_1'
p272
I0
sS'velocities_arr_10'
p273
I0
sS'category_exercise_name_3'
p274
I1
sS'category_exercise_name_4'
p275
I0
sS'category_exercise_name_5'
p276
I0
sS'category_exercise_name_6'
p277
I0
sS'category_exercise_name_7'
p278
I0
sS'category_exercise_name_8'
p279
I0
sS'category_exercise_name_9'
p280
I0
sg61
I7
sg62
I0
sS'category_exercise_name_2'
p281
I0
sg64
I0
sS'velocities_arr_11'
p282
I0
sg66
I0
sg27
I0
sa(dp283
g4
I1
sS'velocities_arr_0'
p284
F0.85
sS'velocities_arr_2'
p285
F0.73
sS'velocities_arr_3'
p286
F0.71
sS'velocities_arr_4'
p287
F0.69
sS'velocities_arr_5'
p288
F0.64
sS'velocities_arr_6'
p289
I0
sS'velocities_arr_1'
p290
F0.78
sS'velocities_arr_8'
p291
I0
sS'velocities_arr_9'
p292
I0
sg42
I118
sg43
I105
sS'velocities_arr_7'
p293
I0
sS'category_exercise_name_12'
p294
I0
sS'category_exercise_name_13'
p295
I0
sS'category_exercise_name_10'
p296
I0
sS'category_exercise_name_11'
p297
I0
sg49
I6
sg50
I6
sS'category_exercise_name_0'
p298
I0
sS'category_exercise_name_1'
p299
I0
sS'velocities_arr_10'
p300
I0
sS'category_exercise_name_3'
p301
I1
sS'category_exercise_name_4'
p302
I0
sS'category_exercise_name_5'
p303
I0
sS'category_exercise_name_6'
p304
I0
sS'category_exercise_name_7'
p305
I0
sS'category_exercise_name_8'
p306
I0
sS'category_exercise_name_9'
p307
I0
sg61
I8
sg62
I0
sS'category_exercise_name_2'
p308
I0
sg64
I0
sS'velocities_arr_11'
p309
I0
sg66
I0
sg27
I0
sa(dp310
g4
I1
sS'velocities_arr_0'
p311
F0.9
sS'velocities_arr_2'
p312
F0.78
sS'velocities_arr_3'
p313
F0.76
sS'velocities_arr_4'
p314
F0.73
sS'velocities_arr_5'
p315
F0.73
sS'velocities_arr_6'
p316
I0
sS'velocities_arr_1'
p317
F0.83
sS'velocities_arr_8'
p318
I0
sS'velocities_arr_9'
p319
I0
sg42
I122
sg43
I105
sS'velocities_arr_7'
p320
I0
sS'category_exercise_name_12'
p321
I0
sS'category_exercise_name_13'
p322
I0
sS'category_exercise_name_10'
p323
I0
sS'category_exercise_name_11'
p324
I0
sg49
I6
sg50
I6
sS'category_exercise_name_0'
p325
I0
sS'category_exercise_name_1'
p326
I0
sS'velocities_arr_10'
p327
I0
sS'category_exercise_name_3'
p328
I1
sS'category_exercise_name_4'
p329
I0
sS'category_exercise_name_5'
p330
I0
sS'category_exercise_name_6'
p331
I0
sS'category_exercise_name_7'
p332
I0
sS'category_exercise_name_8'
p333
I0
sS'category_exercise_name_9'
p334
I0
sg61
I9
sg62
I0
sS'category_exercise_name_2'
p335
I0
sg64
I0
sS'velocities_arr_11'
p336
I0
sg66
I0
sg27
I0
sa(dp337
g4
I1
sS'velocities_arr_0'
p338
F0.85
sS'velocities_arr_2'
p339
F0.66
sS'velocities_arr_3'
p340
F0.69
sS'velocities_arr_4'
p341
F0.62
sS'velocities_arr_5'
p342
F0.62
sS'velocities_arr_6'
p343
I0
sS'velocities_arr_1'
p344
F0.81
sS'velocities_arr_8'
p345
I0
sS'velocities_arr_9'
p346
I0
sg42
I130
sg43
I110
sS'velocities_arr_7'
p347
I0
sS'category_exercise_name_12'
p348
I0
sS'category_exercise_name_13'
p349
I0
sS'category_exercise_name_10'
p350
I0
sS'category_exercise_name_11'
p351
I0
sg49
I6
sg50
I6
sS'category_exercise_name_0'
p352
I0
sS'category_exercise_name_1'
p353
I0
sS'velocities_arr_10'
p354
I0
sS'category_exercise_name_3'
p355
I1
sS'category_exercise_name_4'
p356
I0
sS'category_exercise_name_5'
p357
I0
sS'category_exercise_name_6'
p358
I0
sS'category_exercise_name_7'
p359
I0
sS'category_exercise_name_8'
p360
I0
sS'category_exercise_name_9'
p361
I0
sg61
I10
sg62
I0
sS'category_exercise_name_2'
p362
I0
sg64
I0
sS'velocities_arr_11'
p363
I0
sg66
I0
sg27
I0
sa(dp364
g4
I1
sS'velocities_arr_0'
p365
F0.76
sS'velocities_arr_2'
p366
F0.63
sS'velocities_arr_3'
p367
F0.59
sS'velocities_arr_4'
p368
F0.58
sS'velocities_arr_5'
p369
F0.63
sS'velocities_arr_6'
p370
I0
sS'velocities_arr_1'
p371
F0.75
sS'velocities_arr_8'
p372
I0
sS'velocities_arr_9'
p373
I0
sg42
I124
sg43
I110
sS'velocities_arr_7'
p374
I0
sS'category_exercise_name_12'
p375
I0
sS'category_exercise_name_13'
p376
I0
sS'category_exercise_name_10'
p377
I0
sS'category_exercise_name_11'
p378
I0
sg49
I6
sg50
I6
sS'category_exercise_name_0'
p379
I0
sS'category_exercise_name_1'
p380
I0
sS'velocities_arr_10'
p381
I0
sS'category_exercise_name_3'
p382
I1
sS'category_exercise_name_4'
p383
I0
sS'category_exercise_name_5'
p384
I0
sS'category_exercise_name_6'
p385
I0
sS'category_exercise_name_7'
p386
I0
sS'category_exercise_name_8'
p387
I0
sS'category_exercise_name_9'
p388
I0
sg61
I11
sg62
I0
sS'category_exercise_name_2'
p389
I0
sg64
I0
sS'velocities_arr_11'
p390
I0
sg66
I0
sg27
I0
sa(dp391
g4
I1
sS'velocities_arr_0'
p392
F0.7
sS'velocities_arr_2'
p393
I0
sS'velocities_arr_3'
p394
I0
sS'velocities_arr_4'
p395
I0
sS'velocities_arr_5'
p396
I0
sS'velocities_arr_6'
p397
I0
sS'velocities_arr_1'
p398
I0
sS'velocities_arr_8'
p399
I0
sS'velocities_arr_9'
p400
I0
sg42
I131
sg43
I135
sS'velocities_arr_7'
p401
I0
sS'category_exercise_name_12'
p402
I0
sS'category_exercise_name_13'
p403
I0
sS'category_exercise_name_10'
p404
I0
sS'category_exercise_name_11'
p405
I0
sg49
I1
sg50
I1
sS'category_exercise_name_0'
p406
I1
sS'category_exercise_name_1'
p407
I0
sS'velocities_arr_10'
p408
I0
sS'category_exercise_name_3'
p409
I0
sS'category_exercise_name_4'
p410
I0
sS'category_exercise_name_5'
p411
I0
sS'category_exercise_name_6'
p412
I0
sS'category_exercise_name_7'
p413
I0
sS'category_exercise_name_8'
p414
I0
sS'category_exercise_name_9'
p415
I0
sg61
I12
sg62
I0
sS'category_exercise_name_2'
p416
I0
sg64
I0
sS'velocities_arr_11'
p417
I0
sg66
I0
sg27
I0
sa(dp418
g4
I1
sS'velocities_arr_0'
p419
F0.67
sS'velocities_arr_2'
p420
I0
sS'velocities_arr_3'
p421
I0
sS'velocities_arr_4'
p422
I0
sS'velocities_arr_5'
p423
I0
sS'velocities_arr_6'
p424
I0
sS'velocities_arr_1'
p425
I0
sS'velocities_arr_8'
p426
I0
sS'velocities_arr_9'
p427
I0
sg42
I128
sg43
I135
sS'velocities_arr_7'
p428
I0
sS'category_exercise_name_12'
p429
I0
sS'category_exercise_name_13'
p430
I0
sS'category_exercise_name_10'
p431
I0
sS'category_exercise_name_11'
p432
I0
sg49
I1
sg50
I1
sS'category_exercise_name_0'
p433
I1
sS'category_exercise_name_1'
p434
I0
sS'velocities_arr_10'
p435
I0
sS'category_exercise_name_3'
p436
I0
sS'category_exercise_name_4'
p437
I0
sS'category_exercise_name_5'
p438
I0
sS'category_exercise_name_6'
p439
I0
sS'category_exercise_name_7'
p440
I0
sS'category_exercise_name_8'
p441
I0
sS'category_exercise_name_9'
p442
I0
sg61
I13
sg62
I0
sS'category_exercise_name_2'
p443
I0
sg64
I0
sS'velocities_arr_11'
p444
I0
sg66
I0
sg27
I0
sa(dp445
g4
I1
sS'velocities_arr_0'
p446
F0.71
sS'velocities_arr_2'
p447
I0
sS'velocities_arr_3'
p448
I0
sS'velocities_arr_4'
p449
I0
sS'velocities_arr_5'
p450
I0
sS'velocities_arr_6'
p451
I0
sS'velocities_arr_1'
p452
I0
sS'velocities_arr_8'
p453
I0
sS'velocities_arr_9'
p454
I0
sg42
I131
sg43
I135
sS'velocities_arr_7'
p455
I0
sS'category_exercise_name_12'
p456
I0
sS'category_exercise_name_13'
p457
I0
sS'category_exercise_name_10'
p458
I0
sS'category_exercise_name_11'
p459
I0
sg49
I1
sg50
I1
sS'category_exercise_name_0'
p460
I1
sS'category_exercise_name_1'
p461
I0
sS'velocities_arr_10'
p462
I0
sS'category_exercise_name_3'
p463
I0
sS'category_exercise_name_4'
p464
I0
sS'category_exercise_name_5'
p465
I0
sS'category_exercise_name_6'
p466
I0
sS'category_exercise_name_7'
p467
I0
sS'category_exercise_name_8'
p468
I0
sS'category_exercise_name_9'
p469
I0
sg61
I14
sg62
I0
sS'category_exercise_name_2'
p470
I0
sg64
I0
sS'velocities_arr_11'
p471
I0
sg66
I0
sg27
I0
sa(dp472
g4
I1
sS'velocities_arr_0'
p473
F0.9
sS'velocities_arr_2'
p474
I0
sS'velocities_arr_3'
p475
I0
sS'velocities_arr_4'
p476
I0
sS'velocities_arr_5'
p477
I0
sS'velocities_arr_6'
p478
I0
sS'velocities_arr_1'
p479
I0
sS'velocities_arr_8'
p480
I0
sS'velocities_arr_9'
p481
I0
sg42
I125
sg43
I145
sS'velocities_arr_7'
p482
I0
sS'category_exercise_name_12'
p483
I0
sS'category_exercise_name_13'
p484
I0
sS'category_exercise_name_10'
p485
I0
sS'category_exercise_name_11'
p486
I0
sg49
I1
sg50
I1
sS'category_exercise_name_0'
p487
I1
sS'category_exercise_name_1'
p488
I0
sS'velocities_arr_10'
p489
I0
sS'category_exercise_name_3'
p490
I0
sS'category_exercise_name_4'
p491
I0
sS'category_exercise_name_5'
p492
I0
sS'category_exercise_name_6'
p493
I0
sS'category_exercise_name_7'
p494
I0
sS'category_exercise_name_8'
p495
I0
sS'category_exercise_name_9'
p496
I0
sg61
I15
sg62
I0
sS'category_exercise_name_2'
p497
I0
sg64
I0
sS'velocities_arr_11'
p498
I0
sg66
I0
sg27
I0
sa(dp499
g4
I1
sS'velocities_arr_0'
p500
F0.77
sS'velocities_arr_2'
p501
I0
sS'velocities_arr_3'
p502
I0
sS'velocities_arr_4'
p503
I0
sS'velocities_arr_5'
p504
I0
sS'velocities_arr_6'
p505
I0
sS'velocities_arr_1'
p506
I0
sS'velocities_arr_8'
p507
I0
sS'velocities_arr_9'
p508
I0
sg42
I125
sg43
I155
sS'velocities_arr_7'
p509
I0
sS'category_exercise_name_12'
p510
I0
sS'category_exercise_name_13'
p511
I0
sS'category_exercise_name_10'
p512
I0
sS'category_exercise_name_11'
p513
I0
sg49
I1
sg50
I1
sS'category_exercise_name_0'
p514
I1
sS'category_exercise_name_1'
p515
I0
sS'velocities_arr_10'
p516
I0
sS'category_exercise_name_3'
p517
I0
sS'category_exercise_name_4'
p518
I0
sS'category_exercise_name_5'
p519
I0
sS'category_exercise_name_6'
p520
I0
sS'category_exercise_name_7'
p521
I0
sS'category_exercise_name_8'
p522
I0
sS'category_exercise_name_9'
p523
I0
sg61
I16
sg62
I0
sS'category_exercise_name_2'
p524
I0
sg64
I0
sS'velocities_arr_11'
p525
I0
sg66
I0
sg27
I0
sa(dp526
g4
I1
sS'velocities_arr_0'
p527
F1.46
sS'velocities_arr_2'
p528
I0
sS'velocities_arr_3'
p529
I0
sS'velocities_arr_4'
p530
I0
sS'velocities_arr_5'
p531
I0
sS'velocities_arr_6'
p532
I0
sS'velocities_arr_1'
p533
I0
sS'velocities_arr_8'
p534
I0
sS'velocities_arr_9'
p535
I0
sg42
I123
sg43
I175
sS'velocities_arr_7'
p536
I0
sS'category_exercise_name_12'
p537
I0
sS'category_exercise_name_13'
p538
I0
sS'category_exercise_name_10'
p539
I0
sS'category_exercise_name_11'
p540
I0
sg49
I1
sg50
I1
sS'category_exercise_name_0'
p541
I1
sS'category_exercise_name_1'
p542
I0
sS'velocities_arr_10'
p543
I0
sS'category_exercise_name_3'
p544
I0
sS'category_exercise_name_4'
p545
I0
sS'category_exercise_name_5'
p546
I0
sS'category_exercise_name_6'
p547
I0
sS'category_exercise_name_7'
p548
I0
sS'category_exercise_name_8'
p549
I0
sS'category_exercise_name_9'
p550
I0
sg61
I17
sg62
I0
sS'category_exercise_name_2'
p551
I0
sg64
I0
sS'velocities_arr_11'
p552
I0
sg66
I0
sg27
I0
sa(dp553
g4
I1
sS'velocities_arr_0'
p554
F0.61
sS'velocities_arr_2'
p555
I0
sS'velocities_arr_3'
p556
I0
sS'velocities_arr_4'
p557
I0
sS'velocities_arr_5'
p558
I0
sS'velocities_arr_6'
p559
I0
sS'velocities_arr_1'
p560
I0
sS'velocities_arr_8'
p561
I0
sS'velocities_arr_9'
p562
I0
sg42
I125
sg43
I185
sS'velocities_arr_7'
p563
I0
sS'category_exercise_name_12'
p564
I0
sS'category_exercise_name_13'
p565
I0
sS'category_exercise_name_10'
p566
I0
sS'category_exercise_name_11'
p567
I0
sg49
I1
sg50
I1
sS'category_exercise_name_0'
p568
I1
sS'category_exercise_name_1'
p569
I0
sS'velocities_arr_10'
p570
I0
sS'category_exercise_name_3'
p571
I0
sS'category_exercise_name_4'
p572
I0
sS'category_exercise_name_5'
p573
I0
sS'category_exercise_name_6'
p574
I0
sS'category_exercise_name_7'
p575
I0
sS'category_exercise_name_8'
p576
I0
sS'category_exercise_name_9'
p577
I0
sg61
I18
sg62
I0
sS'category_exercise_name_2'
p578
I0
sg64
I0
sS'velocities_arr_11'
p579
I0
sg66
I0
sg27
I0
sa(dp580
g4
I1
sS'velocities_arr_0'
p581
F0.65
sS'velocities_arr_2'
p582
I0
sS'velocities_arr_3'
p583
I0
sS'velocities_arr_4'
p584
I0
sS'velocities_arr_5'
p585
I0
sS'velocities_arr_6'
p586
I0
sS'velocities_arr_1'
p587
I0
sS'velocities_arr_8'
p588
I0
sS'velocities_arr_9'
p589
I0
sg42
I125
sg43
I175
sS'velocities_arr_7'
p590
I0
sS'category_exercise_name_12'
p591
I0
sS'category_exercise_name_13'
p592
I0
sS'category_exercise_name_10'
p593
I0
sS'category_exercise_name_11'
p594
I0
sg49
I1
sg50
I1
sS'category_exercise_name_0'
p595
I1
sS'category_exercise_name_1'
p596
I0
sS'velocities_arr_10'
p597
I0
sS'category_exercise_name_3'
p598
I0
sS'category_exercise_name_4'
p599
I0
sS'category_exercise_name_5'
p600
I0
sS'category_exercise_name_6'
p601
I0
sS'category_exercise_name_7'
p602
I0
sS'category_exercise_name_8'
p603
I0
sS'category_exercise_name_9'
p604
I0
sg61
I19
sg62
I0
sS'category_exercise_name_2'
p605
I0
sg64
I0
sS'velocities_arr_11'
p606
I0
sg66
I0
sg27
I0
sa(dp607
g4
I1
sS'velocities_arr_0'
p608
F0.68
sS'velocities_arr_2'
p609
I0
sS'velocities_arr_3'
p610
I0
sS'velocities_arr_4'
p611
I0
sS'velocities_arr_5'
p612
I0
sS'velocities_arr_6'
p613
I0
sS'velocities_arr_1'
p614
I0
sS'velocities_arr_8'
p615
I0
sS'velocities_arr_9'
p616
I0
sg42
I124
sg43
I165
sS'velocities_arr_7'
p617
I0
sS'category_exercise_name_12'
p618
I0
sS'category_exercise_name_13'
p619
I0
sS'category_exercise_name_10'
p620
I0
sS'category_exercise_name_11'
p621
I0
sg49
I1
sg50
I1
sS'category_exercise_name_0'
p622
I1
sS'category_exercise_name_1'
p623
I0
sS'velocities_arr_10'
p624
I0
sS'category_exercise_name_3'
p625
I0
sS'category_exercise_name_4'
p626
I0
sS'category_exercise_name_5'
p627
I0
sS'category_exercise_name_6'
p628
I0
sS'category_exercise_name_7'
p629
I0
sS'category_exercise_name_8'
p630
I0
sS'category_exercise_name_9'
p631
I0
sg61
I20
sg62
I0
sS'category_exercise_name_2'
p632
I0
sg64
I0
sS'velocities_arr_11'
p633
I0
sg66
I0
sg27
I0
sa(dp634
g4
I1
sg33
I0
sg34
I0
sg35
I0
sg36
I0
sg37
I0
sg38
I0
sg39
I0
sg40
I0
sg41
I0
sg42
I-1
sg43
I160
sg44
I0
sg45
I0
sg46
I0
sg47
I0
sg48
I0
sg53
I0
sg49
I-1
sg50
I1
sg51
I1
sg52
I0
sg63
I0
sg54
I0
sg55
I0
sg56
I0
sg57
I0
sg58
I0
sg59
I0
sg60
I0
sg61
I21
sg62
I-1
sg64
I0
sg65
I0
sg66
I-1
sg27
I0
sasS'workouty'
p635
(dp636
S'velocities_arr_0'
p637
F1.67
sS'velocities_arr_1'
p638
I0
sS'velocities_arr_2'
p639
I0
sS'velocities_arr_3'
p640
I0
sS'velocities_arr_4'
p641
I0
sS'velocities_arr_5'
p642
I0
sS'velocities_arr_6'
p643
I0
sS'velocities_arr_7'
p644
I0
sg49
I1
sS'velocities_arr_9'
p645
I0
sg42
I117
sS'velocities_arr_10'
p646
I0
sS'velocities_arr_8'
p647
I0
sg62
I0
sS'velocities_arr_11'
p648
I0
sg66
I0
ssS'userx'
p649
(dp650
S'harris_benedict_bmr'
p651
I-1
sS'height_inches'
p652
F70.0
sS'genetically_gifted'
p653
I0
sS'wrist_width_inches'
p654
I7
sS'years_old'
p655
I31
sS'ankle_width_inches'
p656
I9
sS'sex_is_male'
p657
I1
ssS'dayy'
p658
(dp659
g10
F164.4
sg21
I85
sg6
F56.3
sg25
F7.4
sg15
F81.1
sg18
F4.0
sg9
F14.9
ss.