(dp0
S'dayseriesx'
p1
(lp2
(dp3
S'day_number'
p4
I-1
sS'sleeptime_awake_hrs'
p5
I-1
sS'withings_body_water_percent'
p6
I-1
sS'heart_rate_variability_rmssd'
p7
I-1
sS'sleeptime_deep_rem_hrs'
p8
I-1
sS'withings_body_fat_percent'
p9
I-1
sS'withings_weight_lbs'
p10
I-1
sS'sleeptime_efficiency_percent'
p11
I-1
sS'post_day_calories_in'
p12
I-1
sS'post_day_fat_g'
p13
I-1
sS'sleeptime_bed_time_ampm_index'
p14
I-1
sS'withings_muscle_mass_percent'
p15
I-1
sS'days_since_last_recorded_day'
p16
I-1
sS'sleeptime_alarm_ring_ampm_index'
p17
I-1
sS'withings_bone_mass_percent'
p18
I-1
sS'sleeptime_snoozed'
p19
I-1
sS'sleeptime_light_sleep_hrs'
p20
I-1
sS'withings_heart_rate_bpm'
p21
I-1
sS'sleeptime_alarm_set_ampm_index'
p22
I-1
sS'post_day_protein_g'
p23
I-1
sS'post_day_wearable_calories_burned'
p24
I-1
sS'withings_pulse_wave_velocity_m_per_s'
p25
I-1
sS'sleeptime_rise_time_ampm_index'
p26
I-1
sS'days_since_last_workout'
p27
I-1
sS'post_day_carbs_g'
p28
I-1
sag3
ag3
ag3
ag3
ag3
ag3
a(dp29
g4
I0
sg5
F4.833333333333333
sg6
F55.7
sg7
I-1
sg8
F2.9166666666666665
sg9
F16.0
sg10
F163.5
sg11
F47.0
sg12
I-1
sg13
I-1
sg14
I566
sg15
F80.0
sg16
F0.0
sg17
I1440
sg18
F4.0
sg19
I0
sg20
F1.3666666666666667
sg21
I77
sg22
I421
sg23
I-1
sg24
I-1
sg25
F7.8
sg26
I395
sg27
I0
sg28
I-1
sa(dp30
g4
I1
sg5
F0.3333333333333333
sg6
F55.4
sg7
I-1
sg8
F2.8
sg9
F16.6
sg10
F162.5
sg11
F96.0
sg12
I-1
sg13
I-1
sg14
I710
sg15
F79.4
sg16
F1.0
sg17
I1440
sg18
F4.0
sg19
I0
sg20
F5.866666666666667
sg21
I75
sg22
I589
sg23
I-1
sg24
I-1
sg25
F7.7
sg26
I532
sg27
F1.0
sg28
I-1
sa(dp31
g4
I2
sg5
F0.9833333333333333
sg6
F55.9
sg7
I-1
sg8
F4.466666666666667
sg9
F15.7
sg10
F163.5
sg11
F89.0
sg12
I-1
sg13
I-1
sg14
I1419
sg15
F80.4
sg16
F1.0
sg17
I1440
sg18
F4.0
sg19
I0
sg20
F4.016666666666667
sg21
I-1
sg22
I589
sg23
I-1
sg24
I-1
sg25
I-1
sg26
I548
sg27
F2.0
sg28
I-1
sa(dp32
g4
I3
sg5
F0.9166666666666666
sg6
F56.4
sg7
I-1
sg8
F4.1
sg9
F14.8
sg10
F163.7
sg11
F88.0
sg12
I-1
sg13
I-1
sg14
I1389
sg15
F81.2
sg16
F1.0
sg17
I411
sg18
F4.0
sg19
I4
sg20
F3.1666666666666665
sg21
I86
sg22
I425
sg23
I-1
sg24
I-1
sg25
F7.4
sg26
I441
sg27
F0.0
sg28
I-1
sasS'workoutxseries'
p33
(lp34
(dp35
g4
I4
sS'velocities_arr_0'
p36
I0
sS'velocities_arr_2'
p37
I0
sS'velocities_arr_3'
p38
I0
sS'velocities_arr_4'
p39
I0
sS'velocities_arr_5'
p40
I0
sS'velocities_arr_6'
p41
I0
sS'velocities_arr_1'
p42
I0
sS'velocities_arr_8'
p43
I0
sS'velocities_arr_9'
p44
I0
sS'postset_heartrate'
p45
I-1
sS'weight_lbs'
p46
I-1
sS'velocities_arr_7'
p47
I0
sS'category_exercise_name_10'
p48
I0
sS'reps_completed'
p49
I-1
sS'reps_planned'
p50
I-1
sS'category_exercise_name_0'
p51
I0
sS'category_exercise_name_1'
p52
I0
sS'category_exercise_name_2'
p53
I0
sS'category_exercise_name_3'
p54
I0
sS'category_exercise_name_4'
p55
I0
sS'category_exercise_name_5'
p56
I0
sS'category_exercise_name_6'
p57
I0
sS'category_exercise_name_7'
p58
I0
sS'category_exercise_name_8'
p59
I0
sS'category_exercise_name_9'
p60
I0
sS'set_number_of_the_day'
p61
I3
sS'went_to_failure'
p62
I0
sS'velocities_arr_10'
p63
I0
sS'used_lifting_gear'
p64
I0
sS'velocities_arr_11'
p65
I0
sS'did_pull_muscle'
p66
I0
sg27
I0
sag35
ag35
ag35
ag35
ag35
ag35
ag35
ag35
ag35
ag35
ag35
ag35
ag35
ag35
ag35
ag35
ag35
ag35
ag35
ag35
a(dp67
g4
I1
sS'velocities_arr_0'
p68
F1.11
sS'velocities_arr_2'
p69
F1.08
sS'velocities_arr_3'
p70
F1.12
sS'velocities_arr_4'
p71
F1.62
sS'velocities_arr_5'
p72
I0
sS'velocities_arr_6'
p73
I0
sS'velocities_arr_1'
p74
F1.07
sS'velocities_arr_8'
p75
I0
sS'velocities_arr_9'
p76
I0
sg45
I107
sg46
I45
sS'velocities_arr_7'
p77
I0
sS'category_exercise_name_10'
p78
I0
sg49
I5
sg50
I5
sS'category_exercise_name_0'
p79
I0
sS'category_exercise_name_1'
p80
I0
sS'velocities_arr_10'
p81
I0
sS'category_exercise_name_3'
p82
I0
sS'category_exercise_name_4'
p83
I0
sS'category_exercise_name_5'
p84
I0
sS'category_exercise_name_6'
p85
I0
sS'category_exercise_name_7'
p86
I0
sS'category_exercise_name_8'
p87
I0
sS'category_exercise_name_9'
p88
I0
sg61
I0
sg62
I0
sS'category_exercise_name_2'
p89
I1
sg64
I0
sS'velocities_arr_11'
p90
I0
sg66
I0
sg27
I0
sa(dp91
g4
I1
sS'velocities_arr_0'
p92
F0.77
sS'velocities_arr_2'
p93
F0.83
sS'velocities_arr_3'
p94
F0.79
sS'velocities_arr_4'
p95
F0.77
sS'velocities_arr_5'
p96
I0
sS'velocities_arr_6'
p97
I0
sS'velocities_arr_1'
p98
F0.82
sS'velocities_arr_8'
p99
I0
sS'velocities_arr_9'
p100
I0
sg45
I125
sg46
I135
sS'velocities_arr_7'
p101
I0
sS'category_exercise_name_10'
p102
I0
sg49
I5
sg50
I5
sS'category_exercise_name_0'
p103
I0
sS'category_exercise_name_1'
p104
I0
sS'velocities_arr_10'
p105
I0
sS'category_exercise_name_3'
p106
I0
sS'category_exercise_name_4'
p107
I0
sS'category_exercise_name_5'
p108
I0
sS'category_exercise_name_6'
p109
I0
sS'category_exercise_name_7'
p110
I0
sS'category_exercise_name_8'
p111
I0
sS'category_exercise_name_9'
p112
I0
sg61
I1
sg62
I0
sS'category_exercise_name_2'
p113
I1
sg64
I0
sS'velocities_arr_11'
p114
I0
sg66
I0
sg27
I0
sa(dp115
g4
I1
sS'velocities_arr_0'
p116
F0.68
sS'velocities_arr_2'
p117
F0.65
sS'velocities_arr_3'
p118
F0.63
sS'velocities_arr_4'
p119
F0.61
sS'velocities_arr_5'
p120
I0
sS'velocities_arr_6'
p121
I0
sS'velocities_arr_1'
p122
F0.69
sS'velocities_arr_8'
p123
I0
sS'velocities_arr_9'
p124
I0
sg45
I131
sg46
I185
sS'velocities_arr_7'
p125
I0
sS'category_exercise_name_10'
p126
I0
sg49
I5
sg50
I5
sS'category_exercise_name_0'
p127
I0
sS'category_exercise_name_1'
p128
I0
sS'velocities_arr_10'
p129
I0
sS'category_exercise_name_3'
p130
I0
sS'category_exercise_name_4'
p131
I0
sS'category_exercise_name_5'
p132
I0
sS'category_exercise_name_6'
p133
I0
sS'category_exercise_name_7'
p134
I0
sS'category_exercise_name_8'
p135
I0
sS'category_exercise_name_9'
p136
I0
sg61
I2
sg62
I0
sS'category_exercise_name_2'
p137
I1
sg64
I0
sS'velocities_arr_11'
p138
I0
sg66
I0
sg27
I0
sa(dp139
g4
I1
sS'velocities_arr_0'
p140
F0.64
sS'velocities_arr_2'
p141
F0.62
sS'velocities_arr_3'
p142
F0.57
sS'velocities_arr_4'
p143
F0.56
sS'velocities_arr_5'
p144
I0
sS'velocities_arr_6'
p145
I0
sS'velocities_arr_1'
p146
F0.63
sS'velocities_arr_8'
p147
I0
sS'velocities_arr_9'
p148
I0
sg45
I141
sg46
I205
sS'velocities_arr_7'
p149
I0
sS'category_exercise_name_10'
p150
I0
sg49
I5
sg50
I5
sS'category_exercise_name_0'
p151
I0
sS'category_exercise_name_1'
p152
I0
sS'velocities_arr_10'
p153
I0
sS'category_exercise_name_3'
p154
I0
sS'category_exercise_name_4'
p155
I0
sS'category_exercise_name_5'
p156
I0
sS'category_exercise_name_6'
p157
I0
sS'category_exercise_name_7'
p158
I0
sS'category_exercise_name_8'
p159
I0
sS'category_exercise_name_9'
p160
I0
sg61
I3
sg62
I0
sS'category_exercise_name_2'
p161
I1
sg64
I0
sS'velocities_arr_11'
p162
I0
sg66
I0
sg27
I0
sa(dp163
g4
I1
sS'velocities_arr_0'
p164
F0.62
sS'velocities_arr_2'
p165
F0.52
sS'velocities_arr_3'
p166
F0.51
sS'velocities_arr_4'
p167
F0.46
sS'velocities_arr_5'
p168
I0
sS'velocities_arr_6'
p169
I0
sS'velocities_arr_1'
p170
F0.57
sS'velocities_arr_8'
p171
I0
sS'velocities_arr_9'
p172
I0
sg45
I148
sg46
I225
sS'velocities_arr_7'
p173
I0
sS'category_exercise_name_10'
p174
I0
sg49
I5
sg50
I5
sS'category_exercise_name_0'
p175
I0
sS'category_exercise_name_1'
p176
I0
sS'velocities_arr_10'
p177
I0
sS'category_exercise_name_3'
p178
I0
sS'category_exercise_name_4'
p179
I0
sS'category_exercise_name_5'
p180
I0
sS'category_exercise_name_6'
p181
I0
sS'category_exercise_name_7'
p182
I0
sS'category_exercise_name_8'
p183
I0
sS'category_exercise_name_9'
p184
I0
sg61
I4
sg62
I0
sS'category_exercise_name_2'
p185
I1
sg64
I0
sS'velocities_arr_11'
p186
I0
sg66
I0
sg27
I0
sa(dp187
g4
I1
sS'velocities_arr_0'
p188
F0.71
sS'velocities_arr_2'
p189
F0.65
sS'velocities_arr_3'
p190
F0.65
sS'velocities_arr_4'
p191
F0.62
sS'velocities_arr_5'
p192
F0.61
sS'velocities_arr_6'
p193
F0.54
sS'velocities_arr_1'
p194
F0.57
sS'velocities_arr_8'
p195
F0.52
sS'velocities_arr_9'
p196
F0.49
sg45
I111
sg46
I105
sS'velocities_arr_7'
p197
F0.61
sS'category_exercise_name_10'
p198
I0
sg49
I12
sg50
I12
sS'category_exercise_name_0'
p199
I0
sS'category_exercise_name_1'
p200
I0
sS'velocities_arr_10'
p201
F0.47
sS'category_exercise_name_3'
p202
I1
sS'category_exercise_name_4'
p203
I0
sS'category_exercise_name_5'
p204
I0
sS'category_exercise_name_6'
p205
I0
sS'category_exercise_name_7'
p206
I0
sS'category_exercise_name_8'
p207
I0
sS'category_exercise_name_9'
p208
I0
sg61
I5
sg62
I0
sS'category_exercise_name_2'
p209
I0
sg64
I0
sS'velocities_arr_11'
p210
F0.47
sg66
I0
sg27
I0
sa(dp211
g4
I1
sS'velocities_arr_0'
p212
F0.56
sS'velocities_arr_2'
p213
F0.59
sS'velocities_arr_3'
p214
F0.61
sS'velocities_arr_4'
p215
F0.59
sS'velocities_arr_5'
p216
F0.57
sS'velocities_arr_6'
p217
F0.52
sS'velocities_arr_1'
p218
F0.62
sS'velocities_arr_8'
p219
I0
sS'velocities_arr_9'
p220
I0
sg45
I114
sg46
I115
sS'velocities_arr_7'
p221
F0.46
sS'category_exercise_name_10'
p222
I0
sg49
I8
sg50
I8
sS'category_exercise_name_0'
p223
I0
sS'category_exercise_name_1'
p224
I0
sS'velocities_arr_10'
p225
I0
sS'category_exercise_name_3'
p226
I1
sS'category_exercise_name_4'
p227
I0
sS'category_exercise_name_5'
p228
I0
sS'category_exercise_name_6'
p229
I0
sS'category_exercise_name_7'
p230
I0
sS'category_exercise_name_8'
p231
I0
sS'category_exercise_name_9'
p232
I0
sg61
I6
sg62
I0
sS'category_exercise_name_2'
p233
I0
sg64
I0
sS'velocities_arr_11'
p234
I0
sg66
I0
sg27
I0
sa(dp235
g4
I1
sS'velocities_arr_0'
p236
F0.49
sS'velocities_arr_2'
p237
F0.46
sS'velocities_arr_3'
p238
F0.43
sS'velocities_arr_4'
p239
F0.39
sS'velocities_arr_5'
p240
I0
sS'velocities_arr_6'
p241
I0
sS'velocities_arr_1'
p242
F0.51
sS'velocities_arr_8'
p243
I0
sS'velocities_arr_9'
p244
I0
sg45
I130
sg46
I125
sS'velocities_arr_7'
p245
I0
sS'category_exercise_name_10'
p246
I0
sg49
I5
sg50
I5
sS'category_exercise_name_0'
p247
I0
sS'category_exercise_name_1'
p248
I0
sS'velocities_arr_10'
p249
I0
sS'category_exercise_name_3'
p250
I1
sS'category_exercise_name_4'
p251
I0
sS'category_exercise_name_5'
p252
I0
sS'category_exercise_name_6'
p253
I0
sS'category_exercise_name_7'
p254
I0
sS'category_exercise_name_8'
p255
I0
sS'category_exercise_name_9'
p256
I0
sg61
I7
sg62
I0
sS'category_exercise_name_2'
p257
I0
sg64
I0
sS'velocities_arr_11'
p258
I0
sg66
I0
sg27
I0
sa(dp259
g4
I4
sS'velocities_arr_0'
p260
F0.49
sS'velocities_arr_2'
p261
F0.68
sS'velocities_arr_3'
p262
F0.61
sS'velocities_arr_4'
p263
F0.56
sS'velocities_arr_5'
p264
I0
sS'velocities_arr_6'
p265
I0
sS'velocities_arr_1'
p266
F0.82
sS'velocities_arr_8'
p267
I0
sS'velocities_arr_9'
p268
I0
sg45
I116
sg46
I185
sS'velocities_arr_7'
p269
I0
sS'category_exercise_name_10'
p270
I0
sg49
I5
sg50
I5
sS'category_exercise_name_0'
p271
I1
sS'category_exercise_name_1'
p272
I0
sS'velocities_arr_10'
p273
I0
sS'category_exercise_name_3'
p274
I0
sS'category_exercise_name_4'
p275
I0
sS'category_exercise_name_5'
p276
I0
sS'category_exercise_name_6'
p277
I0
sS'category_exercise_name_7'
p278
I0
sS'category_exercise_name_8'
p279
I0
sS'category_exercise_name_9'
p280
I0
sg61
I0
sg62
I0
sS'category_exercise_name_2'
p281
I0
sg64
I0
sS'velocities_arr_11'
p282
I0
sg66
I0
sg27
F0.0
sa(dp283
g4
I4
sS'velocities_arr_0'
p284
F0.59
sS'velocities_arr_2'
p285
F1.29
sS'velocities_arr_3'
p286
F1.29
sS'velocities_arr_4'
p287
F1.29
sS'velocities_arr_5'
p288
I0
sS'velocities_arr_6'
p289
I0
sS'velocities_arr_1'
p290
F0.55
sS'velocities_arr_8'
p291
I0
sS'velocities_arr_9'
p292
I0
sg45
I115
sg46
I225
sS'velocities_arr_7'
p293
I0
sS'category_exercise_name_10'
p294
I0
sg49
I5
sg50
I5
sS'category_exercise_name_0'
p295
I1
sS'category_exercise_name_1'
p296
I0
sS'velocities_arr_10'
p297
I0
sS'category_exercise_name_3'
p298
I0
sS'category_exercise_name_4'
p299
I0
sS'category_exercise_name_5'
p300
I0
sS'category_exercise_name_6'
p301
I0
sS'category_exercise_name_7'
p302
I0
sS'category_exercise_name_8'
p303
I0
sS'category_exercise_name_9'
p304
I0
sg61
I1
sg62
I0
sS'category_exercise_name_2'
p305
I0
sg64
I0
sS'velocities_arr_11'
p306
I0
sg66
I0
sg27
F0.0
sa(dp307
g4
I4
sS'velocities_arr_0'
p308
F0.53
sS'velocities_arr_2'
p309
F0.59
sS'velocities_arr_3'
p310
F0.54
sS'velocities_arr_4'
p311
F0.54
sS'velocities_arr_5'
p312
I0
sS'velocities_arr_6'
p313
I0
sS'velocities_arr_1'
p314
F0.56
sS'velocities_arr_8'
p315
I0
sS'velocities_arr_9'
p316
I0
sg45
I130
sg46
I245
sS'velocities_arr_7'
p317
I0
sS'category_exercise_name_10'
p318
I0
sg49
I5
sg50
I5
sS'category_exercise_name_0'
p319
I1
sS'category_exercise_name_1'
p320
I0
sS'velocities_arr_10'
p321
I0
sS'category_exercise_name_3'
p322
I0
sS'category_exercise_name_4'
p323
I0
sS'category_exercise_name_5'
p324
I0
sS'category_exercise_name_6'
p325
I0
sS'category_exercise_name_7'
p326
I0
sS'category_exercise_name_8'
p327
I0
sS'category_exercise_name_9'
p328
I0
sg61
I2
sg62
I0
sS'category_exercise_name_2'
p329
I0
sg64
I0
sS'velocities_arr_11'
p330
I0
sg66
I0
sg27
F0.0
sa(dp331
g4
I4
sg36
I0
sg37
I0
sg38
I0
sg39
I0
sg40
I0
sg41
I0
sg42
I0
sg43
I0
sg44
I0
sg45
I-1
sg46
I265
sg47
I0
sg48
I0
sg53
I0
sg49
I-1
sg50
I2
sg51
I1
sg52
I0
sg63
I0
sg54
I0
sg55
I0
sg56
I0
sg57
I0
sg58
I0
sg59
I0
sg60
I0
sg61
I3
sg62
I-1
sg64
I0
sg65
I0
sg66
I-1
sg27
F0.0
sasS'workouty'
p332
(dp333
S'velocities_arr_0'
p334
F0.5
sS'velocities_arr_1'
p335
F0.5
sS'velocities_arr_2'
p336
I0
sS'velocities_arr_3'
p337
I0
sS'velocities_arr_4'
p338
I0
sS'velocities_arr_5'
p339
I0
sS'velocities_arr_6'
p340
I0
sS'velocities_arr_7'
p341
I0
sg49
I2
sS'velocities_arr_9'
p342
I0
sg45
I121
sS'velocities_arr_10'
p343
I0
sS'velocities_arr_8'
p344
I0
sg62
I0
sS'velocities_arr_11'
p345
I0
sg66
I0
ssS'userx'
p346
(dp347
S'harris_benedict_bmr'
p348
I-1
sS'height_inches'
p349
F70.0
sS'genetically_gifted'
p350
I0
sS'wrist_width_inches'
p351
I7
sS'years_old'
p352
I31
sS'ankle_width_inches'
p353
I9
sS'sex_is_male'
p354
I1
ssS'dayy'
p355
(dp356
g10
F163.2
sg21
I86
sg6
F56.4
sg25
F7.4
sg15
F81.1
sg18
F4.0
ss.