(dp0
S'dayseriesx'
p1
(lp2
(dp3
S'day_number'
p4
I-1
sS'sleeptime_awake_hrs'
p5
I-1
sS'withings_body_water_percent'
p6
I-1
sS'heart_rate_variability_rmssd'
p7
I-1
sS'sleeptime_deep_rem_hrs'
p8
I-1
sS'withings_body_fat_percent'
p9
I-1
sS'withings_weight_lbs'
p10
I-1
sS'sleeptime_efficiency_percent'
p11
I-1
sS'post_day_calories_in'
p12
I-1
sS'post_day_fat_g'
p13
I-1
sS'sleeptime_bed_time_ampm_index'
p14
I-1
sS'withings_muscle_mass_percent'
p15
I-1
sS'days_since_last_recorded_day'
p16
I-1
sS'sleeptime_alarm_ring_ampm_index'
p17
I-1
sS'withings_bone_mass_percent'
p18
I-1
sS'sleeptime_snoozed'
p19
I-1
sS'sleeptime_light_sleep_hrs'
p20
I-1
sS'withings_heart_rate_bpm'
p21
I-1
sS'sleeptime_alarm_set_ampm_index'
p22
I-1
sS'post_day_protein_g'
p23
I-1
sS'post_day_wearable_calories_burned'
p24
I-1
sS'withings_pulse_wave_velocity_m_per_s'
p25
I-1
sS'sleeptime_rise_time_ampm_index'
p26
I-1
sS'days_since_last_workout'
p27
I-1
sS'post_day_carbs_g'
p28
I-1
sag3
ag3
ag3
ag3
ag3
ag3
ag3
ag3
ag3
a(dp29
g4
I0
sg5
F1.2333333333333334
sg6
F57.3
sg7
I-1
sg8
F3.9166666666666665
sg9
F13.3
sg10
F160.5
sg11
I84
sg12
I-1
sg13
I-1
sg14
I1412
sg15
F82.6
sg16
F0.0
sg17
I409
sg18
F4.1
sg19
I5
sg20
F2.6333333333333333
sg21
I82
sg22
I425
sg23
I-1
sg24
I-1
sg25
F7.6
sg26
I441
sg27
I0
sg28
I-1
sasS'workoutxseries'
p30
(lp31
(dp32
g4
I1
sS'velocities_arr_0'
p33
I0
sS'velocities_arr_2'
p34
I0
sS'velocities_arr_3'
p35
I0
sS'velocities_arr_4'
p36
I0
sS'velocities_arr_5'
p37
I0
sS'velocities_arr_6'
p38
I0
sS'velocities_arr_1'
p39
I0
sS'velocities_arr_8'
p40
I0
sS'velocities_arr_9'
p41
I0
sS'postset_heartrate'
p42
I-1
sS'weight_lbs'
p43
I-1
sS'velocities_arr_7'
p44
I0
sS'category_exercise_name_10'
p45
I0
sS'reps_completed'
p46
I-1
sS'reps_planned'
p47
I-1
sS'category_exercise_name_0'
p48
I0
sS'category_exercise_name_1'
p49
I0
sS'category_exercise_name_2'
p50
I0
sS'category_exercise_name_3'
p51
I0
sS'category_exercise_name_4'
p52
I0
sS'category_exercise_name_5'
p53
I0
sS'category_exercise_name_6'
p54
I0
sS'category_exercise_name_7'
p55
I0
sS'category_exercise_name_8'
p56
I0
sS'category_exercise_name_9'
p57
I0
sS'set_number_of_the_day'
p58
I4
sS'went_to_failure'
p59
I0
sS'velocities_arr_10'
p60
I0
sS'used_lifting_gear'
p61
I0
sS'velocities_arr_11'
p62
I0
sS'did_pull_muscle'
p63
I0
sg27
I0
sag32
ag32
ag32
ag32
ag32
ag32
ag32
ag32
ag32
ag32
ag32
ag32
ag32
ag32
ag32
ag32
ag32
ag32
ag32
ag32
ag32
ag32
ag32
ag32
ag32
ag32
ag32
a(dp64
g4
I1
sS'velocities_arr_0'
p65
I0
sS'velocities_arr_2'
p66
I0
sS'velocities_arr_3'
p67
I0
sS'velocities_arr_4'
p68
I0
sS'velocities_arr_5'
p69
I0
sS'velocities_arr_6'
p70
I0
sS'velocities_arr_1'
p71
I0
sS'velocities_arr_8'
p72
I0
sS'velocities_arr_9'
p73
I0
sg42
I106
sg43
I45
sS'velocities_arr_7'
p74
I0
sS'category_exercise_name_10'
p75
I0
sg46
I5
sg47
I5
sS'category_exercise_name_0'
p76
I0
sS'category_exercise_name_1'
p77
I0
sS'velocities_arr_10'
p78
I0
sS'category_exercise_name_3'
p79
I0
sS'category_exercise_name_4'
p80
I0
sS'category_exercise_name_5'
p81
I0
sS'category_exercise_name_6'
p82
I0
sS'category_exercise_name_7'
p83
I0
sS'category_exercise_name_8'
p84
I0
sS'category_exercise_name_9'
p85
I0
sg58
I0
sg59
I0
sS'category_exercise_name_2'
p86
I1
sg61
I0
sS'velocities_arr_11'
p87
I0
sg63
I0
sg27
I0
sa(dp88
g4
I1
sS'velocities_arr_0'
p89
I0
sS'velocities_arr_2'
p90
I0
sS'velocities_arr_3'
p91
I0
sS'velocities_arr_4'
p92
I0
sS'velocities_arr_5'
p93
I0
sS'velocities_arr_6'
p94
I0
sS'velocities_arr_1'
p95
I0
sS'velocities_arr_8'
p96
I0
sS'velocities_arr_9'
p97
I0
sg42
I115
sg43
I95
sS'velocities_arr_7'
p98
I0
sS'category_exercise_name_10'
p99
I0
sg46
I8
sg47
I8
sS'category_exercise_name_0'
p100
I0
sS'category_exercise_name_1'
p101
I0
sS'velocities_arr_10'
p102
I0
sS'category_exercise_name_3'
p103
I0
sS'category_exercise_name_4'
p104
I0
sS'category_exercise_name_5'
p105
I0
sS'category_exercise_name_6'
p106
I0
sS'category_exercise_name_7'
p107
I0
sS'category_exercise_name_8'
p108
I0
sS'category_exercise_name_9'
p109
I0
sg58
I1
sg59
I0
sS'category_exercise_name_2'
p110
I1
sg61
I0
sS'velocities_arr_11'
p111
I0
sg63
I0
sg27
I0
sa(dp112
g4
I1
sS'velocities_arr_0'
p113
I0
sS'velocities_arr_2'
p114
I0
sS'velocities_arr_3'
p115
I0
sS'velocities_arr_4'
p116
I0
sS'velocities_arr_5'
p117
I0
sS'velocities_arr_6'
p118
I0
sS'velocities_arr_1'
p119
I0
sS'velocities_arr_8'
p120
I0
sS'velocities_arr_9'
p121
I0
sg42
I124
sg43
I115
sS'velocities_arr_7'
p122
I0
sS'category_exercise_name_10'
p123
I0
sg46
I8
sg47
I8
sS'category_exercise_name_0'
p124
I0
sS'category_exercise_name_1'
p125
I0
sS'velocities_arr_10'
p126
I0
sS'category_exercise_name_3'
p127
I0
sS'category_exercise_name_4'
p128
I0
sS'category_exercise_name_5'
p129
I0
sS'category_exercise_name_6'
p130
I0
sS'category_exercise_name_7'
p131
I0
sS'category_exercise_name_8'
p132
I0
sS'category_exercise_name_9'
p133
I0
sg58
I2
sg59
I0
sS'category_exercise_name_2'
p134
I1
sg61
I0
sS'velocities_arr_11'
p135
I0
sg63
I0
sg27
I0
sa(dp136
g4
I1
sS'velocities_arr_0'
p137
I0
sS'velocities_arr_2'
p138
I0
sS'velocities_arr_3'
p139
I0
sS'velocities_arr_4'
p140
I0
sS'velocities_arr_5'
p141
I0
sS'velocities_arr_6'
p142
I0
sS'velocities_arr_1'
p143
I0
sS'velocities_arr_8'
p144
I0
sS'velocities_arr_9'
p145
I0
sg42
I131
sg43
I135
sS'velocities_arr_7'
p146
I0
sS'category_exercise_name_10'
p147
I0
sg46
I8
sg47
I8
sS'category_exercise_name_0'
p148
I0
sS'category_exercise_name_1'
p149
I0
sS'velocities_arr_10'
p150
I0
sS'category_exercise_name_3'
p151
I0
sS'category_exercise_name_4'
p152
I0
sS'category_exercise_name_5'
p153
I0
sS'category_exercise_name_6'
p154
I0
sS'category_exercise_name_7'
p155
I0
sS'category_exercise_name_8'
p156
I0
sS'category_exercise_name_9'
p157
I0
sg58
I3
sg59
I0
sS'category_exercise_name_2'
p158
I1
sg61
I0
sS'velocities_arr_11'
p159
I0
sg63
I0
sg27
I0
sa(dp160
g4
I1
sg33
I0
sg34
I0
sg35
I0
sg36
I0
sg37
I0
sg38
I0
sg39
I0
sg40
I0
sg41
I0
sg42
I-1
sg43
I55
sg44
I0
sg45
I0
sg50
I0
sg46
I-1
sg47
I6
sg48
I0
sg49
I0
sg60
I0
sg51
I0
sg52
I0
sg53
I0
sg54
I0
sg55
I1
sg56
I0
sg57
I0
sg58
I4
sg59
I-1
sg61
I0
sg62
I0
sg63
I-1
sg27
I0
sasS'workouty'
p161
(dp162
S'velocities_arr_0'
p163
I0
sS'velocities_arr_1'
p164
I0
sS'velocities_arr_2'
p165
I0
sS'velocities_arr_3'
p166
I0
sS'velocities_arr_4'
p167
I0
sS'velocities_arr_5'
p168
I0
sS'velocities_arr_6'
p169
I0
sS'velocities_arr_7'
p170
I0
sg46
I6
sS'velocities_arr_9'
p171
I0
sg42
I-1
sS'velocities_arr_10'
p172
I0
sS'velocities_arr_8'
p173
I0
sg59
I0
sS'velocities_arr_11'
p174
I0
sg63
I0
ssS'userx'
p175
(dp176
S'harris_benedict_bmr'
p177
I-1
sS'height_inches'
p178
F70.0
sS'genetically_gifted'
p179
I0
sS'wrist_width_inches'
p180
I7
sS'years_old'
p181
I31
sS'ankle_width_inches'
p182
I9
sS'sex_is_male'
p183
I1
ssS'dayy'
p184
(dp185
g10
F159.1
sg21
I90
sg6
F56.6
sg25
F7.5
sg15
F81.5
sg18
F4.0
ss.