(dp0
S'dayseriesx'
p1
(lp2
(dp3
S'day_number'
p4
I-1
sS'sleeptime_awake_hrs'
p5
I-1
sS'withings_body_water_percent'
p6
I-1
sS'heart_rate_variability_rmssd'
p7
I-1
sS'sleeptime_deep_rem_hrs'
p8
I-1
sS'withings_body_fat_percent'
p9
I-1
sS'withings_weight_lbs'
p10
I-1
sS'sleeptime_efficiency_percent'
p11
I-1
sS'post_day_calories_in'
p12
I-1
sS'post_day_fat_g'
p13
I-1
sS'sleeptime_bed_time_ampm_index'
p14
I-1
sS'withings_muscle_mass_percent'
p15
I-1
sS'days_since_last_recorded_day'
p16
I-1
sS'sleeptime_alarm_ring_ampm_index'
p17
I-1
sS'withings_bone_mass_percent'
p18
I-1
sS'sleeptime_snoozed'
p19
I-1
sS'sleeptime_light_sleep_hrs'
p20
I-1
sS'withings_heart_rate_bpm'
p21
I-1
sS'sleeptime_alarm_set_ampm_index'
p22
I-1
sS'post_day_protein_g'
p23
I-1
sS'post_day_wearable_calories_burned'
p24
I-1
sS'withings_pulse_wave_velocity_m_per_s'
p25
I-1
sS'sleeptime_rise_time_ampm_index'
p26
I-1
sS'days_since_last_workout'
p27
I-1
sS'post_day_carbs_g'
p28
I-1
sag3
ag3
ag3
ag3
ag3
ag3
a(dp29
g4
I0
sg5
F0.48333333333333334
sg6
F56.9
sg7
I-1
sg8
F3.55
sg9
F14.0
sg10
F163.7
sg11
F94.0
sg12
I-1
sg13
I-1
sg14
I93
sg15
F82.0
sg16
F0.0
sg17
I1440
sg18
F4.0
sg19
I0
sg20
F4.133333333333334
sg21
I94
sg22
I660
sg23
I-1
sg24
I-1
sg25
F7.4
sg26
I584
sg27
I0
sg28
I-1
sa(dp30
g4
I1
sg5
F0.5
sg6
F56.9
sg7
I-1
sg8
F1.7333333333333334
sg9
F14.9
sg10
F163.7
sg11
F92.0
sg12
I-1
sg13
I-1
sg14
I8
sg15
F82.0
sg16
F1.0
sg17
I424
sg18
F4.0
sg19
I2
sg20
F4.833333333333333
sg21
I97
sg22
I425
sg23
I-1
sg24
I-1
sg25
F7.4
sg26
I433
sg27
F1.0
sg28
I-1
sa(dp31
g4
I2
sg5
F1.6166666666666667
sg6
F55.6
sg7
I-1
sg8
F2.1
sg9
F16.2
sg10
F163.8
sg11
F79.0
sg12
I-1
sg13
I-1
sg14
I664
sg15
F79.8
sg16
F1.0
sg17
I406
sg18
F3.9
sg19
I1
sg20
F4.15
sg21
I92
sg22
I425
sg23
I-1
sg24
I-1
sg25
F7.4
sg26
I417
sg27
F2.0
sg28
I-1
sa(dp32
g4
I3
sg5
F1.8333333333333335
sg6
F55.6
sg7
I-1
sg8
F2.783333333333333
sg9
F14.8
sg10
I164
sg11
F75.0
sg12
I-1
sg13
I-1
sg14
I1423
sg15
F79.8
sg16
F1.0
sg17
I423
sg18
F3.9
sg19
I2
sg20
F2.9
sg21
I93
sg22
I425
sg23
I-1
sg24
I-1
sg25
F7.4
sg26
I436
sg27
F0.0
sg28
I-1
sasS'workoutxseries'
p33
(lp34
(dp35
g4
I4
sS'velocities_arr_0'
p36
I0
sS'velocities_arr_2'
p37
I0
sS'velocities_arr_3'
p38
I0
sS'velocities_arr_4'
p39
I0
sS'velocities_arr_5'
p40
I0
sS'velocities_arr_6'
p41
I0
sS'velocities_arr_1'
p42
I0
sS'velocities_arr_8'
p43
I0
sS'velocities_arr_9'
p44
I0
sS'postset_heartrate'
p45
I-1
sS'weight_lbs'
p46
I-1
sS'velocities_arr_7'
p47
I0
sS'category_exercise_name_12'
p48
I0
sS'category_exercise_name_13'
p49
I0
sS'category_exercise_name_10'
p50
I0
sS'category_exercise_name_11'
p51
I0
sS'reps_completed'
p52
I-1
sS'reps_planned'
p53
I-1
sS'category_exercise_name_0'
p54
I0
sS'category_exercise_name_1'
p55
I0
sS'category_exercise_name_2'
p56
I0
sS'category_exercise_name_3'
p57
I0
sS'category_exercise_name_4'
p58
I0
sS'category_exercise_name_5'
p59
I0
sS'category_exercise_name_6'
p60
I0
sS'category_exercise_name_7'
p61
I0
sS'category_exercise_name_8'
p62
I0
sS'category_exercise_name_9'
p63
I0
sS'set_number_of_the_day'
p64
I14
sS'went_to_failure'
p65
I0
sS'velocities_arr_10'
p66
I0
sS'used_lifting_gear'
p67
I0
sS'velocities_arr_11'
p68
I0
sS'did_pull_muscle'
p69
I0
sg27
I0
sag35
ag35
ag35
ag35
ag35
ag35
ag35
ag35
ag35
ag35
ag35
ag35
ag35
ag35
ag35
ag35
ag35
ag35
a(dp70
g4
I1
sS'velocities_arr_0'
p71
F0.77
sS'velocities_arr_2'
p72
F1.49
sS'velocities_arr_3'
p73
F0.68
sS'velocities_arr_4'
p74
F0.77
sS'velocities_arr_5'
p75
I0
sS'velocities_arr_6'
p76
I0
sS'velocities_arr_1'
p77
F0.61
sS'velocities_arr_8'
p78
I0
sS'velocities_arr_9'
p79
I0
sg45
I115
sg46
I135
sS'velocities_arr_7'
p80
I0
sS'category_exercise_name_12'
p81
I0
sS'category_exercise_name_13'
p82
I0
sS'category_exercise_name_10'
p83
I0
sS'category_exercise_name_11'
p84
I0
sg52
I5
sg53
I5
sS'category_exercise_name_0'
p85
I1
sS'category_exercise_name_1'
p86
I0
sS'velocities_arr_10'
p87
I0
sS'category_exercise_name_3'
p88
I0
sS'category_exercise_name_4'
p89
I0
sS'category_exercise_name_5'
p90
I0
sS'category_exercise_name_6'
p91
I0
sS'category_exercise_name_7'
p92
I0
sS'category_exercise_name_8'
p93
I0
sS'category_exercise_name_9'
p94
I0
sg64
I0
sg65
I0
sS'category_exercise_name_2'
p95
I0
sg67
I0
sS'velocities_arr_11'
p96
I0
sg69
I0
sg27
I0
sa(dp97
g4
I1
sS'velocities_arr_0'
p98
F0.65
sS'velocities_arr_2'
p99
F1.46
sS'velocities_arr_3'
p100
F0.74
sS'velocities_arr_4'
p101
F0.73
sS'velocities_arr_5'
p102
F0.73
sS'velocities_arr_6'
p103
I0
sS'velocities_arr_1'
p104
F0.75
sS'velocities_arr_8'
p105
I0
sS'velocities_arr_9'
p106
I0
sg45
I137
sg46
I155
sS'velocities_arr_7'
p107
I0
sS'category_exercise_name_12'
p108
I0
sS'category_exercise_name_13'
p109
I0
sS'category_exercise_name_10'
p110
I0
sS'category_exercise_name_11'
p111
I0
sg52
I6
sg53
I6
sS'category_exercise_name_0'
p112
I1
sS'category_exercise_name_1'
p113
I0
sS'velocities_arr_10'
p114
I0
sS'category_exercise_name_3'
p115
I0
sS'category_exercise_name_4'
p116
I0
sS'category_exercise_name_5'
p117
I0
sS'category_exercise_name_6'
p118
I0
sS'category_exercise_name_7'
p119
I0
sS'category_exercise_name_8'
p120
I0
sS'category_exercise_name_9'
p121
I0
sg64
I1
sg65
I0
sS'category_exercise_name_2'
p122
I0
sg67
I0
sS'velocities_arr_11'
p123
I0
sg69
I0
sg27
I0
sa(dp124
g4
I1
sS'velocities_arr_0'
p125
F0.59
sS'velocities_arr_2'
p126
F0.67
sS'velocities_arr_3'
p127
F0.66
sS'velocities_arr_4'
p128
F0.67
sS'velocities_arr_5'
p129
F0.67
sS'velocities_arr_6'
p130
I0
sS'velocities_arr_1'
p131
F0.64
sS'velocities_arr_8'
p132
I0
sS'velocities_arr_9'
p133
I0
sg45
I132
sg46
I185
sS'velocities_arr_7'
p134
I0
sS'category_exercise_name_12'
p135
I0
sS'category_exercise_name_13'
p136
I0
sS'category_exercise_name_10'
p137
I0
sS'category_exercise_name_11'
p138
I0
sg52
I6
sg53
I6
sS'category_exercise_name_0'
p139
I1
sS'category_exercise_name_1'
p140
I0
sS'velocities_arr_10'
p141
I0
sS'category_exercise_name_3'
p142
I0
sS'category_exercise_name_4'
p143
I0
sS'category_exercise_name_5'
p144
I0
sS'category_exercise_name_6'
p145
I0
sS'category_exercise_name_7'
p146
I0
sS'category_exercise_name_8'
p147
I0
sS'category_exercise_name_9'
p148
I0
sg64
I2
sg65
I0
sS'category_exercise_name_2'
p149
I0
sg67
I0
sS'velocities_arr_11'
p150
I0
sg69
I0
sg27
I0
sa(dp151
g4
I1
sS'velocities_arr_0'
p152
F0.64
sS'velocities_arr_2'
p153
F0.63
sS'velocities_arr_3'
p154
F0.58
sS'velocities_arr_4'
p155
F0.6
sS'velocities_arr_5'
p156
F0.6
sS'velocities_arr_6'
p157
I0
sS'velocities_arr_1'
p158
F0.71
sS'velocities_arr_8'
p159
I0
sS'velocities_arr_9'
p160
I0
sg45
I150
sg46
I195
sS'velocities_arr_7'
p161
I0
sS'category_exercise_name_12'
p162
I0
sS'category_exercise_name_13'
p163
I0
sS'category_exercise_name_10'
p164
I0
sS'category_exercise_name_11'
p165
I0
sg52
I6
sg53
I6
sS'category_exercise_name_0'
p166
I1
sS'category_exercise_name_1'
p167
I0
sS'velocities_arr_10'
p168
I0
sS'category_exercise_name_3'
p169
I0
sS'category_exercise_name_4'
p170
I0
sS'category_exercise_name_5'
p171
I0
sS'category_exercise_name_6'
p172
I0
sS'category_exercise_name_7'
p173
I0
sS'category_exercise_name_8'
p174
I0
sS'category_exercise_name_9'
p175
I0
sg64
I3
sg65
I0
sS'category_exercise_name_2'
p176
I0
sg67
I0
sS'velocities_arr_11'
p177
I0
sg69
I0
sg27
I0
sa(dp178
g4
I1
sS'velocities_arr_0'
p179
F1.44
sS'velocities_arr_2'
p180
F0.79
sS'velocities_arr_3'
p181
F0.6
sS'velocities_arr_4'
p182
F0.56
sS'velocities_arr_5'
p183
F0.9
sS'velocities_arr_6'
p184
I0
sS'velocities_arr_1'
p185
F0.7
sS'velocities_arr_8'
p186
I0
sS'velocities_arr_9'
p187
I0
sg45
I141
sg46
I205
sS'velocities_arr_7'
p188
I0
sS'category_exercise_name_12'
p189
I0
sS'category_exercise_name_13'
p190
I0
sS'category_exercise_name_10'
p191
I0
sS'category_exercise_name_11'
p192
I0
sg52
I6
sg53
I6
sS'category_exercise_name_0'
p193
I1
sS'category_exercise_name_1'
p194
I0
sS'velocities_arr_10'
p195
I0
sS'category_exercise_name_3'
p196
I0
sS'category_exercise_name_4'
p197
I0
sS'category_exercise_name_5'
p198
I0
sS'category_exercise_name_6'
p199
I0
sS'category_exercise_name_7'
p200
I0
sS'category_exercise_name_8'
p201
I0
sS'category_exercise_name_9'
p202
I0
sg64
I4
sg65
I0
sS'category_exercise_name_2'
p203
I0
sg67
I0
sS'velocities_arr_11'
p204
I0
sg69
I0
sg27
I0
sa(dp205
g4
I1
sS'velocities_arr_0'
p206
F0.77
sS'velocities_arr_2'
p207
F1.02
sS'velocities_arr_3'
p208
F0.58
sS'velocities_arr_4'
p209
F0.6
sS'velocities_arr_5'
p210
I0
sS'velocities_arr_6'
p211
I0
sS'velocities_arr_1'
p212
F0.66
sS'velocities_arr_8'
p213
I0
sS'velocities_arr_9'
p214
I0
sg45
I145
sg46
I225
sS'velocities_arr_7'
p215
I0
sS'category_exercise_name_12'
p216
I0
sS'category_exercise_name_13'
p217
I0
sS'category_exercise_name_10'
p218
I0
sS'category_exercise_name_11'
p219
I0
sg52
I5
sg53
I6
sS'category_exercise_name_0'
p220
I1
sS'category_exercise_name_1'
p221
I0
sS'velocities_arr_10'
p222
I0
sS'category_exercise_name_3'
p223
I0
sS'category_exercise_name_4'
p224
I0
sS'category_exercise_name_5'
p225
I0
sS'category_exercise_name_6'
p226
I0
sS'category_exercise_name_7'
p227
I0
sS'category_exercise_name_8'
p228
I0
sS'category_exercise_name_9'
p229
I0
sg64
I5
sg65
I1
sS'category_exercise_name_2'
p230
I0
sg67
I0
sS'velocities_arr_11'
p231
I0
sg69
I0
sg27
I0
sa(dp232
g4
I4
sS'velocities_arr_0'
p233
F1.07
sS'velocities_arr_2'
p234
F1.16
sS'velocities_arr_3'
p235
F1.1
sS'velocities_arr_4'
p236
F1.11
sS'velocities_arr_5'
p237
F1.05
sS'velocities_arr_6'
p238
I0
sS'velocities_arr_1'
p239
F1.08
sS'velocities_arr_8'
p240
I0
sS'velocities_arr_9'
p241
I0
sg45
I117
sg46
I45
sS'velocities_arr_7'
p242
I0
sS'category_exercise_name_12'
p243
I0
sS'category_exercise_name_13'
p244
I0
sS'category_exercise_name_10'
p245
I0
sS'category_exercise_name_11'
p246
I0
sg52
I6
sg53
I6
sS'category_exercise_name_0'
p247
I0
sS'category_exercise_name_1'
p248
I0
sS'velocities_arr_10'
p249
I0
sS'category_exercise_name_3'
p250
I0
sS'category_exercise_name_4'
p251
I0
sS'category_exercise_name_5'
p252
I0
sS'category_exercise_name_6'
p253
I0
sS'category_exercise_name_7'
p254
I0
sS'category_exercise_name_8'
p255
I0
sS'category_exercise_name_9'
p256
I0
sg64
I0
sg65
I0
sS'category_exercise_name_2'
p257
I1
sg67
I0
sS'velocities_arr_11'
p258
I0
sg69
I0
sg27
F0.0
sa(dp259
g4
I4
sS'velocities_arr_0'
p260
F0.91
sS'velocities_arr_2'
p261
F0.85
sS'velocities_arr_3'
p262
F0.79
sS'velocities_arr_4'
p263
F0.82
sS'velocities_arr_5'
p264
F0.76
sS'velocities_arr_6'
p265
I0
sS'velocities_arr_1'
p266
F0.89
sS'velocities_arr_8'
p267
I0
sS'velocities_arr_9'
p268
I0
sg45
I138
sg46
I135
sS'velocities_arr_7'
p269
I0
sS'category_exercise_name_12'
p270
I0
sS'category_exercise_name_13'
p271
I0
sS'category_exercise_name_10'
p272
I0
sS'category_exercise_name_11'
p273
I0
sg52
I6
sg53
I6
sS'category_exercise_name_0'
p274
I0
sS'category_exercise_name_1'
p275
I0
sS'velocities_arr_10'
p276
I0
sS'category_exercise_name_3'
p277
I0
sS'category_exercise_name_4'
p278
I0
sS'category_exercise_name_5'
p279
I0
sS'category_exercise_name_6'
p280
I0
sS'category_exercise_name_7'
p281
I0
sS'category_exercise_name_8'
p282
I0
sS'category_exercise_name_9'
p283
I0
sg64
I1
sg65
I0
sS'category_exercise_name_2'
p284
I1
sg67
I0
sS'velocities_arr_11'
p285
I0
sg69
I0
sg27
F0.0
sa(dp286
g4
I4
sS'velocities_arr_0'
p287
F0.74
sS'velocities_arr_2'
p288
F0.65
sS'velocities_arr_3'
p289
F0.64
sS'velocities_arr_4'
p290
F0.59
sS'velocities_arr_5'
p291
F0.58
sS'velocities_arr_6'
p292
I0
sS'velocities_arr_1'
p293
F0.7
sS'velocities_arr_8'
p294
I0
sS'velocities_arr_9'
p295
I0
sg45
I145
sg46
I185
sS'velocities_arr_7'
p296
I0
sS'category_exercise_name_12'
p297
I0
sS'category_exercise_name_13'
p298
I0
sS'category_exercise_name_10'
p299
I0
sS'category_exercise_name_11'
p300
I0
sg52
I6
sg53
I6
sS'category_exercise_name_0'
p301
I0
sS'category_exercise_name_1'
p302
I0
sS'velocities_arr_10'
p303
I0
sS'category_exercise_name_3'
p304
I0
sS'category_exercise_name_4'
p305
I0
sS'category_exercise_name_5'
p306
I0
sS'category_exercise_name_6'
p307
I0
sS'category_exercise_name_7'
p308
I0
sS'category_exercise_name_8'
p309
I0
sS'category_exercise_name_9'
p310
I0
sg64
I2
sg65
I0
sS'category_exercise_name_2'
p311
I1
sg67
I0
sS'velocities_arr_11'
p312
I0
sg69
I0
sg27
F0.0
sa(dp313
g4
I4
sS'velocities_arr_0'
p314
F0.66
sS'velocities_arr_2'
p315
F0.6
sS'velocities_arr_3'
p316
F0.55
sS'velocities_arr_4'
p317
F0.51
sS'velocities_arr_5'
p318
F0.52
sS'velocities_arr_6'
p319
I0
sS'velocities_arr_1'
p320
F0.6
sS'velocities_arr_8'
p321
I0
sS'velocities_arr_9'
p322
I0
sg45
I153
sg46
I205
sS'velocities_arr_7'
p323
I0
sS'category_exercise_name_12'
p324
I0
sS'category_exercise_name_13'
p325
I0
sS'category_exercise_name_10'
p326
I0
sS'category_exercise_name_11'
p327
I0
sg52
I6
sg53
I6
sS'category_exercise_name_0'
p328
I0
sS'category_exercise_name_1'
p329
I0
sS'velocities_arr_10'
p330
I0
sS'category_exercise_name_3'
p331
I0
sS'category_exercise_name_4'
p332
I0
sS'category_exercise_name_5'
p333
I0
sS'category_exercise_name_6'
p334
I0
sS'category_exercise_name_7'
p335
I0
sS'category_exercise_name_8'
p336
I0
sS'category_exercise_name_9'
p337
I0
sg64
I3
sg65
I0
sS'category_exercise_name_2'
p338
I1
sg67
I0
sS'velocities_arr_11'
p339
I0
sg69
I0
sg27
F0.0
sa(dp340
g4
I4
sS'velocities_arr_0'
p341
F0.56
sS'velocities_arr_2'
p342
F0.51
sS'velocities_arr_3'
p343
F0.51
sS'velocities_arr_4'
p344
F0.46
sS'velocities_arr_5'
p345
F0.45
sS'velocities_arr_6'
p346
I0
sS'velocities_arr_1'
p347
F0.55
sS'velocities_arr_8'
p348
I0
sS'velocities_arr_9'
p349
I0
sg45
I157
sg46
I225
sS'velocities_arr_7'
p350
I0
sS'category_exercise_name_12'
p351
I0
sS'category_exercise_name_13'
p352
I0
sS'category_exercise_name_10'
p353
I0
sS'category_exercise_name_11'
p354
I0
sg52
I6
sg53
I6
sS'category_exercise_name_0'
p355
I0
sS'category_exercise_name_1'
p356
I0
sS'velocities_arr_10'
p357
I0
sS'category_exercise_name_3'
p358
I0
sS'category_exercise_name_4'
p359
I0
sS'category_exercise_name_5'
p360
I0
sS'category_exercise_name_6'
p361
I0
sS'category_exercise_name_7'
p362
I0
sS'category_exercise_name_8'
p363
I0
sS'category_exercise_name_9'
p364
I0
sg64
I4
sg65
I0
sS'category_exercise_name_2'
p365
I1
sg67
I0
sS'velocities_arr_11'
p366
I0
sg69
I0
sg27
F0.0
sa(dp367
g4
I4
sS'velocities_arr_0'
p368
F2.71
sS'velocities_arr_2'
p369
F1.89
sS'velocities_arr_3'
p370
F2.03
sS'velocities_arr_4'
p371
F1.41
sS'velocities_arr_5'
p372
F2.16
sS'velocities_arr_6'
p373
F2.25
sS'velocities_arr_1'
p374
F2.52
sS'velocities_arr_8'
p375
I0
sS'velocities_arr_9'
p376
I0
sg45
I117
sg46
I45
sS'velocities_arr_7'
p377
F1.86
sS'category_exercise_name_12'
p378
I0
sS'category_exercise_name_13'
p379
I0
sS'category_exercise_name_10'
p380
I0
sS'category_exercise_name_11'
p381
I0
sg52
I8
sg53
I8
sS'category_exercise_name_0'
p382
I0
sS'category_exercise_name_1'
p383
I0
sS'velocities_arr_10'
p384
I0
sS'category_exercise_name_3'
p385
I1
sS'category_exercise_name_4'
p386
I0
sS'category_exercise_name_5'
p387
I0
sS'category_exercise_name_6'
p388
I0
sS'category_exercise_name_7'
p389
I0
sS'category_exercise_name_8'
p390
I0
sS'category_exercise_name_9'
p391
I0
sg64
I5
sg65
I0
sS'category_exercise_name_2'
p392
I0
sg67
I0
sS'velocities_arr_11'
p393
I0
sg69
I0
sg27
F0.0
sa(dp394
g4
I4
sS'velocities_arr_0'
p395
I0
sS'velocities_arr_2'
p396
I0
sS'velocities_arr_3'
p397
I0
sS'velocities_arr_4'
p398
I0
sS'velocities_arr_5'
p399
I0
sS'velocities_arr_6'
p400
I0
sS'velocities_arr_1'
p401
I0
sS'velocities_arr_8'
p402
I0
sS'velocities_arr_9'
p403
I0
sg45
I122
sg46
I100
sS'velocities_arr_7'
p404
I0
sS'category_exercise_name_12'
p405
I0
sS'category_exercise_name_13'
p406
I0
sS'category_exercise_name_10'
p407
I0
sS'category_exercise_name_11'
p408
I0
sg52
I8
sg53
I8
sS'category_exercise_name_0'
p409
I0
sS'category_exercise_name_1'
p410
I0
sS'velocities_arr_10'
p411
I0
sS'category_exercise_name_3'
p412
I1
sS'category_exercise_name_4'
p413
I0
sS'category_exercise_name_5'
p414
I0
sS'category_exercise_name_6'
p415
I0
sS'category_exercise_name_7'
p416
I0
sS'category_exercise_name_8'
p417
I0
sS'category_exercise_name_9'
p418
I0
sg64
I6
sg65
I0
sS'category_exercise_name_2'
p419
I0
sg67
I0
sS'velocities_arr_11'
p420
I0
sg69
I0
sg27
F0.0
sa(dp421
g4
I4
sS'velocities_arr_0'
p422
F0.78
sS'velocities_arr_2'
p423
F0.44
sS'velocities_arr_3'
p424
F0.44
sS'velocities_arr_4'
p425
F0.44
sS'velocities_arr_5'
p426
F0.44
sS'velocities_arr_6'
p427
F0.44
sS'velocities_arr_1'
p428
F0.44
sS'velocities_arr_8'
p429
I0
sS'velocities_arr_9'
p430
I0
sg45
I119
sg46
I110
sS'velocities_arr_7'
p431
F0.44
sS'category_exercise_name_12'
p432
I0
sS'category_exercise_name_13'
p433
I0
sS'category_exercise_name_10'
p434
I0
sS'category_exercise_name_11'
p435
I0
sg52
I8
sg53
I8
sS'category_exercise_name_0'
p436
I0
sS'category_exercise_name_1'
p437
I0
sS'velocities_arr_10'
p438
I0
sS'category_exercise_name_3'
p439
I1
sS'category_exercise_name_4'
p440
I0
sS'category_exercise_name_5'
p441
I0
sS'category_exercise_name_6'
p442
I0
sS'category_exercise_name_7'
p443
I0
sS'category_exercise_name_8'
p444
I0
sS'category_exercise_name_9'
p445
I0
sg64
I7
sg65
I0
sS'category_exercise_name_2'
p446
I0
sg67
I0
sS'velocities_arr_11'
p447
I0
sg69
I0
sg27
F0.0
sa(dp448
g4
I4
sS'velocities_arr_0'
p449
F0.62
sS'velocities_arr_2'
p450
F0.62
sS'velocities_arr_3'
p451
F0.68
sS'velocities_arr_4'
p452
F0.64
sS'velocities_arr_5'
p453
F0.66
sS'velocities_arr_6'
p454
F0.46
sS'velocities_arr_1'
p455
F0.69
sS'velocities_arr_8'
p456
I0
sS'velocities_arr_9'
p457
I0
sg45
I122
sg46
I110
sS'velocities_arr_7'
p458
F0.46
sS'category_exercise_name_12'
p459
I0
sS'category_exercise_name_13'
p460
I0
sS'category_exercise_name_10'
p461
I0
sS'category_exercise_name_11'
p462
I0
sg52
I8
sg53
I8
sS'category_exercise_name_0'
p463
I0
sS'category_exercise_name_1'
p464
I0
sS'velocities_arr_10'
p465
I0
sS'category_exercise_name_3'
p466
I1
sS'category_exercise_name_4'
p467
I0
sS'category_exercise_name_5'
p468
I0
sS'category_exercise_name_6'
p469
I0
sS'category_exercise_name_7'
p470
I0
sS'category_exercise_name_8'
p471
I0
sS'category_exercise_name_9'
p472
I0
sg64
I8
sg65
I0
sS'category_exercise_name_2'
p473
I0
sg67
I0
sS'velocities_arr_11'
p474
I0
sg69
I0
sg27
F0.0
sa(dp475
g4
I4
sS'velocities_arr_0'
p476
F0.67
sS'velocities_arr_2'
p477
F0.69
sS'velocities_arr_3'
p478
F0.65
sS'velocities_arr_4'
p479
F0.67
sS'velocities_arr_5'
p480
F0.57
sS'velocities_arr_6'
p481
F0.56
sS'velocities_arr_1'
p482
F0.69
sS'velocities_arr_8'
p483
I0
sS'velocities_arr_9'
p484
I0
sg45
I128
sg46
I110
sS'velocities_arr_7'
p485
F0.56
sS'category_exercise_name_12'
p486
I0
sS'category_exercise_name_13'
p487
I0
sS'category_exercise_name_10'
p488
I0
sS'category_exercise_name_11'
p489
I0
sg52
I8
sg53
I8
sS'category_exercise_name_0'
p490
I0
sS'category_exercise_name_1'
p491
I0
sS'velocities_arr_10'
p492
I0
sS'category_exercise_name_3'
p493
I1
sS'category_exercise_name_4'
p494
I0
sS'category_exercise_name_5'
p495
I0
sS'category_exercise_name_6'
p496
I0
sS'category_exercise_name_7'
p497
I0
sS'category_exercise_name_8'
p498
I0
sS'category_exercise_name_9'
p499
I0
sg64
I9
sg65
I0
sS'category_exercise_name_2'
p500
I0
sg67
I0
sS'velocities_arr_11'
p501
I0
sg69
I0
sg27
F0.0
sa(dp502
g4
I4
sS'velocities_arr_0'
p503
I0
sS'velocities_arr_2'
p504
I0
sS'velocities_arr_3'
p505
I0
sS'velocities_arr_4'
p506
I0
sS'velocities_arr_5'
p507
I0
sS'velocities_arr_6'
p508
I0
sS'velocities_arr_1'
p509
I0
sS'velocities_arr_8'
p510
I0
sS'velocities_arr_9'
p511
I0
sg45
I115
sg46
I10
sS'velocities_arr_7'
p512
I0
sS'category_exercise_name_12'
p513
I0
sS'category_exercise_name_13'
p514
I1
sS'category_exercise_name_10'
p515
I0
sS'category_exercise_name_11'
p516
I0
sg52
I12
sg53
I12
sS'category_exercise_name_0'
p517
I0
sS'category_exercise_name_1'
p518
I0
sS'velocities_arr_10'
p519
I0
sS'category_exercise_name_3'
p520
I0
sS'category_exercise_name_4'
p521
I0
sS'category_exercise_name_5'
p522
I0
sS'category_exercise_name_6'
p523
I0
sS'category_exercise_name_7'
p524
I0
sS'category_exercise_name_8'
p525
I0
sS'category_exercise_name_9'
p526
I0
sg64
I10
sg65
I0
sS'category_exercise_name_2'
p527
I0
sg67
I0
sS'velocities_arr_11'
p528
I0
sg69
I0
sg27
F0.0
sa(dp529
g4
I4
sS'velocities_arr_0'
p530
I0
sS'velocities_arr_2'
p531
I0
sS'velocities_arr_3'
p532
I0
sS'velocities_arr_4'
p533
I0
sS'velocities_arr_5'
p534
I0
sS'velocities_arr_6'
p535
I0
sS'velocities_arr_1'
p536
I0
sS'velocities_arr_8'
p537
I0
sS'velocities_arr_9'
p538
I0
sg45
I121
sg46
I15
sS'velocities_arr_7'
p539
I0
sS'category_exercise_name_12'
p540
I0
sS'category_exercise_name_13'
p541
I1
sS'category_exercise_name_10'
p542
I0
sS'category_exercise_name_11'
p543
I0
sg52
I8
sg53
I8
sS'category_exercise_name_0'
p544
I0
sS'category_exercise_name_1'
p545
I0
sS'velocities_arr_10'
p546
I0
sS'category_exercise_name_3'
p547
I0
sS'category_exercise_name_4'
p548
I0
sS'category_exercise_name_5'
p549
I0
sS'category_exercise_name_6'
p550
I0
sS'category_exercise_name_7'
p551
I0
sS'category_exercise_name_8'
p552
I0
sS'category_exercise_name_9'
p553
I0
sg64
I11
sg65
I0
sS'category_exercise_name_2'
p554
I0
sg67
I0
sS'velocities_arr_11'
p555
I0
sg69
I0
sg27
F0.0
sa(dp556
g4
I4
sS'velocities_arr_0'
p557
I0
sS'velocities_arr_2'
p558
I0
sS'velocities_arr_3'
p559
I0
sS'velocities_arr_4'
p560
I0
sS'velocities_arr_5'
p561
I0
sS'velocities_arr_6'
p562
I0
sS'velocities_arr_1'
p563
I0
sS'velocities_arr_8'
p564
I0
sS'velocities_arr_9'
p565
I0
sg45
I121
sg46
I20
sS'velocities_arr_7'
p566
I0
sS'category_exercise_name_12'
p567
I0
sS'category_exercise_name_13'
p568
I1
sS'category_exercise_name_10'
p569
I0
sS'category_exercise_name_11'
p570
I0
sg52
I5
sg53
I5
sS'category_exercise_name_0'
p571
I0
sS'category_exercise_name_1'
p572
I0
sS'velocities_arr_10'
p573
I0
sS'category_exercise_name_3'
p574
I0
sS'category_exercise_name_4'
p575
I0
sS'category_exercise_name_5'
p576
I0
sS'category_exercise_name_6'
p577
I0
sS'category_exercise_name_7'
p578
I0
sS'category_exercise_name_8'
p579
I0
sS'category_exercise_name_9'
p580
I0
sg64
I12
sg65
I0
sS'category_exercise_name_2'
p581
I0
sg67
I0
sS'velocities_arr_11'
p582
I0
sg69
I0
sg27
F0.0
sa(dp583
g4
I4
sS'velocities_arr_0'
p584
I0
sS'velocities_arr_2'
p585
I0
sS'velocities_arr_3'
p586
I0
sS'velocities_arr_4'
p587
I0
sS'velocities_arr_5'
p588
I0
sS'velocities_arr_6'
p589
I0
sS'velocities_arr_1'
p590
I0
sS'velocities_arr_8'
p591
I0
sS'velocities_arr_9'
p592
I0
sg45
I117
sg46
I15
sS'velocities_arr_7'
p593
I0
sS'category_exercise_name_12'
p594
I0
sS'category_exercise_name_13'
p595
I1
sS'category_exercise_name_10'
p596
I0
sS'category_exercise_name_11'
p597
I0
sg52
I3
sg53
I3
sS'category_exercise_name_0'
p598
I0
sS'category_exercise_name_1'
p599
I0
sS'velocities_arr_10'
p600
I0
sS'category_exercise_name_3'
p601
I0
sS'category_exercise_name_4'
p602
I0
sS'category_exercise_name_5'
p603
I0
sS'category_exercise_name_6'
p604
I0
sS'category_exercise_name_7'
p605
I0
sS'category_exercise_name_8'
p606
I0
sS'category_exercise_name_9'
p607
I0
sg64
I13
sg65
I0
sS'category_exercise_name_2'
p608
I0
sg67
I0
sS'velocities_arr_11'
p609
I0
sg69
I0
sg27
F0.0
sa(dp610
g4
I4
sg36
I0
sg37
I0
sg38
I0
sg39
I0
sg40
I0
sg41
I0
sg42
I0
sg43
I0
sg44
I0
sg45
I-1
sg46
I10
sg47
I0
sg48
I0
sg49
I1
sg50
I0
sg51
I0
sg56
I0
sg52
I-1
sg53
I8
sg54
I0
sg55
I0
sg66
I0
sg57
I0
sg58
I0
sg59
I0
sg60
I0
sg61
I0
sg62
I0
sg63
I0
sg64
I14
sg65
I-1
sg67
I0
sg68
I0
sg69
I-1
sg27
F0.0
sasS'workouty'
p611
(dp612
S'velocities_arr_0'
p613
I0
sS'velocities_arr_1'
p614
I0
sS'velocities_arr_2'
p615
I0
sS'velocities_arr_3'
p616
I0
sS'velocities_arr_4'
p617
I0
sS'velocities_arr_5'
p618
I0
sS'velocities_arr_6'
p619
I0
sS'velocities_arr_7'
p620
I0
sg52
I8
sS'velocities_arr_9'
p621
I0
sg45
I122
sS'velocities_arr_10'
p622
I0
sS'velocities_arr_8'
p623
I0
sg65
I0
sS'velocities_arr_11'
p624
I0
sg69
I0
ssS'userx'
p625
(dp626
S'harris_benedict_bmr'
p627
I-1
sS'height_inches'
p628
F70.0
sS'genetically_gifted'
p629
I0
sS'wrist_width_inches'
p630
I7
sS'years_old'
p631
I31
sS'ankle_width_inches'
p632
I9
sS'sex_is_male'
p633
I1
ssS'dayy'
p634
(dp635
g10
F163.6
sg21
F84.0
sg6
F55.7
sg25
F7.4
sg15
F79.9
sg18
F3.9
ss.