(dp0
S'dayseriesx'
p1
(lp2
(dp3
S'day_number'
p4
I-1
sS'sleeptime_awake_hrs'
p5
I-1
sS'withings_body_water_percent'
p6
I-1
sS'heart_rate_variability_rmssd'
p7
I-1
sS'sleeptime_deep_rem_hrs'
p8
I-1
sS'withings_body_fat_percent'
p9
I-1
sS'withings_weight_lbs'
p10
I-1
sS'sleeptime_efficiency_percent'
p11
I-1
sS'post_day_calories_in'
p12
I-1
sS'post_day_fat_g'
p13
I-1
sS'sleeptime_bed_time_ampm_index'
p14
I-1
sS'withings_muscle_mass_percent'
p15
I-1
sS'days_since_last_recorded_day'
p16
I-1
sS'sleeptime_alarm_ring_ampm_index'
p17
I-1
sS'withings_bone_mass_percent'
p18
I-1
sS'sleeptime_snoozed'
p19
I-1
sS'sleeptime_light_sleep_hrs'
p20
I-1
sS'withings_heart_rate_bpm'
p21
I-1
sS'sleeptime_alarm_set_ampm_index'
p22
I-1
sS'post_day_protein_g'
p23
I-1
sS'post_day_wearable_calories_burned'
p24
I-1
sS'withings_pulse_wave_velocity_m_per_s'
p25
I-1
sS'sleeptime_rise_time_ampm_index'
p26
I-1
sS'days_since_last_workout'
p27
I-1
sS'post_day_carbs_g'
p28
I-1
sag3
ag3
ag3
ag3
ag3
ag3
ag3
ag3
ag3
ag3
a(dp29
g4
I0
sg5
F0.7333333333333333
sg6
F56.0
sg7
I-1
sg8
F4.733333333333333
sg9
F15.5
sg10
F163.1
sg11
F91.0
sg12
I-1
sg13
I-1
sg14
I1339
sg15
F80.5
sg16
F0.0
sg17
I425
sg18
F3.9
sg19
I4
sg20
F3.55
sg21
F72.0
sg22
I428
sg23
I-1
sg24
I-1
sg25
F7.4
sg26
I440
sg27
I0
sg28
I-1
sa(dp30
g4
I1
sg5
F0.35
sg6
F56.0
sg7
I-1
sg8
F4.233333333333333
sg9
F15.4
sg10
F162.4
sg11
F95.0
sg12
I-1
sg13
I-1
sg14
I1355
sg15
F80.6
sg16
F1.0
sg17
I412
sg18
F3.9
sg19
I4
sg20
F4.15
sg21
F88.0
sg22
I428
sg23
I-1
sg24
I-1
sg25
F7.5
sg26
I440
sg27
F0.0
sg28
I-1
sasS'workoutxseries'
p31
(lp32
(dp33
g4
I2
sS'velocities_arr_0'
p34
I0
sS'velocities_arr_2'
p35
I0
sS'velocities_arr_3'
p36
I0
sS'velocities_arr_4'
p37
I0
sS'velocities_arr_5'
p38
I0
sS'velocities_arr_6'
p39
I0
sS'velocities_arr_1'
p40
I0
sS'velocities_arr_8'
p41
I0
sS'velocities_arr_9'
p42
I0
sS'postset_heartrate'
p43
I-1
sS'weight_lbs'
p44
I-1
sS'velocities_arr_7'
p45
I0
sS'category_exercise_name_12'
p46
I0
sS'category_exercise_name_13'
p47
I0
sS'category_exercise_name_10'
p48
I0
sS'category_exercise_name_11'
p49
I0
sS'reps_completed'
p50
I-1
sS'reps_planned'
p51
I-1
sS'category_exercise_name_0'
p52
I0
sS'category_exercise_name_1'
p53
I0
sS'category_exercise_name_2'
p54
I0
sS'category_exercise_name_3'
p55
I0
sS'category_exercise_name_4'
p56
I0
sS'category_exercise_name_5'
p57
I0
sS'category_exercise_name_6'
p58
I0
sS'category_exercise_name_7'
p59
I0
sS'category_exercise_name_8'
p60
I0
sS'category_exercise_name_9'
p61
I0
sS'set_number_of_the_day'
p62
I8
sS'went_to_failure'
p63
I0
sS'velocities_arr_10'
p64
I0
sS'used_lifting_gear'
p65
I0
sS'velocities_arr_11'
p66
I0
sS'did_pull_muscle'
p67
I0
sg27
I0
sag33
ag33
ag33
ag33
ag33
ag33
ag33
ag33
ag33
ag33
ag33
ag33
ag33
ag33
ag33
ag33
ag33
ag33
ag33
ag33
ag33
ag33
ag33
ag33
ag33
ag33
a(dp68
g4
I1
sS'velocities_arr_0'
p69
F1.23
sS'velocities_arr_2'
p70
F1.16
sS'velocities_arr_3'
p71
F1.13
sS'velocities_arr_4'
p72
F1.18
sS'velocities_arr_5'
p73
F1.18
sS'velocities_arr_6'
p74
F1.18
sS'velocities_arr_1'
p75
F1.3
sS'velocities_arr_8'
p76
I0
sS'velocities_arr_9'
p77
I0
sg43
I107
sg44
I45
sS'velocities_arr_7'
p78
F1.18
sS'category_exercise_name_12'
p79
I0
sS'category_exercise_name_13'
p80
I0
sS'category_exercise_name_10'
p81
I0
sS'category_exercise_name_11'
p82
I0
sg50
I8
sg51
I8
sS'category_exercise_name_0'
p83
I0
sS'category_exercise_name_1'
p84
I0
sS'velocities_arr_10'
p85
I0
sS'category_exercise_name_3'
p86
I0
sS'category_exercise_name_4'
p87
I0
sS'category_exercise_name_5'
p88
I0
sS'category_exercise_name_6'
p89
I0
sS'category_exercise_name_7'
p90
I0
sS'category_exercise_name_8'
p91
I0
sS'category_exercise_name_9'
p92
I0
sg62
I0
sg63
I0
sS'category_exercise_name_2'
p93
I1
sg65
I0
sS'velocities_arr_11'
p94
I0
sg67
I0
sg27
I0
sa(dp95
g4
I1
sS'velocities_arr_0'
p96
F0.84
sS'velocities_arr_2'
p97
F0.82
sS'velocities_arr_3'
p98
F0.8
sS'velocities_arr_4'
p99
F0.8
sS'velocities_arr_5'
p100
F0.77
sS'velocities_arr_6'
p101
F0.74
sS'velocities_arr_1'
p102
F0.91
sS'velocities_arr_8'
p103
I0
sS'velocities_arr_9'
p104
I0
sg43
I109
sg44
I135
sS'velocities_arr_7'
p105
F0.72
sS'category_exercise_name_12'
p106
I0
sS'category_exercise_name_13'
p107
I0
sS'category_exercise_name_10'
p108
I0
sS'category_exercise_name_11'
p109
I0
sg50
I8
sg51
I8
sS'category_exercise_name_0'
p110
I0
sS'category_exercise_name_1'
p111
I0
sS'velocities_arr_10'
p112
I0
sS'category_exercise_name_3'
p113
I0
sS'category_exercise_name_4'
p114
I0
sS'category_exercise_name_5'
p115
I0
sS'category_exercise_name_6'
p116
I0
sS'category_exercise_name_7'
p117
I0
sS'category_exercise_name_8'
p118
I0
sS'category_exercise_name_9'
p119
I0
sg62
I1
sg63
I0
sS'category_exercise_name_2'
p120
I1
sg65
I0
sS'velocities_arr_11'
p121
I0
sg67
I0
sg27
I0
sa(dp122
g4
I1
sS'velocities_arr_0'
p123
F0.77
sS'velocities_arr_2'
p124
F0.69
sS'velocities_arr_3'
p125
F0.74
sS'velocities_arr_4'
p126
F0.68
sS'velocities_arr_5'
p127
F0.68
sS'velocities_arr_6'
p128
F0.65
sS'velocities_arr_1'
p129
F0.76
sS'velocities_arr_8'
p130
I0
sS'velocities_arr_9'
p131
I0
sg43
I142
sg44
I155
sS'velocities_arr_7'
p132
F0.59
sS'category_exercise_name_12'
p133
I0
sS'category_exercise_name_13'
p134
I0
sS'category_exercise_name_10'
p135
I0
sS'category_exercise_name_11'
p136
I0
sg50
I8
sg51
I8
sS'category_exercise_name_0'
p137
I0
sS'category_exercise_name_1'
p138
I0
sS'velocities_arr_10'
p139
I0
sS'category_exercise_name_3'
p140
I0
sS'category_exercise_name_4'
p141
I0
sS'category_exercise_name_5'
p142
I0
sS'category_exercise_name_6'
p143
I0
sS'category_exercise_name_7'
p144
I0
sS'category_exercise_name_8'
p145
I0
sS'category_exercise_name_9'
p146
I0
sg62
I2
sg63
I0
sS'category_exercise_name_2'
p147
I1
sg65
I0
sS'velocities_arr_11'
p148
I0
sg67
I0
sg27
I0
sa(dp149
g4
I1
sS'velocities_arr_0'
p150
F0.64
sS'velocities_arr_2'
p151
F0.63
sS'velocities_arr_3'
p152
F0.57
sS'velocities_arr_4'
p153
F0.59
sS'velocities_arr_5'
p154
F0.53
sS'velocities_arr_6'
p155
F0.52
sS'velocities_arr_1'
p156
F0.62
sS'velocities_arr_8'
p157
I0
sS'velocities_arr_9'
p158
I0
sg43
I153
sg44
I185
sS'velocities_arr_7'
p159
F0.47
sS'category_exercise_name_12'
p160
I0
sS'category_exercise_name_13'
p161
I0
sS'category_exercise_name_10'
p162
I0
sS'category_exercise_name_11'
p163
I0
sg50
I8
sg51
I8
sS'category_exercise_name_0'
p164
I0
sS'category_exercise_name_1'
p165
I0
sS'velocities_arr_10'
p166
I0
sS'category_exercise_name_3'
p167
I0
sS'category_exercise_name_4'
p168
I0
sS'category_exercise_name_5'
p169
I0
sS'category_exercise_name_6'
p170
I0
sS'category_exercise_name_7'
p171
I0
sS'category_exercise_name_8'
p172
I0
sS'category_exercise_name_9'
p173
I0
sg62
I3
sg63
I0
sS'category_exercise_name_2'
p174
I1
sg65
I0
sS'velocities_arr_11'
p175
I0
sg67
I0
sg27
I0
sa(dp176
g4
I2
sS'velocities_arr_0'
p177
F2.58
sS'velocities_arr_2'
p178
F1.89
sS'velocities_arr_3'
p179
F2.2
sS'velocities_arr_4'
p180
F1.89
sS'velocities_arr_5'
p181
F2.2
sS'velocities_arr_6'
p182
F1.89
sS'velocities_arr_1'
p183
F2.08
sS'velocities_arr_8'
p184
F1.76
sS'velocities_arr_9'
p185
F0.47
sg43
I88
sg44
I45
sS'velocities_arr_7'
p186
F1.89
sS'category_exercise_name_12'
p187
I0
sS'category_exercise_name_13'
p188
I0
sS'category_exercise_name_10'
p189
I0
sS'category_exercise_name_11'
p190
I0
sg50
I8
sg51
I8
sS'category_exercise_name_0'
p191
I0
sS'category_exercise_name_1'
p192
I0
sS'velocities_arr_10'
p193
I0
sS'category_exercise_name_3'
p194
I1
sS'category_exercise_name_4'
p195
I0
sS'category_exercise_name_5'
p196
I0
sS'category_exercise_name_6'
p197
I0
sS'category_exercise_name_7'
p198
I0
sS'category_exercise_name_8'
p199
I0
sS'category_exercise_name_9'
p200
I0
sg62
I0
sg63
I0
sS'category_exercise_name_2'
p201
I0
sg65
I0
sS'velocities_arr_11'
p202
I0
sg67
I0
sg27
F0.0
sa(dp203
g4
I2
sS'velocities_arr_0'
p204
F0.7
sS'velocities_arr_2'
p205
F0.72
sS'velocities_arr_3'
p206
F0.71
sS'velocities_arr_4'
p207
F0.71
sS'velocities_arr_5'
p208
F0.76
sS'velocities_arr_6'
p209
F0.71
sS'velocities_arr_1'
p210
F0.73
sS'velocities_arr_8'
p211
I0
sS'velocities_arr_9'
p212
I0
sg43
I89
sg44
I95
sS'velocities_arr_7'
p213
F0.65
sS'category_exercise_name_12'
p214
I0
sS'category_exercise_name_13'
p215
I0
sS'category_exercise_name_10'
p216
I0
sS'category_exercise_name_11'
p217
I0
sg50
I8
sg51
I8
sS'category_exercise_name_0'
p218
I0
sS'category_exercise_name_1'
p219
I0
sS'velocities_arr_10'
p220
I0
sS'category_exercise_name_3'
p221
I1
sS'category_exercise_name_4'
p222
I0
sS'category_exercise_name_5'
p223
I0
sS'category_exercise_name_6'
p224
I0
sS'category_exercise_name_7'
p225
I0
sS'category_exercise_name_8'
p226
I0
sS'category_exercise_name_9'
p227
I0
sg62
I1
sg63
I0
sS'category_exercise_name_2'
p228
I0
sg65
I0
sS'velocities_arr_11'
p229
I0
sg67
I0
sg27
F0.0
sa(dp230
g4
I2
sS'velocities_arr_0'
p231
F0.82
sS'velocities_arr_2'
p232
F0.9
sS'velocities_arr_3'
p233
F0.8
sS'velocities_arr_4'
p234
F0.8
sS'velocities_arr_5'
p235
F0.71
sS'velocities_arr_6'
p236
F0.78
sS'velocities_arr_1'
p237
F0.86
sS'velocities_arr_8'
p238
I0
sS'velocities_arr_9'
p239
I0
sg43
I95
sg44
I95
sS'velocities_arr_7'
p240
F0.74
sS'category_exercise_name_12'
p241
I0
sS'category_exercise_name_13'
p242
I0
sS'category_exercise_name_10'
p243
I0
sS'category_exercise_name_11'
p244
I0
sg50
I8
sg51
I8
sS'category_exercise_name_0'
p245
I0
sS'category_exercise_name_1'
p246
I0
sS'velocities_arr_10'
p247
I0
sS'category_exercise_name_3'
p248
I1
sS'category_exercise_name_4'
p249
I0
sS'category_exercise_name_5'
p250
I0
sS'category_exercise_name_6'
p251
I0
sS'category_exercise_name_7'
p252
I0
sS'category_exercise_name_8'
p253
I0
sS'category_exercise_name_9'
p254
I0
sg62
I2
sg63
I0
sS'category_exercise_name_2'
p255
I0
sg65
I0
sS'velocities_arr_11'
p256
I0
sg67
I0
sg27
F0.0
sa(dp257
g4
I2
sS'velocities_arr_0'
p258
F0.62
sS'velocities_arr_2'
p259
F0.71
sS'velocities_arr_3'
p260
F0.67
sS'velocities_arr_4'
p261
F0.66
sS'velocities_arr_5'
p262
F0.55
sS'velocities_arr_6'
p263
F0.59
sS'velocities_arr_1'
p264
F0.75
sS'velocities_arr_8'
p265
I0
sS'velocities_arr_9'
p266
I0
sg43
I103
sg44
I105
sS'velocities_arr_7'
p267
F0.54
sS'category_exercise_name_12'
p268
I0
sS'category_exercise_name_13'
p269
I0
sS'category_exercise_name_10'
p270
I0
sS'category_exercise_name_11'
p271
I0
sg50
I8
sg51
I8
sS'category_exercise_name_0'
p272
I0
sS'category_exercise_name_1'
p273
I0
sS'velocities_arr_10'
p274
I0
sS'category_exercise_name_3'
p275
I1
sS'category_exercise_name_4'
p276
I0
sS'category_exercise_name_5'
p277
I0
sS'category_exercise_name_6'
p278
I0
sS'category_exercise_name_7'
p279
I0
sS'category_exercise_name_8'
p280
I0
sS'category_exercise_name_9'
p281
I0
sg62
I3
sg63
I0
sS'category_exercise_name_2'
p282
I0
sg65
I0
sS'velocities_arr_11'
p283
I0
sg67
I0
sg27
F0.0
sa(dp284
g4
I2
sS'velocities_arr_0'
p285
I0
sS'velocities_arr_2'
p286
I0
sS'velocities_arr_3'
p287
I0
sS'velocities_arr_4'
p288
I0
sS'velocities_arr_5'
p289
I0
sS'velocities_arr_6'
p290
I0
sS'velocities_arr_1'
p291
I0
sS'velocities_arr_8'
p292
I0
sS'velocities_arr_9'
p293
I0
sg43
I112
sg44
I115
sS'velocities_arr_7'
p294
I0
sS'category_exercise_name_12'
p295
I0
sS'category_exercise_name_13'
p296
I0
sS'category_exercise_name_10'
p297
I0
sS'category_exercise_name_11'
p298
I0
sg50
I8
sg51
I8
sS'category_exercise_name_0'
p299
I0
sS'category_exercise_name_1'
p300
I0
sS'velocities_arr_10'
p301
I0
sS'category_exercise_name_3'
p302
I1
sS'category_exercise_name_4'
p303
I0
sS'category_exercise_name_5'
p304
I0
sS'category_exercise_name_6'
p305
I0
sS'category_exercise_name_7'
p306
I0
sS'category_exercise_name_8'
p307
I0
sS'category_exercise_name_9'
p308
I0
sg62
I4
sg63
I0
sS'category_exercise_name_2'
p309
I0
sg65
I0
sS'velocities_arr_11'
p310
I0
sg67
I0
sg27
F0.0
sa(dp311
g4
I2
sS'velocities_arr_0'
p312
F0.45
sS'velocities_arr_2'
p313
F0.4
sS'velocities_arr_3'
p314
F0.4
sS'velocities_arr_4'
p315
I0
sS'velocities_arr_5'
p316
I0
sS'velocities_arr_6'
p317
I0
sS'velocities_arr_1'
p318
F0.43
sS'velocities_arr_8'
p319
I0
sS'velocities_arr_9'
p320
I0
sg43
I111
sg44
I125
sS'velocities_arr_7'
p321
I0
sS'category_exercise_name_12'
p322
I0
sS'category_exercise_name_13'
p323
I0
sS'category_exercise_name_10'
p324
I0
sS'category_exercise_name_11'
p325
I0
sg50
I4
sg51
I4
sS'category_exercise_name_0'
p326
I0
sS'category_exercise_name_1'
p327
I0
sS'velocities_arr_10'
p328
I0
sS'category_exercise_name_3'
p329
I1
sS'category_exercise_name_4'
p330
I0
sS'category_exercise_name_5'
p331
I0
sS'category_exercise_name_6'
p332
I0
sS'category_exercise_name_7'
p333
I0
sS'category_exercise_name_8'
p334
I0
sS'category_exercise_name_9'
p335
I0
sg62
I5
sg63
I0
sS'category_exercise_name_2'
p336
I0
sg65
I0
sS'velocities_arr_11'
p337
I0
sg67
I0
sg27
F0.0
sa(dp338
g4
I2
sS'velocities_arr_0'
p339
F0.3
sS'velocities_arr_2'
p340
F0.3
sS'velocities_arr_3'
p341
I0
sS'velocities_arr_4'
p342
I0
sS'velocities_arr_5'
p343
I0
sS'velocities_arr_6'
p344
I0
sS'velocities_arr_1'
p345
F0.3
sS'velocities_arr_8'
p346
I0
sS'velocities_arr_9'
p347
I0
sg43
I107
sg44
I135
sS'velocities_arr_7'
p348
I0
sS'category_exercise_name_12'
p349
I0
sS'category_exercise_name_13'
p350
I0
sS'category_exercise_name_10'
p351
I0
sS'category_exercise_name_11'
p352
I0
sg50
I3
sg51
I3
sS'category_exercise_name_0'
p353
I0
sS'category_exercise_name_1'
p354
I0
sS'velocities_arr_10'
p355
I0
sS'category_exercise_name_3'
p356
I1
sS'category_exercise_name_4'
p357
I0
sS'category_exercise_name_5'
p358
I0
sS'category_exercise_name_6'
p359
I0
sS'category_exercise_name_7'
p360
I0
sS'category_exercise_name_8'
p361
I0
sS'category_exercise_name_9'
p362
I0
sg62
I6
sg63
I0
sS'category_exercise_name_2'
p363
I0
sg65
I0
sS'velocities_arr_11'
p364
I0
sg67
I0
sg27
F0.0
sa(dp365
g4
I2
sS'velocities_arr_0'
p366
I0
sS'velocities_arr_2'
p367
I0
sS'velocities_arr_3'
p368
I0
sS'velocities_arr_4'
p369
I0
sS'velocities_arr_5'
p370
I0
sS'velocities_arr_6'
p371
I0
sS'velocities_arr_1'
p372
I0
sS'velocities_arr_8'
p373
I0
sS'velocities_arr_9'
p374
I0
sg43
I121
sg44
F162.4
sS'velocities_arr_7'
p375
I0
sS'category_exercise_name_12'
p376
I1
sS'category_exercise_name_13'
p377
I0
sS'category_exercise_name_10'
p378
I0
sS'category_exercise_name_11'
p379
I0
sg50
I8
sg51
I8
sS'category_exercise_name_0'
p380
I0
sS'category_exercise_name_1'
p381
I0
sS'velocities_arr_10'
p382
I0
sS'category_exercise_name_3'
p383
I0
sS'category_exercise_name_4'
p384
I0
sS'category_exercise_name_5'
p385
I0
sS'category_exercise_name_6'
p386
I0
sS'category_exercise_name_7'
p387
I0
sS'category_exercise_name_8'
p388
I0
sS'category_exercise_name_9'
p389
I0
sg62
I7
sg63
I0
sS'category_exercise_name_2'
p390
I0
sg65
I0
sS'velocities_arr_11'
p391
I0
sg67
I0
sg27
F0.0
sa(dp392
g4
I2
sg34
I0
sg35
I0
sg36
I0
sg37
I0
sg38
I0
sg39
I0
sg40
I0
sg41
I0
sg42
I0
sg43
I-1
sg44
F162.4
sg45
I0
sg46
I1
sg47
I0
sg48
I0
sg49
I0
sg54
I0
sg50
I-1
sg51
I4
sg52
I0
sg53
I0
sg64
I0
sg55
I0
sg56
I0
sg57
I0
sg58
I0
sg59
I0
sg60
I0
sg61
I0
sg62
I8
sg63
I-1
sg65
I0
sg66
I0
sg67
I-1
sg27
F0.0
sasS'workouty'
p393
(dp394
S'velocities_arr_0'
p395
I0
sS'velocities_arr_1'
p396
I0
sS'velocities_arr_2'
p397
I0
sS'velocities_arr_3'
p398
I0
sS'velocities_arr_4'
p399
I0
sS'velocities_arr_5'
p400
I0
sS'velocities_arr_6'
p401
I0
sS'velocities_arr_7'
p402
I0
sg50
I4
sS'velocities_arr_9'
p403
I0
sg43
I121
sS'velocities_arr_10'
p404
I0
sS'velocities_arr_8'
p405
I0
sg63
I0
sS'velocities_arr_11'
p406
I0
sg67
I0
ssS'userx'
p407
(dp408
S'harris_benedict_bmr'
p409
I-1
sS'height_inches'
p410
F70.0
sS'genetically_gifted'
p411
I0
sS'wrist_width_inches'
p412
I7
sS'years_old'
p413
I31
sS'ankle_width_inches'
p414
I9
sS'sex_is_male'
p415
I1
ssS'dayy'
p416
(dp417
g10
F161.7
sg21
F76.0
sg6
F56.2
sg25
F7.6
sg15
F80.9
sg18
F3.9
sg9
F15.1
ss.