(dp0
S'userx'
p1
(dp2
S'wrist_width_inches'
p3
I7
sS'height_inches'
p4
F70.0
sS'harris_benedict_bmr'
p5
I-1
sS'genetically_gifted'
p6
I0
sS'years_old'
p7
I31
sS'ankle_width_inches'
p8
I9
sS'sex_is_male'
p9
I1
ssS'dayseriesx'
p10
(lp11
(dp12
S'day_number'
p13
I-1
sS'sleeptime_awake_hrs'
p14
I-1
sS'withings_body_water_percent'
p15
I-1
sS'heart_rate_variability_rmssd'
p16
I-1
sS'sleeptime_deep_rem_hrs'
p17
I-1
sS'withings_body_fat_percent'
p18
I-1
sS'withings_weight_lbs'
p19
I-1
sS'sleeptime_efficiency_percent'
p20
I-1
sS'post_day_calories_in'
p21
I-1
sS'post_day_fat_g'
p22
I-1
sS'sleeptime_bed_time_ampm_index'
p23
I-1
sS'withings_muscle_mass_percent'
p24
I-1
sS'days_since_last_recorded_day'
p25
I-1
sS'sleeptime_alarm_ring_ampm_index'
p26
I-1
sS'withings_bone_mass_percent'
p27
I-1
sS'sleeptime_snoozed'
p28
I-1
sS'sleeptime_light_sleep_hrs'
p29
I-1
sS'withings_heart_rate_bpm'
p30
I-1
sS'sleeptime_alarm_set_ampm_index'
p31
I-1
sS'post_day_protein_g'
p32
I-1
sS'post_day_wearable_calories_burned'
p33
I-1
sS'withings_pulse_wave_velocity_m_per_s'
p34
I-1
sS'sleeptime_rise_time_ampm_index'
p35
I-1
sS'days_since_last_workout'
p36
I-1
sS'post_day_carbs_g'
p37
I-1
sag12
ag12
ag12
ag12
ag12
ag12
ag12
ag12
ag12
a(dp38
g13
I0
sg14
F0.2833333333333333
sg15
F56.0
sg16
I-1
sg17
F2.1333333333333333
sg18
F15.6
sg19
F164.1
sg20
F96.0
sg21
I-1
sg22
I-1
sg23
I1
sg24
F80.4
sg25
F0.0
sg26
I1440
sg27
F4.0
sg28
I0
sg29
F4.85
sg30
I76
sg31
I480
sg32
I-1
sg33
I-1
sg34
F7.5
sg35
I438
sg36
I0
sg37
I-1
sasS'workouty'
p39
(dp40
S'velocities_arr_0'
p41
F0.76
sS'velocities_arr_1'
p42
F0.76
sS'velocities_arr_2'
p43
F0.68
sS'velocities_arr_3'
p44
F0.67
sS'velocities_arr_4'
p45
F0.62
sS'velocities_arr_5'
p46
F0.6
sS'velocities_arr_6'
p47
I0
sS'velocities_arr_7'
p48
I0
sS'reps_completed'
p49
I6
sS'velocities_arr_9'
p50
I0
sS'postset_heartrate'
p51
I146
sS'went_to_failure'
p52
I0
sS'velocities_arr_8'
p53
I0
sS'velocities_arr_10'
p54
I0
sS'velocities_arr_11'
p55
I0
sS'did_pull_muscle'
p56
I0
ssS'workoutxseries'
p57
(lp58
(dp59
g13
I1
sS'velocities_arr_0'
p60
I0
sS'velocities_arr_2'
p61
I0
sS'velocities_arr_3'
p62
I0
sS'velocities_arr_4'
p63
I0
sS'velocities_arr_5'
p64
I0
sS'velocities_arr_6'
p65
I0
sS'velocities_arr_1'
p66
I0
sS'velocities_arr_8'
p67
I0
sS'velocities_arr_9'
p68
I0
sg51
I-1
sS'weight_lbs'
p69
I-1
sS'velocities_arr_7'
p70
I0
sS'category_exercise_name_12'
p71
I0
sS'category_exercise_name_13'
p72
I0
sS'category_exercise_name_10'
p73
I0
sS'category_exercise_name_11'
p74
I0
sS'category_exercise_name_2'
p75
I0
sg49
I-1
sS'reps_planned'
p76
I-1
sS'category_exercise_name_0'
p77
I0
sS'category_exercise_name_1'
p78
I0
sS'velocities_arr_10'
p79
I0
sS'category_exercise_name_3'
p80
I0
sS'category_exercise_name_4'
p81
I0
sS'category_exercise_name_5'
p82
I0
sS'category_exercise_name_6'
p83
I0
sS'category_exercise_name_7'
p84
I0
sS'category_exercise_name_8'
p85
I0
sS'category_exercise_name_9'
p86
I0
sS'set_number_of_the_day'
p87
I3
sg52
I0
sS'used_lifting_gear'
p88
I0
sS'velocities_arr_11'
p89
I0
sg56
I0
sg36
I0
sag59
ag59
ag59
ag59
ag59
ag59
ag59
ag59
ag59
ag59
ag59
ag59
ag59
ag59
ag59
ag59
ag59
ag59
ag59
ag59
ag59
ag59
ag59
ag59
ag59
ag59
ag59
ag59
ag59
ag59
ag59
ag59
ag59
ag59
ag59
a(dp90
g13
I1
sS'velocities_arr_0'
p91
F1.16
sS'velocities_arr_2'
p92
F1.36
sS'velocities_arr_3'
p93
F1.18
sS'velocities_arr_4'
p94
F1.12
sS'velocities_arr_5'
p95
F1.1
sS'velocities_arr_6'
p96
I0
sS'velocities_arr_1'
p97
F1.25
sS'velocities_arr_8'
p98
I0
sS'velocities_arr_9'
p99
I0
sg51
I103
sg69
I45
sS'velocities_arr_7'
p100
I0
sS'category_exercise_name_12'
p101
I0
sS'category_exercise_name_13'
p102
I0
sS'category_exercise_name_10'
p103
I0
sS'category_exercise_name_11'
p104
I0
sS'velocities_arr_10'
p105
I0
sg49
I6
sg76
I6
sS'category_exercise_name_0'
p106
I0
sS'category_exercise_name_1'
p107
I0
sS'category_exercise_name_2'
p108
I1
sS'category_exercise_name_3'
p109
I0
sS'category_exercise_name_4'
p110
I0
sS'category_exercise_name_5'
p111
I0
sS'category_exercise_name_6'
p112
I0
sS'category_exercise_name_7'
p113
I0
sS'category_exercise_name_8'
p114
I0
sS'category_exercise_name_9'
p115
I0
sg87
I0
sg52
I0
sg88
I0
sS'velocities_arr_11'
p116
I0
sg56
I0
sg36
I0
sa(dp117
g13
I1
sS'velocities_arr_0'
p118
F0.89
sS'velocities_arr_2'
p119
F0.81
sS'velocities_arr_3'
p120
F0.8
sS'velocities_arr_4'
p121
F0.81
sS'velocities_arr_5'
p122
F0.81
sS'velocities_arr_6'
p123
I0
sS'velocities_arr_1'
p124
F0.9
sS'velocities_arr_8'
p125
I0
sS'velocities_arr_9'
p126
I0
sg51
I117
sg69
I135
sS'velocities_arr_7'
p127
I0
sS'category_exercise_name_12'
p128
I0
sS'category_exercise_name_13'
p129
I0
sS'category_exercise_name_10'
p130
I0
sS'category_exercise_name_11'
p131
I0
sS'velocities_arr_10'
p132
I0
sg49
I6
sg76
I6
sS'category_exercise_name_0'
p133
I0
sS'category_exercise_name_1'
p134
I0
sS'category_exercise_name_2'
p135
I1
sS'category_exercise_name_3'
p136
I0
sS'category_exercise_name_4'
p137
I0
sS'category_exercise_name_5'
p138
I0
sS'category_exercise_name_6'
p139
I0
sS'category_exercise_name_7'
p140
I0
sS'category_exercise_name_8'
p141
I0
sS'category_exercise_name_9'
p142
I0
sg87
I1
sg52
I0
sg88
I0
sS'velocities_arr_11'
p143
I0
sg56
I0
sg36
I0
sa(dp144
g13
I1
sS'velocities_arr_0'
p145
F0.74
sS'velocities_arr_2'
p146
F0.68
sS'velocities_arr_3'
p147
F0.64
sS'velocities_arr_4'
p148
F0.64
sS'velocities_arr_5'
p149
F0.64
sS'velocities_arr_6'
p150
I0
sS'velocities_arr_1'
p151
F0.7
sS'velocities_arr_8'
p152
I0
sS'velocities_arr_9'
p153
I0
sg51
I130
sg69
I185
sS'velocities_arr_7'
p154
I0
sS'category_exercise_name_12'
p155
I0
sS'category_exercise_name_13'
p156
I0
sS'category_exercise_name_10'
p157
I0
sS'category_exercise_name_11'
p158
I0
sS'velocities_arr_10'
p159
I0
sg49
I6
sg76
I6
sS'category_exercise_name_0'
p160
I0
sS'category_exercise_name_1'
p161
I0
sS'category_exercise_name_2'
p162
I1
sS'category_exercise_name_3'
p163
I0
sS'category_exercise_name_4'
p164
I0
sS'category_exercise_name_5'
p165
I0
sS'category_exercise_name_6'
p166
I0
sS'category_exercise_name_7'
p167
I0
sS'category_exercise_name_8'
p168
I0
sS'category_exercise_name_9'
p169
I0
sg87
I2
sg52
I0
sg88
I0
sS'velocities_arr_11'
p170
I0
sg56
I0
sg36
I0
sa(dp171
g13
I1
sg60
I0
sg61
I0
sg62
I0
sg63
I0
sg64
I0
sg65
I0
sg66
I0
sg67
I0
sg68
I0
sg51
I-1
sg69
I175
sg70
I0
sg71
I0
sg72
I0
sg73
I0
sg74
I0
sg49
I-1
sg76
I6
sg77
I0
sg78
I0
sg79
I0
sg80
I0
sg81
I0
sg82
I0
sg83
I0
sg84
I0
sg85
I0
sg86
I0
sg87
I3
sg52
I-1
sg75
I1
sg88
I0
sg89
I0
sg56
I-1
sg36
I0
sas.