(dp0
S'userx'
p1
(dp2
S'wrist_width_inches'
p3
I7
sS'height_inches'
p4
F70.0
sS'harris_benedict_bmr'
p5
I-1
sS'genetically_gifted'
p6
I0
sS'years_old'
p7
I31
sS'ankle_width_inches'
p8
I9
sS'sex_is_male'
p9
I1
ssS'dayseriesx'
p10
(lp11
(dp12
S'day_number'
p13
I-1
sS'sleeptime_awake_hrs'
p14
I-1
sS'withings_body_water_percent'
p15
I-1
sS'heart_rate_variability_rmssd'
p16
I-1
sS'sleeptime_deep_rem_hrs'
p17
I-1
sS'withings_body_fat_percent'
p18
I-1
sS'withings_weight_lbs'
p19
I-1
sS'sleeptime_efficiency_percent'
p20
I-1
sS'post_day_calories_in'
p21
I-1
sS'post_day_fat_g'
p22
I-1
sS'sleeptime_bed_time_ampm_index'
p23
I-1
sS'withings_muscle_mass_percent'
p24
I-1
sS'days_since_last_recorded_day'
p25
I-1
sS'sleeptime_alarm_ring_ampm_index'
p26
I-1
sS'withings_bone_mass_percent'
p27
I-1
sS'sleeptime_snoozed'
p28
I-1
sS'sleeptime_light_sleep_hrs'
p29
I-1
sS'withings_heart_rate_bpm'
p30
I-1
sS'sleeptime_alarm_set_ampm_index'
p31
I-1
sS'post_day_protein_g'
p32
I-1
sS'post_day_wearable_calories_burned'
p33
I-1
sS'withings_pulse_wave_velocity_m_per_s'
p34
I-1
sS'sleeptime_rise_time_ampm_index'
p35
I-1
sS'days_since_last_workout'
p36
I-1
sS'post_day_carbs_g'
p37
I-1
sag12
ag12
ag12
ag12
ag12
ag12
ag12
ag12
ag12
ag12
ag12
ag12
ag12
ag12
ag12
ag12
ag12
ag12
ag12
ag12
ag12
ag12
a(dp38
g13
I0
sg14
F0.25
sg15
F56.9
sg16
I-1
sg17
F2.1
sg18
F14.0
sg19
F160.8
sg20
I95
sg21
I-1
sg22
I-1
sg23
I74
sg24
F82.0
sg25
F0.0
sg26
I403
sg27
F4.0
sg28
I5
sg29
F3.7333333333333334
sg30
I83
sg31
I425
sg32
I-1
sg33
I-1
sg34
F7.6
sg35
I441
sg36
I0
sg37
I-1
sasS'workouty'
p39
(dp40
S'velocities_arr_0'
p41
F0.58
sS'velocities_arr_1'
p42
F0.53
sS'velocities_arr_2'
p43
I0
sS'velocities_arr_3'
p44
I0
sS'velocities_arr_4'
p45
I0
sS'velocities_arr_5'
p46
I0
sS'velocities_arr_6'
p47
I0
sS'velocities_arr_7'
p48
I0
sS'reps_completed'
p49
I2
sS'velocities_arr_9'
p50
I0
sS'postset_heartrate'
p51
I133
sS'went_to_failure'
p52
I0
sS'velocities_arr_8'
p53
I0
sS'velocities_arr_10'
p54
I0
sS'velocities_arr_11'
p55
I0
sS'did_pull_muscle'
p56
I0
ssS'workoutxseries'
p57
(lp58
(dp59
g13
I1
sS'velocities_arr_0'
p60
I0
sS'velocities_arr_2'
p61
I0
sS'velocities_arr_3'
p62
I0
sS'velocities_arr_4'
p63
I0
sS'velocities_arr_5'
p64
I0
sS'velocities_arr_6'
p65
I0
sS'velocities_arr_1'
p66
I0
sS'velocities_arr_8'
p67
I0
sS'velocities_arr_9'
p68
I0
sg51
I-1
sS'weight_lbs'
p69
I-1
sS'velocities_arr_7'
p70
I0
sS'category_exercise_name_12'
p71
I0
sS'category_exercise_name_13'
p72
I0
sS'category_exercise_name_10'
p73
I0
sS'category_exercise_name_11'
p74
I0
sS'category_exercise_name_2'
p75
I0
sg49
I-1
sS'reps_planned'
p76
I-1
sS'category_exercise_name_0'
p77
I0
sS'category_exercise_name_1'
p78
I0
sS'velocities_arr_10'
p79
I0
sS'category_exercise_name_3'
p80
I0
sS'category_exercise_name_4'
p81
I0
sS'category_exercise_name_5'
p82
I0
sS'category_exercise_name_6'
p83
I0
sS'category_exercise_name_7'
p84
I0
sS'category_exercise_name_8'
p85
I0
sS'category_exercise_name_9'
p86
I0
sS'set_number_of_the_day'
p87
I7
sg52
I0
sS'used_lifting_gear'
p88
I0
sS'velocities_arr_11'
p89
I0
sg56
I0
sg36
I0
sag59
ag59
ag59
ag59
ag59
ag59
ag59
ag59
ag59
ag59
ag59
ag59
ag59
ag59
ag59
ag59
ag59
ag59
ag59
ag59
ag59
ag59
ag59
ag59
ag59
ag59
ag59
ag59
ag59
ag59
ag59
ag59
ag59
ag59
ag59
ag59
ag59
ag59
ag59
ag59
ag59
ag59
ag59
ag59
ag59
ag59
ag59
ag59
ag59
ag59
ag59
ag59
ag59
ag59
a(dp90
g13
I1
sS'velocities_arr_0'
p91
F1.31
sS'velocities_arr_2'
p92
F1.12
sS'velocities_arr_3'
p93
F1.04
sS'velocities_arr_4'
p94
I0
sS'velocities_arr_5'
p95
I0
sS'velocities_arr_6'
p96
I0
sS'velocities_arr_1'
p97
F0.7
sS'velocities_arr_8'
p98
I0
sS'velocities_arr_9'
p99
I0
sg51
I88
sg69
I45
sS'velocities_arr_7'
p100
I0
sS'category_exercise_name_12'
p101
I0
sS'category_exercise_name_13'
p102
I0
sS'category_exercise_name_10'
p103
I0
sS'category_exercise_name_11'
p104
I0
sS'velocities_arr_10'
p105
I0
sg49
I4
sg76
I4
sS'category_exercise_name_0'
p106
I0
sS'category_exercise_name_1'
p107
I0
sS'category_exercise_name_2'
p108
I1
sS'category_exercise_name_3'
p109
I0
sS'category_exercise_name_4'
p110
I0
sS'category_exercise_name_5'
p111
I0
sS'category_exercise_name_6'
p112
I0
sS'category_exercise_name_7'
p113
I0
sS'category_exercise_name_8'
p114
I0
sS'category_exercise_name_9'
p115
I0
sg87
I0
sg52
I0
sg88
I0
sS'velocities_arr_11'
p116
I0
sg56
I0
sg36
I0
sa(dp117
g13
I1
sS'velocities_arr_0'
p118
F0.94
sS'velocities_arr_2'
p119
F0.9
sS'velocities_arr_3'
p120
F0.89
sS'velocities_arr_4'
p121
F0.88
sS'velocities_arr_5'
p122
F0.88
sS'velocities_arr_6'
p123
I0
sS'velocities_arr_1'
p124
F0.63
sS'velocities_arr_8'
p125
I0
sS'velocities_arr_9'
p126
I0
sg51
I110
sg69
I95
sS'velocities_arr_7'
p127
I0
sS'category_exercise_name_12'
p128
I0
sS'category_exercise_name_13'
p129
I0
sS'category_exercise_name_10'
p130
I0
sS'category_exercise_name_11'
p131
I0
sS'velocities_arr_10'
p132
I0
sg49
I6
sg76
I6
sS'category_exercise_name_0'
p133
I0
sS'category_exercise_name_1'
p134
I0
sS'category_exercise_name_2'
p135
I1
sS'category_exercise_name_3'
p136
I0
sS'category_exercise_name_4'
p137
I0
sS'category_exercise_name_5'
p138
I0
sS'category_exercise_name_6'
p139
I0
sS'category_exercise_name_7'
p140
I0
sS'category_exercise_name_8'
p141
I0
sS'category_exercise_name_9'
p142
I0
sg87
I1
sg52
I0
sg88
I0
sS'velocities_arr_11'
p143
I0
sg56
I0
sg36
I0
sa(dp144
g13
I1
sS'velocities_arr_0'
p145
F0.88
sS'velocities_arr_2'
p146
F0.86
sS'velocities_arr_3'
p147
F0.86
sS'velocities_arr_4'
p148
F0.86
sS'velocities_arr_5'
p149
F0.85
sS'velocities_arr_6'
p150
I0
sS'velocities_arr_1'
p151
F0.87
sS'velocities_arr_8'
p152
I0
sS'velocities_arr_9'
p153
I0
sg51
I113
sg69
I115
sS'velocities_arr_7'
p154
I0
sS'category_exercise_name_12'
p155
I0
sS'category_exercise_name_13'
p156
I0
sS'category_exercise_name_10'
p157
I0
sS'category_exercise_name_11'
p158
I0
sS'velocities_arr_10'
p159
I0
sg49
I6
sg76
I6
sS'category_exercise_name_0'
p160
I0
sS'category_exercise_name_1'
p161
I0
sS'category_exercise_name_2'
p162
I1
sS'category_exercise_name_3'
p163
I0
sS'category_exercise_name_4'
p164
I0
sS'category_exercise_name_5'
p165
I0
sS'category_exercise_name_6'
p166
I0
sS'category_exercise_name_7'
p167
I0
sS'category_exercise_name_8'
p168
I0
sS'category_exercise_name_9'
p169
I0
sg87
I2
sg52
I0
sg88
I0
sS'velocities_arr_11'
p170
I0
sg56
I0
sg36
I0
sa(dp171
g13
I1
sS'velocities_arr_0'
p172
F0.88
sS'velocities_arr_2'
p173
F0.72
sS'velocities_arr_3'
p174
F0.68
sS'velocities_arr_4'
p175
F0.67
sS'velocities_arr_5'
p176
F0.67
sS'velocities_arr_6'
p177
F0.67
sS'velocities_arr_1'
p178
F0.77
sS'velocities_arr_8'
p179
I0
sS'velocities_arr_9'
p180
I0
sg51
I128
sg69
I135
sS'velocities_arr_7'
p181
I0
sS'category_exercise_name_12'
p182
I0
sS'category_exercise_name_13'
p183
I0
sS'category_exercise_name_10'
p184
I0
sS'category_exercise_name_11'
p185
I0
sS'velocities_arr_10'
p186
I0
sg49
I7
sg76
I7
sS'category_exercise_name_0'
p187
I0
sS'category_exercise_name_1'
p188
I0
sS'category_exercise_name_2'
p189
I1
sS'category_exercise_name_3'
p190
I0
sS'category_exercise_name_4'
p191
I0
sS'category_exercise_name_5'
p192
I0
sS'category_exercise_name_6'
p193
I0
sS'category_exercise_name_7'
p194
I0
sS'category_exercise_name_8'
p195
I0
sS'category_exercise_name_9'
p196
I0
sg87
I3
sg52
I0
sg88
I0
sS'velocities_arr_11'
p197
I0
sg56
I0
sg36
I0
sa(dp198
g13
I1
sS'velocities_arr_0'
p199
F0.66
sS'velocities_arr_2'
p200
F0.58
sS'velocities_arr_3'
p201
F0.54
sS'velocities_arr_4'
p202
F0.54
sS'velocities_arr_5'
p203
I0
sS'velocities_arr_6'
p204
I0
sS'velocities_arr_1'
p205
F0.66
sS'velocities_arr_8'
p206
I0
sS'velocities_arr_9'
p207
I0
sg51
I130
sg69
I155
sS'velocities_arr_7'
p208
I0
sS'category_exercise_name_12'
p209
I0
sS'category_exercise_name_13'
p210
I0
sS'category_exercise_name_10'
p211
I0
sS'category_exercise_name_11'
p212
I0
sS'velocities_arr_10'
p213
I0
sg49
I5
sg76
I5
sS'category_exercise_name_0'
p214
I0
sS'category_exercise_name_1'
p215
I0
sS'category_exercise_name_2'
p216
I1
sS'category_exercise_name_3'
p217
I0
sS'category_exercise_name_4'
p218
I0
sS'category_exercise_name_5'
p219
I0
sS'category_exercise_name_6'
p220
I0
sS'category_exercise_name_7'
p221
I0
sS'category_exercise_name_8'
p222
I0
sS'category_exercise_name_9'
p223
I0
sg87
I4
sg52
I0
sg88
I0
sS'velocities_arr_11'
p224
I0
sg56
I0
sg36
I0
sa(dp225
g13
I1
sS'velocities_arr_0'
p226
F0.61
sS'velocities_arr_2'
p227
I0
sS'velocities_arr_3'
p228
I0
sS'velocities_arr_4'
p229
I0
sS'velocities_arr_5'
p230
I0
sS'velocities_arr_6'
p231
I0
sS'velocities_arr_1'
p232
F0.58
sS'velocities_arr_8'
p233
I0
sS'velocities_arr_9'
p234
I0
sg51
I124
sg69
I195
sS'velocities_arr_7'
p235
I0
sS'category_exercise_name_12'
p236
I0
sS'category_exercise_name_13'
p237
I0
sS'category_exercise_name_10'
p238
I0
sS'category_exercise_name_11'
p239
I0
sS'velocities_arr_10'
p240
I0
sg49
I2
sg76
I2
sS'category_exercise_name_0'
p241
I0
sS'category_exercise_name_1'
p242
I0
sS'category_exercise_name_2'
p243
I1
sS'category_exercise_name_3'
p244
I0
sS'category_exercise_name_4'
p245
I0
sS'category_exercise_name_5'
p246
I0
sS'category_exercise_name_6'
p247
I0
sS'category_exercise_name_7'
p248
I0
sS'category_exercise_name_8'
p249
I0
sS'category_exercise_name_9'
p250
I0
sg87
I5
sg52
I0
sg88
I0
sS'velocities_arr_11'
p251
I0
sg56
I0
sg36
I0
sa(dp252
g13
I1
sS'velocities_arr_0'
p253
F0.6
sS'velocities_arr_2'
p254
F0.57
sS'velocities_arr_3'
p255
I0
sS'velocities_arr_4'
p256
I0
sS'velocities_arr_5'
p257
I0
sS'velocities_arr_6'
p258
I0
sS'velocities_arr_1'
p259
F0.57
sS'velocities_arr_8'
p260
I0
sS'velocities_arr_9'
p261
I0
sg51
I134
sg69
I205
sS'velocities_arr_7'
p262
I0
sS'category_exercise_name_12'
p263
I0
sS'category_exercise_name_13'
p264
I0
sS'category_exercise_name_10'
p265
I0
sS'category_exercise_name_11'
p266
I0
sS'velocities_arr_10'
p267
I0
sg49
I3
sg76
I3
sS'category_exercise_name_0'
p268
I0
sS'category_exercise_name_1'
p269
I0
sS'category_exercise_name_2'
p270
I1
sS'category_exercise_name_3'
p271
I0
sS'category_exercise_name_4'
p272
I0
sS'category_exercise_name_5'
p273
I0
sS'category_exercise_name_6'
p274
I0
sS'category_exercise_name_7'
p275
I0
sS'category_exercise_name_8'
p276
I0
sS'category_exercise_name_9'
p277
I0
sg87
I6
sg52
I0
sg88
I0
sS'velocities_arr_11'
p278
I0
sg56
I0
sg36
I0
sa(dp279
g13
I1
sg60
I0
sg61
I0
sg62
I0
sg63
I0
sg64
I0
sg65
I0
sg66
I0
sg67
I0
sg68
I0
sg51
I-1
sg69
I215
sg70
I0
sg71
I0
sg72
I0
sg73
I0
sg74
I0
sg49
I-1
sg76
I2
sg77
I0
sg78
I0
sg79
I0
sg80
I0
sg81
I0
sg82
I0
sg83
I0
sg84
I0
sg85
I0
sg86
I0
sg87
I7
sg52
I-1
sg75
I1
sg88
I0
sg89
I0
sg56
I-1
sg36
I0
sas.