(dp0
S'userx'
p1
(dp2
S'wrist_width_inches'
p3
I7
sS'height_inches'
p4
F70.0
sS'harris_benedict_bmr'
p5
I-1
sS'genetically_gifted'
p6
I0
sS'years_old'
p7
I31
sS'ankle_width_inches'
p8
I9
sS'sex_is_male'
p9
I1
ssS'dayseriesx'
p10
(lp11
(dp12
S'day_number'
p13
I-1
sS'sleeptime_awake_hrs'
p14
I-1
sS'withings_body_water_percent'
p15
I-1
sS'heart_rate_variability_rmssd'
p16
I-1
sS'sleeptime_deep_rem_hrs'
p17
I-1
sS'withings_body_fat_percent'
p18
I-1
sS'withings_weight_lbs'
p19
I-1
sS'sleeptime_efficiency_percent'
p20
I-1
sS'post_day_calories_in'
p21
I-1
sS'post_day_fat_g'
p22
I-1
sS'sleeptime_bed_time_ampm_index'
p23
I-1
sS'withings_muscle_mass_percent'
p24
I-1
sS'days_since_last_recorded_day'
p25
I-1
sS'sleeptime_alarm_ring_ampm_index'
p26
I-1
sS'withings_bone_mass_percent'
p27
I-1
sS'sleeptime_snoozed'
p28
I-1
sS'sleeptime_light_sleep_hrs'
p29
I-1
sS'withings_heart_rate_bpm'
p30
I-1
sS'sleeptime_alarm_set_ampm_index'
p31
I-1
sS'post_day_protein_g'
p32
I-1
sS'post_day_wearable_calories_burned'
p33
I-1
sS'withings_pulse_wave_velocity_m_per_s'
p34
I-1
sS'sleeptime_rise_time_ampm_index'
p35
I-1
sS'days_since_last_workout'
p36
I-1
sS'post_day_carbs_g'
p37
I-1
sag12
ag12
a(dp38
g13
I0
sg14
F0.4
sg15
F56.5
sg16
I-1
sg17
F1.6666666666666665
sg18
F15.0
sg19
F162.6
sg20
F94.0
sg21
I-1
sg22
I-1
sg23
I1435
sg24
F81.4
sg25
F0.0
sg26
I406
sg27
F4.0
sg28
I3
sg29
F5.216666666666667
sg30
I82
sg31
I425
sg32
I-1
sg33
I-1
sg34
F7.4
sg35
I432
sg36
I0
sg37
I-1
sa(dp39
g13
I1
sg14
I-1
sg15
F56.3
sg16
I-1
sg17
I-1
sg18
F14.7
sg19
F164.4
sg20
I-1
sg21
I-1
sg22
I-1
sg23
I1440
sg24
F81.0
sg25
F1.0
sg26
I1440
sg27
F4.0
sg28
I-1
sg29
I-1
sg30
I86
sg31
I1440
sg32
I-1
sg33
I-1
sg34
F7.4
sg35
I1440
sg36
F1.0
sg37
I-1
sa(dp40
g13
I2
sg14
F0.9833333333333333
sg15
F57.1
sg16
I-1
sg17
F2.65
sg18
F13.7
sg19
F165.0
sg20
F86.0
sg21
I-1
sg22
I-1
sg23
I1427
sg24
F82.2
sg25
F1.0
sg26
I418
sg27
F4.0
sg28
I2
sg29
F3.65
sg30
I93
sg31
I425
sg32
I-1
sg33
I-1
sg34
F7.3
sg35
I425
sg36
F2.0
sg37
I-1
sa(dp41
g13
I3
sg14
F3.8333333333333335
sg15
F56.6
sg16
I-1
sg17
F1.4
sg18
F14.4
sg19
F164.4
sg20
F47.0
sg21
I-1
sg22
I-1
sg23
I1426
sg24
F81.6
sg25
F1.0
sg26
I411
sg27
F4.0
sg28
I2
sg29
F2.1333333333333333
sg30
I77
sg31
I426
sg32
I-1
sg33
I-1
sg34
F7.5
sg35
I429
sg36
F3.0
sg37
I-1
sa(dp42
g13
I4
sg14
F0.2833333333333333
sg15
F56.0
sg16
I-1
sg17
F2.1333333333333333
sg18
F15.6
sg19
F164.1
sg20
F96.0
sg21
I-1
sg22
I-1
sg23
I1
sg24
F80.4
sg25
F1.0
sg26
I1440
sg27
F4.0
sg28
I0
sg29
F4.85
sg30
I76
sg31
I480
sg32
I-1
sg33
I-1
sg34
F7.5
sg35
I438
sg36
F0.0
sg37
I-1
sa(dp43
g13
I5
sg14
F0.8166666666666667
sg15
F56.3
sg16
I-1
sg17
F3.283333333333333
sg18
F14.9
sg19
F164.4
sg20
F88.0
sg21
I-1
sg22
I-1
sg23
I1386
sg24
F81.1
sg25
F1.0
sg26
I359
sg27
F4.0
sg28
I1
sg29
F2.783333333333333
sg30
I85
sg31
I375
sg32
I-1
sg33
I-1
sg34
F7.4
sg35
I361
sg36
F1.0
sg37
I-1
sa(dp44
g13
I6
sg14
F0.8166666666666667
sg15
F56.3
sg16
I-1
sg17
F3.283333333333333
sg18
F14.9
sg19
F164.4
sg20
F88.0
sg21
I-1
sg22
I-1
sg23
I1386
sg24
F81.1
sg25
F1.0
sg26
I359
sg27
F4.0
sg28
I1
sg29
F2.783333333333333
sg30
I85
sg31
I375
sg32
I-1
sg33
I-1
sg34
F7.4
sg35
I361
sg36
F2.0
sg37
I-1
sa(dp45
g13
I7
sg14
I-1
sg15
I-1
sg16
I-1
sg17
I-1
sg18
I-1
sg19
I-1
sg20
I-1
sg21
I-1
sg22
I-1
sg23
I1440
sg24
I-1
sg25
F4.0
sg26
I1440
sg27
I-1
sg28
I-1
sg29
I-1
sg30
I-1
sg31
I1440
sg32
I-1
sg33
I-1
sg34
I-1
sg35
I1440
sg36
F6.0
sg37
I-1
sasS'workouty'
p46
(dp47
S'velocities_arr_0'
p48
F0.71
sS'velocities_arr_1'
p49
F0.79
sS'velocities_arr_2'
p50
F0.69
sS'velocities_arr_3'
p51
F0.68
sS'velocities_arr_4'
p52
F0.7
sS'velocities_arr_5'
p53
F0.72
sS'velocities_arr_6'
p54
F0.69
sS'velocities_arr_7'
p55
F0.62
sS'reps_completed'
p56
I8
sS'velocities_arr_9'
p57
I0
sS'postset_heartrate'
p58
I130
sS'went_to_failure'
p59
I0
sS'velocities_arr_8'
p60
I0
sS'velocities_arr_10'
p61
I0
sS'velocities_arr_11'
p62
I0
sS'did_pull_muscle'
p63
I0
ssS'workoutxseries'
p64
(lp65
(dp66
g13
I8
sS'velocities_arr_0'
p67
I0
sS'velocities_arr_2'
p68
I0
sS'velocities_arr_3'
p69
I0
sS'velocities_arr_4'
p70
I0
sS'velocities_arr_5'
p71
I0
sS'velocities_arr_6'
p72
I0
sS'velocities_arr_1'
p73
I0
sS'velocities_arr_8'
p74
I0
sS'velocities_arr_9'
p75
I0
sg58
I-1
sS'weight_lbs'
p76
I-1
sS'velocities_arr_7'
p77
I0
sS'category_exercise_name_12'
p78
I0
sS'category_exercise_name_10'
p79
I0
sS'category_exercise_name_11'
p80
I0
sS'category_exercise_name_2'
p81
I0
sg56
I-1
sS'reps_planned'
p82
I-1
sS'category_exercise_name_0'
p83
I0
sS'category_exercise_name_1'
p84
I0
sS'velocities_arr_10'
p85
I0
sS'category_exercise_name_3'
p86
I0
sS'category_exercise_name_4'
p87
I0
sS'category_exercise_name_5'
p88
I0
sS'category_exercise_name_6'
p89
I0
sS'category_exercise_name_7'
p90
I0
sS'category_exercise_name_8'
p91
I0
sS'category_exercise_name_9'
p92
I0
sS'set_number_of_the_day'
p93
I10
sg59
I0
sS'used_lifting_gear'
p94
I0
sS'velocities_arr_11'
p95
I0
sg63
I0
sg36
I0
sa(dp96
g13
I1
sS'velocities_arr_0'
p97
F1.82
sS'velocities_arr_2'
p98
F1.71
sS'velocities_arr_3'
p99
F1.86
sS'velocities_arr_4'
p100
F1.82
sS'velocities_arr_5'
p101
F1.82
sS'velocities_arr_6'
p102
I0
sS'velocities_arr_1'
p103
F1.68
sS'velocities_arr_8'
p104
I0
sS'velocities_arr_9'
p105
I0
sg58
I80
sg76
I45
sS'velocities_arr_7'
p106
I0
sS'category_exercise_name_12'
p107
I0
sS'category_exercise_name_10'
p108
I0
sS'category_exercise_name_11'
p109
I0
sS'velocities_arr_10'
p110
I0
sg56
I6
sg82
I6
sS'category_exercise_name_0'
p111
I0
sS'category_exercise_name_1'
p112
I0
sS'category_exercise_name_2'
p113
I0
sS'category_exercise_name_3'
p114
I1
sS'category_exercise_name_4'
p115
I0
sS'category_exercise_name_5'
p116
I0
sS'category_exercise_name_6'
p117
I0
sS'category_exercise_name_7'
p118
I0
sS'category_exercise_name_8'
p119
I0
sS'category_exercise_name_9'
p120
I0
sg93
I0
sg59
I0
sg94
I0
sS'velocities_arr_11'
p121
I0
sg63
I0
sg36
I0
sa(dp122
g13
I1
sS'velocities_arr_0'
p123
F0.79
sS'velocities_arr_2'
p124
F0.71
sS'velocities_arr_3'
p125
F0.7
sS'velocities_arr_4'
p126
F0.62
sS'velocities_arr_5'
p127
F0.6
sS'velocities_arr_6'
p128
I0
sS'velocities_arr_1'
p129
F0.71
sS'velocities_arr_8'
p130
I0
sS'velocities_arr_9'
p131
I0
sg58
I92
sg76
I105
sS'velocities_arr_7'
p132
I0
sS'category_exercise_name_12'
p133
I0
sS'category_exercise_name_10'
p134
I0
sS'category_exercise_name_11'
p135
I0
sS'velocities_arr_10'
p136
I0
sg56
I6
sg82
I6
sS'category_exercise_name_0'
p137
I0
sS'category_exercise_name_1'
p138
I0
sS'category_exercise_name_2'
p139
I0
sS'category_exercise_name_3'
p140
I1
sS'category_exercise_name_4'
p141
I0
sS'category_exercise_name_5'
p142
I0
sS'category_exercise_name_6'
p143
I0
sS'category_exercise_name_7'
p144
I0
sS'category_exercise_name_8'
p145
I0
sS'category_exercise_name_9'
p146
I0
sg93
I1
sg59
I0
sg94
I0
sS'velocities_arr_11'
p147
I0
sg63
I0
sg36
I0
sa(dp148
g13
I1
sS'velocities_arr_0'
p149
F0.71
sS'velocities_arr_2'
p150
F0.62
sS'velocities_arr_3'
p151
F0.65
sS'velocities_arr_4'
p152
F0.64
sS'velocities_arr_5'
p153
F0.64
sS'velocities_arr_6'
p154
I0
sS'velocities_arr_1'
p155
F0.66
sS'velocities_arr_8'
p156
I0
sS'velocities_arr_9'
p157
I0
sg58
I93
sg76
I105
sS'velocities_arr_7'
p158
I0
sS'category_exercise_name_12'
p159
I0
sS'category_exercise_name_10'
p160
I0
sS'category_exercise_name_11'
p161
I0
sS'velocities_arr_10'
p162
I0
sg56
I6
sg82
I6
sS'category_exercise_name_0'
p163
I0
sS'category_exercise_name_1'
p164
I0
sS'category_exercise_name_2'
p165
I0
sS'category_exercise_name_3'
p166
I1
sS'category_exercise_name_4'
p167
I0
sS'category_exercise_name_5'
p168
I0
sS'category_exercise_name_6'
p169
I0
sS'category_exercise_name_7'
p170
I0
sS'category_exercise_name_8'
p171
I0
sS'category_exercise_name_9'
p172
I0
sg93
I2
sg59
I0
sg94
I0
sS'velocities_arr_11'
p173
I0
sg63
I0
sg36
I0
sa(dp174
g13
I1
sS'velocities_arr_0'
p175
F0.67
sS'velocities_arr_2'
p176
F0.59
sS'velocities_arr_3'
p177
F0.7
sS'velocities_arr_4'
p178
F0.6
sS'velocities_arr_5'
p179
F0.68
sS'velocities_arr_6'
p180
I0
sS'velocities_arr_1'
p181
F0.67
sS'velocities_arr_8'
p182
I0
sS'velocities_arr_9'
p183
I0
sg58
I83
sg76
I105
sS'velocities_arr_7'
p184
I0
sS'category_exercise_name_12'
p185
I0
sS'category_exercise_name_10'
p186
I0
sS'category_exercise_name_11'
p187
I0
sS'velocities_arr_10'
p188
I0
sg56
I6
sg82
I6
sS'category_exercise_name_0'
p189
I0
sS'category_exercise_name_1'
p190
I0
sS'category_exercise_name_2'
p191
I0
sS'category_exercise_name_3'
p192
I1
sS'category_exercise_name_4'
p193
I0
sS'category_exercise_name_5'
p194
I0
sS'category_exercise_name_6'
p195
I0
sS'category_exercise_name_7'
p196
I0
sS'category_exercise_name_8'
p197
I0
sS'category_exercise_name_9'
p198
I0
sg93
I3
sg59
I0
sg94
I0
sS'velocities_arr_11'
p199
I0
sg63
I0
sg36
I0
sa(dp200
g13
I1
sS'velocities_arr_0'
p201
F0.71
sS'velocities_arr_2'
p202
F0.66
sS'velocities_arr_3'
p203
F0.71
sS'velocities_arr_4'
p204
F0.71
sS'velocities_arr_5'
p205
F0.61
sS'velocities_arr_6'
p206
I0
sS'velocities_arr_1'
p207
F0.71
sS'velocities_arr_8'
p208
I0
sS'velocities_arr_9'
p209
I0
sg58
I90
sg76
I105
sS'velocities_arr_7'
p210
I0
sS'category_exercise_name_12'
p211
I0
sS'category_exercise_name_10'
p212
I0
sS'category_exercise_name_11'
p213
I0
sS'velocities_arr_10'
p214
I0
sg56
I6
sg82
I6
sS'category_exercise_name_0'
p215
I0
sS'category_exercise_name_1'
p216
I0
sS'category_exercise_name_2'
p217
I0
sS'category_exercise_name_3'
p218
I1
sS'category_exercise_name_4'
p219
I0
sS'category_exercise_name_5'
p220
I0
sS'category_exercise_name_6'
p221
I0
sS'category_exercise_name_7'
p222
I0
sS'category_exercise_name_8'
p223
I0
sS'category_exercise_name_9'
p224
I0
sg93
I4
sg59
I0
sg94
I0
sS'velocities_arr_11'
p225
I0
sg63
I0
sg36
I0
sa(dp226
g13
I5
sS'velocities_arr_0'
p227
F1.16
sS'velocities_arr_2'
p228
F1.36
sS'velocities_arr_3'
p229
F1.18
sS'velocities_arr_4'
p230
F1.12
sS'velocities_arr_5'
p231
F1.1
sS'velocities_arr_6'
p232
I0
sS'velocities_arr_1'
p233
F1.25
sS'velocities_arr_8'
p234
I0
sS'velocities_arr_9'
p235
I0
sg58
I103
sg76
I45
sS'velocities_arr_7'
p236
I0
sS'category_exercise_name_12'
p237
I0
sS'category_exercise_name_10'
p238
I0
sS'category_exercise_name_11'
p239
I0
sS'velocities_arr_10'
p240
I0
sg56
I6
sg82
I6
sS'category_exercise_name_0'
p241
I0
sS'category_exercise_name_1'
p242
I0
sS'category_exercise_name_2'
p243
I1
sS'category_exercise_name_3'
p244
I0
sS'category_exercise_name_4'
p245
I0
sS'category_exercise_name_5'
p246
I0
sS'category_exercise_name_6'
p247
I0
sS'category_exercise_name_7'
p248
I0
sS'category_exercise_name_8'
p249
I0
sS'category_exercise_name_9'
p250
I0
sg93
I0
sg59
I0
sg94
I0
sS'velocities_arr_11'
p251
I0
sg63
I0
sg36
F0.0
sa(dp252
g13
I5
sS'velocities_arr_0'
p253
F0.89
sS'velocities_arr_2'
p254
F0.81
sS'velocities_arr_3'
p255
F0.8
sS'velocities_arr_4'
p256
F0.81
sS'velocities_arr_5'
p257
F0.81
sS'velocities_arr_6'
p258
I0
sS'velocities_arr_1'
p259
F0.9
sS'velocities_arr_8'
p260
I0
sS'velocities_arr_9'
p261
I0
sg58
I117
sg76
I135
sS'velocities_arr_7'
p262
I0
sS'category_exercise_name_12'
p263
I0
sS'category_exercise_name_10'
p264
I0
sS'category_exercise_name_11'
p265
I0
sS'velocities_arr_10'
p266
I0
sg56
I6
sg82
I6
sS'category_exercise_name_0'
p267
I0
sS'category_exercise_name_1'
p268
I0
sS'category_exercise_name_2'
p269
I1
sS'category_exercise_name_3'
p270
I0
sS'category_exercise_name_4'
p271
I0
sS'category_exercise_name_5'
p272
I0
sS'category_exercise_name_6'
p273
I0
sS'category_exercise_name_7'
p274
I0
sS'category_exercise_name_8'
p275
I0
sS'category_exercise_name_9'
p276
I0
sg93
I1
sg59
I0
sg94
I0
sS'velocities_arr_11'
p277
I0
sg63
I0
sg36
F0.0
sa(dp278
g13
I5
sS'velocities_arr_0'
p279
F0.74
sS'velocities_arr_2'
p280
F0.68
sS'velocities_arr_3'
p281
F0.64
sS'velocities_arr_4'
p282
F0.64
sS'velocities_arr_5'
p283
F0.64
sS'velocities_arr_6'
p284
I0
sS'velocities_arr_1'
p285
F0.7
sS'velocities_arr_8'
p286
I0
sS'velocities_arr_9'
p287
I0
sg58
I130
sg76
I185
sS'velocities_arr_7'
p288
I0
sS'category_exercise_name_12'
p289
I0
sS'category_exercise_name_10'
p290
I0
sS'category_exercise_name_11'
p291
I0
sS'velocities_arr_10'
p292
I0
sg56
I6
sg82
I6
sS'category_exercise_name_0'
p293
I0
sS'category_exercise_name_1'
p294
I0
sS'category_exercise_name_2'
p295
I1
sS'category_exercise_name_3'
p296
I0
sS'category_exercise_name_4'
p297
I0
sS'category_exercise_name_5'
p298
I0
sS'category_exercise_name_6'
p299
I0
sS'category_exercise_name_7'
p300
I0
sS'category_exercise_name_8'
p301
I0
sS'category_exercise_name_9'
p302
I0
sg93
I2
sg59
I0
sg94
I0
sS'velocities_arr_11'
p303
I0
sg63
I0
sg36
F0.0
sa(dp304
g13
I5
sS'velocities_arr_0'
p305
F0.76
sS'velocities_arr_2'
p306
F0.68
sS'velocities_arr_3'
p307
F0.67
sS'velocities_arr_4'
p308
F0.62
sS'velocities_arr_5'
p309
F0.6
sS'velocities_arr_6'
p310
I0
sS'velocities_arr_1'
p311
F0.76
sS'velocities_arr_8'
p312
I0
sS'velocities_arr_9'
p313
I0
sg58
I146
sg76
I175
sS'velocities_arr_7'
p314
I0
sS'category_exercise_name_12'
p315
I0
sS'category_exercise_name_10'
p316
I0
sS'category_exercise_name_11'
p317
I0
sS'velocities_arr_10'
p318
I0
sg56
I6
sg82
I6
sS'category_exercise_name_0'
p319
I0
sS'category_exercise_name_1'
p320
I0
sS'category_exercise_name_2'
p321
I1
sS'category_exercise_name_3'
p322
I0
sS'category_exercise_name_4'
p323
I0
sS'category_exercise_name_5'
p324
I0
sS'category_exercise_name_6'
p325
I0
sS'category_exercise_name_7'
p326
I0
sS'category_exercise_name_8'
p327
I0
sS'category_exercise_name_9'
p328
I0
sg93
I3
sg59
I0
sg94
I0
sS'velocities_arr_11'
p329
I0
sg63
I0
sg36
F0.0
sa(dp330
g13
I5
sS'velocities_arr_0'
p331
F0.85
sS'velocities_arr_2'
p332
F0.77
sS'velocities_arr_3'
p333
F0.69
sS'velocities_arr_4'
p334
F0.68
sS'velocities_arr_5'
p335
F0.7
sS'velocities_arr_6'
p336
I0
sS'velocities_arr_1'
p337
F0.8
sS'velocities_arr_8'
p338
I0
sS'velocities_arr_9'
p339
I0
sg58
I149
sg76
I165
sS'velocities_arr_7'
p340
I0
sS'category_exercise_name_12'
p341
I0
sS'category_exercise_name_10'
p342
I0
sS'category_exercise_name_11'
p343
I0
sS'velocities_arr_10'
p344
I0
sg56
I6
sg82
I6
sS'category_exercise_name_0'
p345
I0
sS'category_exercise_name_1'
p346
I0
sS'category_exercise_name_2'
p347
I1
sS'category_exercise_name_3'
p348
I0
sS'category_exercise_name_4'
p349
I0
sS'category_exercise_name_5'
p350
I0
sS'category_exercise_name_6'
p351
I0
sS'category_exercise_name_7'
p352
I0
sS'category_exercise_name_8'
p353
I0
sS'category_exercise_name_9'
p354
I0
sg93
I4
sg59
I0
sg94
I0
sS'velocities_arr_11'
p355
I0
sg63
I0
sg36
F0.0
sa(dp356
g13
I5
sS'velocities_arr_0'
p357
F0.76
sS'velocities_arr_2'
p358
F0.69
sS'velocities_arr_3'
p359
F0.59
sS'velocities_arr_4'
p360
F0.58
sS'velocities_arr_5'
p361
F0.62
sS'velocities_arr_6'
p362
I0
sS'velocities_arr_1'
p363
F0.74
sS'velocities_arr_8'
p364
I0
sS'velocities_arr_9'
p365
I0
sg58
I149
sg76
I170
sS'velocities_arr_7'
p366
I0
sS'category_exercise_name_12'
p367
I0
sS'category_exercise_name_10'
p368
I0
sS'category_exercise_name_11'
p369
I0
sS'velocities_arr_10'
p370
I0
sg56
I6
sg82
I6
sS'category_exercise_name_0'
p371
I0
sS'category_exercise_name_1'
p372
I0
sS'category_exercise_name_2'
p373
I1
sS'category_exercise_name_3'
p374
I0
sS'category_exercise_name_4'
p375
I0
sS'category_exercise_name_5'
p376
I0
sS'category_exercise_name_6'
p377
I0
sS'category_exercise_name_7'
p378
I0
sS'category_exercise_name_8'
p379
I0
sS'category_exercise_name_9'
p380
I0
sg93
I5
sg59
I0
sg94
I0
sS'velocities_arr_11'
p381
I0
sg63
I0
sg36
F0.0
sa(dp382
g13
I5
sS'velocities_arr_0'
p383
F1.92
sS'velocities_arr_2'
p384
F2.41
sS'velocities_arr_3'
p385
F1.96
sS'velocities_arr_4'
p386
F1.65
sS'velocities_arr_5'
p387
F1.68
sS'velocities_arr_6'
p388
I0
sS'velocities_arr_1'
p389
F2.12
sS'velocities_arr_8'
p390
I0
sS'velocities_arr_9'
p391
I0
sg58
I116
sg76
I45
sS'velocities_arr_7'
p392
I0
sS'category_exercise_name_12'
p393
I0
sS'category_exercise_name_10'
p394
I0
sS'category_exercise_name_11'
p395
I0
sS'velocities_arr_10'
p396
I0
sg56
I6
sg82
I6
sS'category_exercise_name_0'
p397
I0
sS'category_exercise_name_1'
p398
I0
sS'category_exercise_name_2'
p399
I0
sS'category_exercise_name_3'
p400
I1
sS'category_exercise_name_4'
p401
I0
sS'category_exercise_name_5'
p402
I0
sS'category_exercise_name_6'
p403
I0
sS'category_exercise_name_7'
p404
I0
sS'category_exercise_name_8'
p405
I0
sS'category_exercise_name_9'
p406
I0
sg93
I6
sg59
I0
sg94
I0
sS'velocities_arr_11'
p407
I0
sg63
I0
sg36
F0.0
sa(dp408
g13
I5
sS'velocities_arr_0'
p409
F0.94
sS'velocities_arr_2'
p410
F0.88
sS'velocities_arr_3'
p411
F0.9
sS'velocities_arr_4'
p412
F0.0
sS'velocities_arr_5'
p413
F0.84
sS'velocities_arr_6'
p414
I0
sS'velocities_arr_1'
p415
F0.84
sS'velocities_arr_8'
p416
I0
sS'velocities_arr_9'
p417
I0
sg58
I125
sg76
I95
sS'velocities_arr_7'
p418
I0
sS'category_exercise_name_12'
p419
I0
sS'category_exercise_name_10'
p420
I0
sS'category_exercise_name_11'
p421
I0
sS'velocities_arr_10'
p422
I0
sg56
I6
sg82
I6
sS'category_exercise_name_0'
p423
I0
sS'category_exercise_name_1'
p424
I0
sS'category_exercise_name_2'
p425
I0
sS'category_exercise_name_3'
p426
I1
sS'category_exercise_name_4'
p427
I0
sS'category_exercise_name_5'
p428
I0
sS'category_exercise_name_6'
p429
I0
sS'category_exercise_name_7'
p430
I0
sS'category_exercise_name_8'
p431
I0
sS'category_exercise_name_9'
p432
I0
sg93
I7
sg59
I0
sg94
I0
sS'velocities_arr_11'
p433
I0
sg63
I0
sg36
F0.0
sa(dp434
g13
I5
sS'velocities_arr_0'
p435
F0.85
sS'velocities_arr_2'
p436
F0.73
sS'velocities_arr_3'
p437
F0.71
sS'velocities_arr_4'
p438
F0.69
sS'velocities_arr_5'
p439
F0.64
sS'velocities_arr_6'
p440
I0
sS'velocities_arr_1'
p441
F0.78
sS'velocities_arr_8'
p442
I0
sS'velocities_arr_9'
p443
I0
sg58
I118
sg76
I105
sS'velocities_arr_7'
p444
I0
sS'category_exercise_name_12'
p445
I0
sS'category_exercise_name_10'
p446
I0
sS'category_exercise_name_11'
p447
I0
sS'velocities_arr_10'
p448
I0
sg56
I6
sg82
I6
sS'category_exercise_name_0'
p449
I0
sS'category_exercise_name_1'
p450
I0
sS'category_exercise_name_2'
p451
I0
sS'category_exercise_name_3'
p452
I1
sS'category_exercise_name_4'
p453
I0
sS'category_exercise_name_5'
p454
I0
sS'category_exercise_name_6'
p455
I0
sS'category_exercise_name_7'
p456
I0
sS'category_exercise_name_8'
p457
I0
sS'category_exercise_name_9'
p458
I0
sg93
I8
sg59
I0
sg94
I0
sS'velocities_arr_11'
p459
I0
sg63
I0
sg36
F0.0
sa(dp460
g13
I5
sS'velocities_arr_0'
p461
F0.9
sS'velocities_arr_2'
p462
F0.78
sS'velocities_arr_3'
p463
F0.76
sS'velocities_arr_4'
p464
F0.73
sS'velocities_arr_5'
p465
F0.73
sS'velocities_arr_6'
p466
I0
sS'velocities_arr_1'
p467
F0.83
sS'velocities_arr_8'
p468
I0
sS'velocities_arr_9'
p469
I0
sg58
I122
sg76
I105
sS'velocities_arr_7'
p470
I0
sS'category_exercise_name_12'
p471
I0
sS'category_exercise_name_10'
p472
I0
sS'category_exercise_name_11'
p473
I0
sS'velocities_arr_10'
p474
I0
sg56
I6
sg82
I6
sS'category_exercise_name_0'
p475
I0
sS'category_exercise_name_1'
p476
I0
sS'category_exercise_name_2'
p477
I0
sS'category_exercise_name_3'
p478
I1
sS'category_exercise_name_4'
p479
I0
sS'category_exercise_name_5'
p480
I0
sS'category_exercise_name_6'
p481
I0
sS'category_exercise_name_7'
p482
I0
sS'category_exercise_name_8'
p483
I0
sS'category_exercise_name_9'
p484
I0
sg93
I9
sg59
I0
sg94
I0
sS'velocities_arr_11'
p485
I0
sg63
I0
sg36
F0.0
sa(dp486
g13
I5
sS'velocities_arr_0'
p487
F0.85
sS'velocities_arr_2'
p488
F0.66
sS'velocities_arr_3'
p489
F0.69
sS'velocities_arr_4'
p490
F0.62
sS'velocities_arr_5'
p491
F0.62
sS'velocities_arr_6'
p492
I0
sS'velocities_arr_1'
p493
F0.81
sS'velocities_arr_8'
p494
I0
sS'velocities_arr_9'
p495
I0
sg58
I130
sg76
I110
sS'velocities_arr_7'
p496
I0
sS'category_exercise_name_12'
p497
I0
sS'category_exercise_name_10'
p498
I0
sS'category_exercise_name_11'
p499
I0
sS'velocities_arr_10'
p500
I0
sg56
I6
sg82
I6
sS'category_exercise_name_0'
p501
I0
sS'category_exercise_name_1'
p502
I0
sS'category_exercise_name_2'
p503
I0
sS'category_exercise_name_3'
p504
I1
sS'category_exercise_name_4'
p505
I0
sS'category_exercise_name_5'
p506
I0
sS'category_exercise_name_6'
p507
I0
sS'category_exercise_name_7'
p508
I0
sS'category_exercise_name_8'
p509
I0
sS'category_exercise_name_9'
p510
I0
sg93
I10
sg59
I0
sg94
I0
sS'velocities_arr_11'
p511
I0
sg63
I0
sg36
F0.0
sa(dp512
g13
I5
sS'velocities_arr_0'
p513
F0.76
sS'velocities_arr_2'
p514
F0.63
sS'velocities_arr_3'
p515
F0.59
sS'velocities_arr_4'
p516
F0.58
sS'velocities_arr_5'
p517
F0.63
sS'velocities_arr_6'
p518
I0
sS'velocities_arr_1'
p519
F0.75
sS'velocities_arr_8'
p520
I0
sS'velocities_arr_9'
p521
I0
sg58
I124
sg76
I110
sS'velocities_arr_7'
p522
I0
sS'category_exercise_name_12'
p523
I0
sS'category_exercise_name_10'
p524
I0
sS'category_exercise_name_11'
p525
I0
sS'velocities_arr_10'
p526
I0
sg56
I6
sg82
I6
sS'category_exercise_name_0'
p527
I0
sS'category_exercise_name_1'
p528
I0
sS'category_exercise_name_2'
p529
I0
sS'category_exercise_name_3'
p530
I1
sS'category_exercise_name_4'
p531
I0
sS'category_exercise_name_5'
p532
I0
sS'category_exercise_name_6'
p533
I0
sS'category_exercise_name_7'
p534
I0
sS'category_exercise_name_8'
p535
I0
sS'category_exercise_name_9'
p536
I0
sg93
I11
sg59
I0
sg94
I0
sS'velocities_arr_11'
p537
I0
sg63
I0
sg36
F0.0
sa(dp538
g13
I5
sS'velocities_arr_0'
p539
F0.7
sS'velocities_arr_2'
p540
I0
sS'velocities_arr_3'
p541
I0
sS'velocities_arr_4'
p542
I0
sS'velocities_arr_5'
p543
I0
sS'velocities_arr_6'
p544
I0
sS'velocities_arr_1'
p545
I0
sS'velocities_arr_8'
p546
I0
sS'velocities_arr_9'
p547
I0
sg58
I131
sg76
I135
sS'velocities_arr_7'
p548
I0
sS'category_exercise_name_12'
p549
I0
sS'category_exercise_name_10'
p550
I0
sS'category_exercise_name_11'
p551
I0
sS'velocities_arr_10'
p552
I0
sg56
I1
sg82
I1
sS'category_exercise_name_0'
p553
I1
sS'category_exercise_name_1'
p554
I0
sS'category_exercise_name_2'
p555
I0
sS'category_exercise_name_3'
p556
I0
sS'category_exercise_name_4'
p557
I0
sS'category_exercise_name_5'
p558
I0
sS'category_exercise_name_6'
p559
I0
sS'category_exercise_name_7'
p560
I0
sS'category_exercise_name_8'
p561
I0
sS'category_exercise_name_9'
p562
I0
sg93
I12
sg59
I0
sg94
I0
sS'velocities_arr_11'
p563
I0
sg63
I0
sg36
F0.0
sa(dp564
g13
I5
sS'velocities_arr_0'
p565
F0.67
sS'velocities_arr_2'
p566
I0
sS'velocities_arr_3'
p567
I0
sS'velocities_arr_4'
p568
I0
sS'velocities_arr_5'
p569
I0
sS'velocities_arr_6'
p570
I0
sS'velocities_arr_1'
p571
I0
sS'velocities_arr_8'
p572
I0
sS'velocities_arr_9'
p573
I0
sg58
I128
sg76
I135
sS'velocities_arr_7'
p574
I0
sS'category_exercise_name_12'
p575
I0
sS'category_exercise_name_10'
p576
I0
sS'category_exercise_name_11'
p577
I0
sS'velocities_arr_10'
p578
I0
sg56
I1
sg82
I1
sS'category_exercise_name_0'
p579
I1
sS'category_exercise_name_1'
p580
I0
sS'category_exercise_name_2'
p581
I0
sS'category_exercise_name_3'
p582
I0
sS'category_exercise_name_4'
p583
I0
sS'category_exercise_name_5'
p584
I0
sS'category_exercise_name_6'
p585
I0
sS'category_exercise_name_7'
p586
I0
sS'category_exercise_name_8'
p587
I0
sS'category_exercise_name_9'
p588
I0
sg93
I13
sg59
I0
sg94
I0
sS'velocities_arr_11'
p589
I0
sg63
I0
sg36
F0.0
sa(dp590
g13
I5
sS'velocities_arr_0'
p591
F0.71
sS'velocities_arr_2'
p592
I0
sS'velocities_arr_3'
p593
I0
sS'velocities_arr_4'
p594
I0
sS'velocities_arr_5'
p595
I0
sS'velocities_arr_6'
p596
I0
sS'velocities_arr_1'
p597
I0
sS'velocities_arr_8'
p598
I0
sS'velocities_arr_9'
p599
I0
sg58
I131
sg76
I135
sS'velocities_arr_7'
p600
I0
sS'category_exercise_name_12'
p601
I0
sS'category_exercise_name_10'
p602
I0
sS'category_exercise_name_11'
p603
I0
sS'velocities_arr_10'
p604
I0
sg56
I1
sg82
I1
sS'category_exercise_name_0'
p605
I1
sS'category_exercise_name_1'
p606
I0
sS'category_exercise_name_2'
p607
I0
sS'category_exercise_name_3'
p608
I0
sS'category_exercise_name_4'
p609
I0
sS'category_exercise_name_5'
p610
I0
sS'category_exercise_name_6'
p611
I0
sS'category_exercise_name_7'
p612
I0
sS'category_exercise_name_8'
p613
I0
sS'category_exercise_name_9'
p614
I0
sg93
I14
sg59
I0
sg94
I0
sS'velocities_arr_11'
p615
I0
sg63
I0
sg36
F0.0
sa(dp616
g13
I5
sS'velocities_arr_0'
p617
F0.9
sS'velocities_arr_2'
p618
I0
sS'velocities_arr_3'
p619
I0
sS'velocities_arr_4'
p620
I0
sS'velocities_arr_5'
p621
I0
sS'velocities_arr_6'
p622
I0
sS'velocities_arr_1'
p623
I0
sS'velocities_arr_8'
p624
I0
sS'velocities_arr_9'
p625
I0
sg58
I125
sg76
I145
sS'velocities_arr_7'
p626
I0
sS'category_exercise_name_12'
p627
I0
sS'category_exercise_name_10'
p628
I0
sS'category_exercise_name_11'
p629
I0
sS'velocities_arr_10'
p630
I0
sg56
I1
sg82
I1
sS'category_exercise_name_0'
p631
I1
sS'category_exercise_name_1'
p632
I0
sS'category_exercise_name_2'
p633
I0
sS'category_exercise_name_3'
p634
I0
sS'category_exercise_name_4'
p635
I0
sS'category_exercise_name_5'
p636
I0
sS'category_exercise_name_6'
p637
I0
sS'category_exercise_name_7'
p638
I0
sS'category_exercise_name_8'
p639
I0
sS'category_exercise_name_9'
p640
I0
sg93
I15
sg59
I0
sg94
I0
sS'velocities_arr_11'
p641
I0
sg63
I0
sg36
F0.0
sa(dp642
g13
I5
sS'velocities_arr_0'
p643
F0.77
sS'velocities_arr_2'
p644
I0
sS'velocities_arr_3'
p645
I0
sS'velocities_arr_4'
p646
I0
sS'velocities_arr_5'
p647
I0
sS'velocities_arr_6'
p648
I0
sS'velocities_arr_1'
p649
I0
sS'velocities_arr_8'
p650
I0
sS'velocities_arr_9'
p651
I0
sg58
I125
sg76
I155
sS'velocities_arr_7'
p652
I0
sS'category_exercise_name_12'
p653
I0
sS'category_exercise_name_10'
p654
I0
sS'category_exercise_name_11'
p655
I0
sS'velocities_arr_10'
p656
I0
sg56
I1
sg82
I1
sS'category_exercise_name_0'
p657
I1
sS'category_exercise_name_1'
p658
I0
sS'category_exercise_name_2'
p659
I0
sS'category_exercise_name_3'
p660
I0
sS'category_exercise_name_4'
p661
I0
sS'category_exercise_name_5'
p662
I0
sS'category_exercise_name_6'
p663
I0
sS'category_exercise_name_7'
p664
I0
sS'category_exercise_name_8'
p665
I0
sS'category_exercise_name_9'
p666
I0
sg93
I16
sg59
I0
sg94
I0
sS'velocities_arr_11'
p667
I0
sg63
I0
sg36
F0.0
sa(dp668
g13
I5
sS'velocities_arr_0'
p669
F1.46
sS'velocities_arr_2'
p670
I0
sS'velocities_arr_3'
p671
I0
sS'velocities_arr_4'
p672
I0
sS'velocities_arr_5'
p673
I0
sS'velocities_arr_6'
p674
I0
sS'velocities_arr_1'
p675
I0
sS'velocities_arr_8'
p676
I0
sS'velocities_arr_9'
p677
I0
sg58
I123
sg76
I175
sS'velocities_arr_7'
p678
I0
sS'category_exercise_name_12'
p679
I0
sS'category_exercise_name_10'
p680
I0
sS'category_exercise_name_11'
p681
I0
sS'velocities_arr_10'
p682
I0
sg56
I1
sg82
I1
sS'category_exercise_name_0'
p683
I1
sS'category_exercise_name_1'
p684
I0
sS'category_exercise_name_2'
p685
I0
sS'category_exercise_name_3'
p686
I0
sS'category_exercise_name_4'
p687
I0
sS'category_exercise_name_5'
p688
I0
sS'category_exercise_name_6'
p689
I0
sS'category_exercise_name_7'
p690
I0
sS'category_exercise_name_8'
p691
I0
sS'category_exercise_name_9'
p692
I0
sg93
I17
sg59
I0
sg94
I0
sS'velocities_arr_11'
p693
I0
sg63
I0
sg36
F0.0
sa(dp694
g13
I5
sS'velocities_arr_0'
p695
F0.61
sS'velocities_arr_2'
p696
I0
sS'velocities_arr_3'
p697
I0
sS'velocities_arr_4'
p698
I0
sS'velocities_arr_5'
p699
I0
sS'velocities_arr_6'
p700
I0
sS'velocities_arr_1'
p701
I0
sS'velocities_arr_8'
p702
I0
sS'velocities_arr_9'
p703
I0
sg58
I125
sg76
I185
sS'velocities_arr_7'
p704
I0
sS'category_exercise_name_12'
p705
I0
sS'category_exercise_name_10'
p706
I0
sS'category_exercise_name_11'
p707
I0
sS'velocities_arr_10'
p708
I0
sg56
I1
sg82
I1
sS'category_exercise_name_0'
p709
I1
sS'category_exercise_name_1'
p710
I0
sS'category_exercise_name_2'
p711
I0
sS'category_exercise_name_3'
p712
I0
sS'category_exercise_name_4'
p713
I0
sS'category_exercise_name_5'
p714
I0
sS'category_exercise_name_6'
p715
I0
sS'category_exercise_name_7'
p716
I0
sS'category_exercise_name_8'
p717
I0
sS'category_exercise_name_9'
p718
I0
sg93
I18
sg59
I0
sg94
I0
sS'velocities_arr_11'
p719
I0
sg63
I0
sg36
F0.0
sa(dp720
g13
I5
sS'velocities_arr_0'
p721
F0.65
sS'velocities_arr_2'
p722
I0
sS'velocities_arr_3'
p723
I0
sS'velocities_arr_4'
p724
I0
sS'velocities_arr_5'
p725
I0
sS'velocities_arr_6'
p726
I0
sS'velocities_arr_1'
p727
I0
sS'velocities_arr_8'
p728
I0
sS'velocities_arr_9'
p729
I0
sg58
I125
sg76
I175
sS'velocities_arr_7'
p730
I0
sS'category_exercise_name_12'
p731
I0
sS'category_exercise_name_10'
p732
I0
sS'category_exercise_name_11'
p733
I0
sS'velocities_arr_10'
p734
I0
sg56
I1
sg82
I1
sS'category_exercise_name_0'
p735
I1
sS'category_exercise_name_1'
p736
I0
sS'category_exercise_name_2'
p737
I0
sS'category_exercise_name_3'
p738
I0
sS'category_exercise_name_4'
p739
I0
sS'category_exercise_name_5'
p740
I0
sS'category_exercise_name_6'
p741
I0
sS'category_exercise_name_7'
p742
I0
sS'category_exercise_name_8'
p743
I0
sS'category_exercise_name_9'
p744
I0
sg93
I19
sg59
I0
sg94
I0
sS'velocities_arr_11'
p745
I0
sg63
I0
sg36
F0.0
sa(dp746
g13
I5
sS'velocities_arr_0'
p747
F0.68
sS'velocities_arr_2'
p748
I0
sS'velocities_arr_3'
p749
I0
sS'velocities_arr_4'
p750
I0
sS'velocities_arr_5'
p751
I0
sS'velocities_arr_6'
p752
I0
sS'velocities_arr_1'
p753
I0
sS'velocities_arr_8'
p754
I0
sS'velocities_arr_9'
p755
I0
sg58
I124
sg76
I165
sS'velocities_arr_7'
p756
I0
sS'category_exercise_name_12'
p757
I0
sS'category_exercise_name_10'
p758
I0
sS'category_exercise_name_11'
p759
I0
sS'velocities_arr_10'
p760
I0
sg56
I1
sg82
I1
sS'category_exercise_name_0'
p761
I1
sS'category_exercise_name_1'
p762
I0
sS'category_exercise_name_2'
p763
I0
sS'category_exercise_name_3'
p764
I0
sS'category_exercise_name_4'
p765
I0
sS'category_exercise_name_5'
p766
I0
sS'category_exercise_name_6'
p767
I0
sS'category_exercise_name_7'
p768
I0
sS'category_exercise_name_8'
p769
I0
sS'category_exercise_name_9'
p770
I0
sg93
I20
sg59
I0
sg94
I0
sS'velocities_arr_11'
p771
I0
sg63
I0
sg36
F0.0
sa(dp772
g13
I5
sS'velocities_arr_0'
p773
F1.67
sS'velocities_arr_2'
p774
I0
sS'velocities_arr_3'
p775
I0
sS'velocities_arr_4'
p776
I0
sS'velocities_arr_5'
p777
I0
sS'velocities_arr_6'
p778
I0
sS'velocities_arr_1'
p779
I0
sS'velocities_arr_8'
p780
I0
sS'velocities_arr_9'
p781
I0
sg58
I117
sg76
I160
sS'velocities_arr_7'
p782
I0
sS'category_exercise_name_12'
p783
I0
sS'category_exercise_name_10'
p784
I0
sS'category_exercise_name_11'
p785
I0
sS'velocities_arr_10'
p786
I0
sg56
I1
sg82
I1
sS'category_exercise_name_0'
p787
I1
sS'category_exercise_name_1'
p788
I0
sS'category_exercise_name_2'
p789
I0
sS'category_exercise_name_3'
p790
I0
sS'category_exercise_name_4'
p791
I0
sS'category_exercise_name_5'
p792
I0
sS'category_exercise_name_6'
p793
I0
sS'category_exercise_name_7'
p794
I0
sS'category_exercise_name_8'
p795
I0
sS'category_exercise_name_9'
p796
I0
sg93
I21
sg59
I0
sg94
I0
sS'velocities_arr_11'
p797
I0
sg63
I0
sg36
F0.0
sa(dp798
g13
I8
sS'velocities_arr_0'
p799
F1.1
sS'velocities_arr_2'
p800
F1.07
sS'velocities_arr_3'
p801
F1.0
sS'velocities_arr_4'
p802
F1.03
sS'velocities_arr_5'
p803
I0
sS'velocities_arr_6'
p804
I0
sS'velocities_arr_1'
p805
F1.1
sS'velocities_arr_8'
p806
I0
sS'velocities_arr_9'
p807
I0
sg58
I110
sg76
I45
sS'velocities_arr_7'
p808
I0
sS'category_exercise_name_12'
p809
I0
sS'category_exercise_name_10'
p810
I0
sS'category_exercise_name_11'
p811
I0
sS'velocities_arr_10'
p812
I0
sg56
I5
sg82
I5
sS'category_exercise_name_0'
p813
I0
sS'category_exercise_name_1'
p814
I0
sS'category_exercise_name_2'
p815
I1
sS'category_exercise_name_3'
p816
I0
sS'category_exercise_name_4'
p817
I0
sS'category_exercise_name_5'
p818
I0
sS'category_exercise_name_6'
p819
I0
sS'category_exercise_name_7'
p820
I0
sS'category_exercise_name_8'
p821
I0
sS'category_exercise_name_9'
p822
I0
sg93
I0
sg59
I0
sg94
I0
sS'velocities_arr_11'
p823
I0
sg63
I0
sg36
F6.0
sa(dp824
g13
I8
sS'velocities_arr_0'
p825
F0.84
sS'velocities_arr_2'
p826
F0.74
sS'velocities_arr_3'
p827
F0.76
sS'velocities_arr_4'
p828
F0.7
sS'velocities_arr_5'
p829
I0
sS'velocities_arr_6'
p830
I0
sS'velocities_arr_1'
p831
F0.81
sS'velocities_arr_8'
p832
I0
sS'velocities_arr_9'
p833
I0
sg58
I119
sg76
I135
sS'velocities_arr_7'
p834
I0
sS'category_exercise_name_12'
p835
I0
sS'category_exercise_name_10'
p836
I0
sS'category_exercise_name_11'
p837
I0
sS'velocities_arr_10'
p838
I0
sg56
I5
sg82
I5
sS'category_exercise_name_0'
p839
I0
sS'category_exercise_name_1'
p840
I0
sS'category_exercise_name_2'
p841
I1
sS'category_exercise_name_3'
p842
I0
sS'category_exercise_name_4'
p843
I0
sS'category_exercise_name_5'
p844
I0
sS'category_exercise_name_6'
p845
I0
sS'category_exercise_name_7'
p846
I0
sS'category_exercise_name_8'
p847
I0
sS'category_exercise_name_9'
p848
I0
sg93
I1
sg59
I0
sg94
I0
sS'velocities_arr_11'
p849
I0
sg63
I0
sg36
F6.0
sa(dp850
g13
I8
sS'velocities_arr_0'
p851
F0.69
sS'velocities_arr_2'
p852
F0.57
sS'velocities_arr_3'
p853
F0.63
sS'velocities_arr_4'
p854
F0.59
sS'velocities_arr_5'
p855
F0.6
sS'velocities_arr_6'
p856
F0.55
sS'velocities_arr_1'
p857
F0.68
sS'velocities_arr_8'
p858
I0
sS'velocities_arr_9'
p859
I0
sg58
I148
sg76
I185
sS'velocities_arr_7'
p860
F0.5
sS'category_exercise_name_12'
p861
I0
sS'category_exercise_name_10'
p862
I0
sS'category_exercise_name_11'
p863
I0
sS'velocities_arr_10'
p864
I0
sg56
I8
sg82
I8
sS'category_exercise_name_0'
p865
I0
sS'category_exercise_name_1'
p866
I0
sS'category_exercise_name_2'
p867
I1
sS'category_exercise_name_3'
p868
I0
sS'category_exercise_name_4'
p869
I0
sS'category_exercise_name_5'
p870
I0
sS'category_exercise_name_6'
p871
I0
sS'category_exercise_name_7'
p872
I0
sS'category_exercise_name_8'
p873
I0
sS'category_exercise_name_9'
p874
I0
sg93
I2
sg59
I0
sg94
I0
sS'velocities_arr_11'
p875
I0
sg63
I0
sg36
F6.0
sa(dp876
g13
I8
sS'velocities_arr_0'
p877
F0.68
sS'velocities_arr_2'
p878
F0.65
sS'velocities_arr_3'
p879
F0.61
sS'velocities_arr_4'
p880
F0.58
sS'velocities_arr_5'
p881
F0.57
sS'velocities_arr_6'
p882
F0.55
sS'velocities_arr_1'
p883
F0.64
sS'velocities_arr_8'
p884
I0
sS'velocities_arr_9'
p885
I0
sg58
I156
sg76
I185
sS'velocities_arr_7'
p886
F0.53
sS'category_exercise_name_12'
p887
I0
sS'category_exercise_name_10'
p888
I0
sS'category_exercise_name_11'
p889
I0
sS'velocities_arr_10'
p890
I0
sg56
I8
sg82
I8
sS'category_exercise_name_0'
p891
I0
sS'category_exercise_name_1'
p892
I0
sS'category_exercise_name_2'
p893
I1
sS'category_exercise_name_3'
p894
I0
sS'category_exercise_name_4'
p895
I0
sS'category_exercise_name_5'
p896
I0
sS'category_exercise_name_6'
p897
I0
sS'category_exercise_name_7'
p898
I0
sS'category_exercise_name_8'
p899
I0
sS'category_exercise_name_9'
p900
I0
sg93
I3
sg59
I0
sg94
I0
sS'velocities_arr_11'
p901
I0
sg63
I0
sg36
F6.0
sa(dp902
g13
I8
sS'velocities_arr_0'
p903
F0.67
sS'velocities_arr_2'
p904
F0.6
sS'velocities_arr_3'
p905
F0.63
sS'velocities_arr_4'
p906
F0.62
sS'velocities_arr_5'
p907
F0.54
sS'velocities_arr_6'
p908
F0.57
sS'velocities_arr_1'
p909
F0.67
sS'velocities_arr_8'
p910
I0
sS'velocities_arr_9'
p911
I0
sg58
I152
sg76
I185
sS'velocities_arr_7'
p912
F0.52
sS'category_exercise_name_12'
p913
I0
sS'category_exercise_name_10'
p914
I0
sS'category_exercise_name_11'
p915
I0
sS'velocities_arr_10'
p916
I0
sg56
I8
sg82
I8
sS'category_exercise_name_0'
p917
I0
sS'category_exercise_name_1'
p918
I0
sS'category_exercise_name_2'
p919
I1
sS'category_exercise_name_3'
p920
I0
sS'category_exercise_name_4'
p921
I0
sS'category_exercise_name_5'
p922
I0
sS'category_exercise_name_6'
p923
I0
sS'category_exercise_name_7'
p924
I0
sS'category_exercise_name_8'
p925
I0
sS'category_exercise_name_9'
p926
I0
sg93
I4
sg59
I0
sg94
I0
sS'velocities_arr_11'
p927
I0
sg63
I0
sg36
F6.0
sa(dp928
g13
I8
sS'velocities_arr_0'
p929
I0
sS'velocities_arr_2'
p930
I0
sS'velocities_arr_3'
p931
I0
sS'velocities_arr_4'
p932
I0
sS'velocities_arr_5'
p933
I0
sS'velocities_arr_6'
p934
I0
sS'velocities_arr_1'
p935
I0
sS'velocities_arr_8'
p936
I0
sS'velocities_arr_9'
p937
I0
sg58
I127
sg76
I164
sS'velocities_arr_7'
p938
I0
sS'category_exercise_name_12'
p939
I0
sS'category_exercise_name_10'
p940
I0
sS'category_exercise_name_11'
p941
I1
sS'velocities_arr_10'
p942
I0
sg56
I3
sg82
I3
sS'category_exercise_name_0'
p943
I0
sS'category_exercise_name_1'
p944
I0
sS'category_exercise_name_2'
p945
I0
sS'category_exercise_name_3'
p946
I0
sS'category_exercise_name_4'
p947
I0
sS'category_exercise_name_5'
p948
I0
sS'category_exercise_name_6'
p949
I0
sS'category_exercise_name_7'
p950
I0
sS'category_exercise_name_8'
p951
I0
sS'category_exercise_name_9'
p952
I0
sg93
I5
sg59
I0
sg94
I0
sS'velocities_arr_11'
p953
I0
sg63
I0
sg36
F6.0
sa(dp954
g13
I8
sS'velocities_arr_0'
p955
I0
sS'velocities_arr_2'
p956
I0
sS'velocities_arr_3'
p957
I0
sS'velocities_arr_4'
p958
I0
sS'velocities_arr_5'
p959
I0
sS'velocities_arr_6'
p960
I0
sS'velocities_arr_1'
p961
I0
sS'velocities_arr_8'
p962
I0
sS'velocities_arr_9'
p963
I0
sg58
I116
sg76
I45
sS'velocities_arr_7'
p964
I0
sS'category_exercise_name_12'
p965
I0
sS'category_exercise_name_10'
p966
I0
sS'category_exercise_name_11'
p967
I0
sS'velocities_arr_10'
p968
I0
sg56
I8
sg82
I8
sS'category_exercise_name_0'
p969
I0
sS'category_exercise_name_1'
p970
I0
sS'category_exercise_name_2'
p971
I0
sS'category_exercise_name_3'
p972
I1
sS'category_exercise_name_4'
p973
I0
sS'category_exercise_name_5'
p974
I0
sS'category_exercise_name_6'
p975
I0
sS'category_exercise_name_7'
p976
I0
sS'category_exercise_name_8'
p977
I0
sS'category_exercise_name_9'
p978
I0
sg93
I6
sg59
I0
sg94
I0
sS'velocities_arr_11'
p979
I0
sg63
I0
sg36
F6.0
sa(dp980
g13
I8
sS'velocities_arr_0'
p981
I0
sS'velocities_arr_2'
p982
I0
sS'velocities_arr_3'
p983
I0
sS'velocities_arr_4'
p984
I0
sS'velocities_arr_5'
p985
I0
sS'velocities_arr_6'
p986
I0
sS'velocities_arr_1'
p987
I0
sS'velocities_arr_8'
p988
I0
sS'velocities_arr_9'
p989
I0
sg58
I121
sg76
I95
sS'velocities_arr_7'
p990
I0
sS'category_exercise_name_12'
p991
I0
sS'category_exercise_name_10'
p992
I0
sS'category_exercise_name_11'
p993
I0
sS'velocities_arr_10'
p994
I0
sg56
I8
sg82
I8
sS'category_exercise_name_0'
p995
I0
sS'category_exercise_name_1'
p996
I0
sS'category_exercise_name_2'
p997
I0
sS'category_exercise_name_3'
p998
I1
sS'category_exercise_name_4'
p999
I0
sS'category_exercise_name_5'
p1000
I0
sS'category_exercise_name_6'
p1001
I0
sS'category_exercise_name_7'
p1002
I0
sS'category_exercise_name_8'
p1003
I0
sS'category_exercise_name_9'
p1004
I0
sg93
I7
sg59
I0
sg94
I0
sS'velocities_arr_11'
p1005
I0
sg63
I0
sg36
F6.0
sa(dp1006
g13
I8
sS'velocities_arr_0'
p1007
F0.68
sS'velocities_arr_2'
p1008
F0.65
sS'velocities_arr_3'
p1009
F0.61
sS'velocities_arr_4'
p1010
F0.59
sS'velocities_arr_5'
p1011
F0.67
sS'velocities_arr_6'
p1012
F0.59
sS'velocities_arr_1'
p1013
F0.69
sS'velocities_arr_8'
p1014
I0
sS'velocities_arr_9'
p1015
I0
sg58
I123
sg76
I105
sS'velocities_arr_7'
p1016
F0.55
sS'category_exercise_name_12'
p1017
I0
sS'category_exercise_name_10'
p1018
I0
sS'category_exercise_name_11'
p1019
I0
sS'velocities_arr_10'
p1020
I0
sg56
I8
sg82
I8
sS'category_exercise_name_0'
p1021
I0
sS'category_exercise_name_1'
p1022
I0
sS'category_exercise_name_2'
p1023
I0
sS'category_exercise_name_3'
p1024
I1
sS'category_exercise_name_4'
p1025
I0
sS'category_exercise_name_5'
p1026
I0
sS'category_exercise_name_6'
p1027
I0
sS'category_exercise_name_7'
p1028
I0
sS'category_exercise_name_8'
p1029
I0
sS'category_exercise_name_9'
p1030
I0
sg93
I8
sg59
I0
sg94
I0
sS'velocities_arr_11'
p1031
I0
sg63
I0
sg36
F6.0
sa(dp1032
g13
I8
sS'velocities_arr_0'
p1033
F0.64
sS'velocities_arr_2'
p1034
F0.67
sS'velocities_arr_3'
p1035
F0.69
sS'velocities_arr_4'
p1036
F0.67
sS'velocities_arr_5'
p1037
F0.72
sS'velocities_arr_6'
p1038
F0.61
sS'velocities_arr_1'
p1039
F0.68
sS'velocities_arr_8'
p1040
I0
sS'velocities_arr_9'
p1041
I0
sg58
I132
sg76
I105
sS'velocities_arr_7'
p1042
F0.55
sS'category_exercise_name_12'
p1043
I0
sS'category_exercise_name_10'
p1044
I0
sS'category_exercise_name_11'
p1045
I0
sS'velocities_arr_10'
p1046
I0
sg56
I8
sg82
I8
sS'category_exercise_name_0'
p1047
I0
sS'category_exercise_name_1'
p1048
I0
sS'category_exercise_name_2'
p1049
I0
sS'category_exercise_name_3'
p1050
I1
sS'category_exercise_name_4'
p1051
I0
sS'category_exercise_name_5'
p1052
I0
sS'category_exercise_name_6'
p1053
I0
sS'category_exercise_name_7'
p1054
I0
sS'category_exercise_name_8'
p1055
I0
sS'category_exercise_name_9'
p1056
I0
sg93
I9
sg59
I0
sg94
I0
sS'velocities_arr_11'
p1057
I0
sg63
I0
sg36
F6.0
sa(dp1058
g13
I8
sg67
I0
sg68
I0
sg69
I0
sg70
I0
sg71
I0
sg72
I0
sg73
I0
sg74
I0
sg75
I0
sg58
I-1
sg76
I105
sg77
I0
sg78
I0
sg79
I0
sg80
I0
sg56
I-1
sg82
I8
sg83
I0
sg84
I0
sg85
I0
sg86
I1
sg87
I0
sg88
I0
sg89
I0
sg90
I0
sg91
I0
sg92
I0
sg93
I10
sg59
I-1
sg81
I0
sg94
I0
sg95
I0
sg63
I-1
sg36
F6.0
sas.