(dp0
S'userx'
p1
(dp2
S'wrist_width_inches'
p3
I7
sS'height_inches'
p4
F70.0
sS'harris_benedict_bmr'
p5
I-1
sS'genetically_gifted'
p6
I0
sS'years_old'
p7
I31
sS'ankle_width_inches'
p8
I9
sS'sex_is_male'
p9
I1
ssS'dayseriesx'
p10
(lp11
(dp12
S'day_number'
p13
I-1
sS'sleeptime_awake_hrs'
p14
I-1
sS'withings_body_water_percent'
p15
I-1
sS'heart_rate_variability_rmssd'
p16
I-1
sS'sleeptime_deep_rem_hrs'
p17
I-1
sS'withings_body_fat_percent'
p18
I-1
sS'withings_weight_lbs'
p19
I-1
sS'sleeptime_efficiency_percent'
p20
I-1
sS'post_day_calories_in'
p21
I-1
sS'post_day_fat_g'
p22
I-1
sS'sleeptime_bed_time_ampm_index'
p23
I-1
sS'withings_muscle_mass_percent'
p24
I-1
sS'sleeptime_alarm_ring_ampm_index'
p25
I-1
sS'withings_bone_mass_percent'
p26
I-1
sS'sleeptime_snoozed'
p27
I-1
sS'sleeptime_light_sleep_hrs'
p28
I-1
sS'withings_heart_rate_bpm'
p29
I-1
sS'sleeptime_alarm_set_ampm_index'
p30
I-1
sS'post_day_protein_g'
p31
I-1
sS'post_day_wearable_calories_burned'
p32
I-1
sS'withings_pulse_wave_velocity_m_per_s'
p33
I-1
sS'sleeptime_rise_time_ampm_index'
p34
I-1
sS'days_since_last_workout'
p35
I-1
sS'post_day_carbs_g'
p36
I-1
sag12
ag12
ag12
ag12
ag12
ag12
ag12
ag12
ag12
a(dp37
g13
I0
sg14
F4.833333333333333
sg15
F55.7
sg16
I-1
sg17
F2.9166666666666665
sg18
F16.0
sg19
F163.5
sg20
F47.0
sg21
I-1
sg22
I-1
sg23
I566
sg24
F80.0
sg25
I1440
sg26
F4.0
sg27
I0
sg28
F1.3666666666666667
sg29
I77
sg30
I421
sg31
I-1
sg32
I-1
sg33
F7.8
sg34
I395
sg35
I0
sg36
I-1
sasS'workouty'
p38
(dp39
S'velocities_arr_0'
p40
F1.11
sS'velocities_arr_1'
p41
F1.07
sS'velocities_arr_2'
p42
F1.08
sS'velocities_arr_3'
p43
F1.12
sS'velocities_arr_4'
p44
F1.62
sS'velocities_arr_5'
p45
I0
sS'velocities_arr_6'
p46
I0
sS'velocities_arr_7'
p47
I0
sS'reps_completed'
p48
I5
sS'velocities_arr_9'
p49
I0
sS'postset_heartrate'
p50
I107
sS'went_to_failure'
p51
I0
sS'velocities_arr_8'
p52
I0
sS'velocities_arr_10'
p53
I0
sS'velocities_arr_11'
p54
I0
sS'did_pull_muscle'
p55
I0
ssS'workoutxseries'
p56
(lp57
(dp58
g13
I1
sS'velocities_arr_0'
p59
I0
sS'velocities_arr_2'
p60
I0
sS'velocities_arr_3'
p61
I0
sS'velocities_arr_4'
p62
I0
sS'velocities_arr_5'
p63
I0
sS'velocities_arr_6'
p64
I0
sS'velocities_arr_1'
p65
I0
sS'velocities_arr_8'
p66
I0
sS'velocities_arr_9'
p67
I0
sg50
I-1
sS'weight_lbs'
p68
I-1
sS'velocities_arr_7'
p69
I0
sS'category_exercise_name_10'
p70
I0
sS'category_exercise_name_2'
p71
I0
sg48
I-1
sS'reps_planned'
p72
I-1
sS'category_exercise_name_0'
p73
I0
sS'category_exercise_name_1'
p74
I0
sS'velocities_arr_10'
p75
I0
sS'category_exercise_name_3'
p76
I0
sS'category_exercise_name_4'
p77
I0
sS'category_exercise_name_5'
p78
I0
sS'category_exercise_name_6'
p79
I0
sS'category_exercise_name_7'
p80
I0
sS'category_exercise_name_8'
p81
I0
sS'category_exercise_name_9'
p82
I0
sS'set_number_of_the_day'
p83
I0
sg51
I0
sS'used_lifting_gear'
p84
I0
sS'velocities_arr_11'
p85
I0
sg55
I0
sg35
I0
sag58
ag58
ag58
ag58
ag58
ag58
ag58
ag58
ag58
ag58
ag58
ag58
ag58
ag58
ag58
ag58
ag58
ag58
ag58
ag58
ag58
ag58
ag58
ag58
ag58
ag58
ag58
ag58
ag58
ag58
ag58
a(dp86
g13
I1
sg59
I0
sg60
I0
sg61
I0
sg62
I0
sg63
I0
sg64
I0
sg65
I0
sg66
I0
sg67
I0
sg50
I-1
sg68
I45
sg69
I0
sg70
I0
sg48
I-1
sg72
I5
sg73
I0
sg74
I0
sg75
I0
sg76
I0
sg77
I0
sg78
I0
sg79
I0
sg80
I0
sg81
I0
sg82
I0
sg83
I0
sg51
I-1
sg71
I1
sg84
I0
sg85
I0
sg55
I-1
sg35
I0
sas.