(dp0
S'userx'
p1
(dp2
S'wrist_width_inches'
p3
I7
sS'height_inches'
p4
F70.0
sS'harris_benedict_bmr'
p5
I-1
sS'genetically_gifted'
p6
I0
sS'years_old'
p7
I31
sS'ankle_width_inches'
p8
I9
sS'sex_is_male'
p9
I1
ssS'dayseriesx'
p10
(lp11
(dp12
S'day_number'
p13
I-1
sS'sleeptime_awake_hrs'
p14
I-1
sS'withings_body_water_percent'
p15
I-1
sS'heart_rate_variability_rmssd'
p16
I-1
sS'sleeptime_deep_rem_hrs'
p17
I-1
sS'withings_body_fat_percent'
p18
I-1
sS'withings_weight_lbs'
p19
I-1
sS'sleeptime_efficiency_percent'
p20
I-1
sS'post_day_calories_in'
p21
I-1
sS'post_day_fat_g'
p22
I-1
sS'sleeptime_bed_time_ampm_index'
p23
I-1
sS'withings_muscle_mass_percent'
p24
I-1
sS'days_since_last_recorded_day'
p25
I-1
sS'sleeptime_alarm_ring_ampm_index'
p26
I-1
sS'withings_bone_mass_percent'
p27
I-1
sS'sleeptime_snoozed'
p28
I-1
sS'sleeptime_light_sleep_hrs'
p29
I-1
sS'withings_heart_rate_bpm'
p30
I-1
sS'sleeptime_alarm_set_ampm_index'
p31
I-1
sS'post_day_protein_g'
p32
I-1
sS'post_day_wearable_calories_burned'
p33
I-1
sS'withings_pulse_wave_velocity_m_per_s'
p34
I-1
sS'sleeptime_rise_time_ampm_index'
p35
I-1
sS'days_since_last_workout'
p36
I-1
sS'post_day_carbs_g'
p37
I-1
sag12
ag12
a(dp38
g13
I0
sg14
F4.833333333333333
sg15
F55.7
sg16
I-1
sg17
F2.9166666666666665
sg18
F16.0
sg19
F163.5
sg20
F47.0
sg21
I-1
sg22
I-1
sg23
I566
sg24
F80.0
sg25
F0.0
sg26
I1440
sg27
F4.0
sg28
I0
sg29
F1.3666666666666667
sg30
I77
sg31
I421
sg32
I-1
sg33
I-1
sg34
F7.8
sg35
I395
sg36
I0
sg37
I-1
sa(dp39
g13
I1
sg14
F0.3333333333333333
sg15
F55.4
sg16
I-1
sg17
F2.8
sg18
F16.6
sg19
F162.5
sg20
F96.0
sg21
I-1
sg22
I-1
sg23
I710
sg24
F79.4
sg25
F1.0
sg26
I1440
sg27
F4.0
sg28
I0
sg29
F5.866666666666667
sg30
I75
sg31
I589
sg32
I-1
sg33
I-1
sg34
F7.7
sg35
I532
sg36
F1.0
sg37
I-1
sa(dp40
g13
I2
sg14
F0.9833333333333333
sg15
F55.9
sg16
I-1
sg17
F4.466666666666667
sg18
F15.7
sg19
F163.5
sg20
F89.0
sg21
I-1
sg22
I-1
sg23
I1419
sg24
F80.4
sg25
F1.0
sg26
I1440
sg27
F4.0
sg28
I0
sg29
F4.016666666666667
sg30
I-1
sg31
I589
sg32
I-1
sg33
I-1
sg34
I-1
sg35
I548
sg36
F2.0
sg37
I-1
sa(dp41
g13
I3
sg14
F0.9166666666666666
sg15
F56.4
sg16
I-1
sg17
F4.1
sg18
F14.8
sg19
F163.7
sg20
F88.0
sg21
I-1
sg22
I-1
sg23
I1389
sg24
F81.2
sg25
F1.0
sg26
I411
sg27
F4.0
sg28
I4
sg29
F3.1666666666666665
sg30
I86
sg31
I425
sg32
I-1
sg33
I-1
sg34
F7.4
sg35
I441
sg36
F0.0
sg37
I-1
sa(dp42
g13
I4
sg14
F1.5166666666666666
sg15
F55.9
sg16
I-1
sg17
F3.8666666666666667
sg18
F14.8
sg19
F163.8
sg20
F79.0
sg21
I-1
sg22
I-1
sg23
I1434
sg24
F80.4
sg25
F1.0
sg26
I407
sg27
F4.0
sg28
I5
sg29
F2.033333333333333
sg30
I87
sg31
I425
sg32
I-1
sg33
I-1
sg34
F7.4
sg35
I441
sg36
F1.0
sg37
I-1
sa(dp43
g13
I5
sg14
F1.25
sg15
F56.4
sg16
I-1
sg17
F1.8
sg18
F14.8
sg19
F163.2
sg20
F84.0
sg21
I-1
sg22
I-1
sg23
I1393
sg24
F81.2
sg25
F1.0
sg26
I424
sg27
F4.0
sg28
I2
sg29
F5.033333333333333
sg30
I84
sg31
I425
sg32
I-1
sg33
I-1
sg34
F7.5
sg35
I440
sg36
F2.0
sg37
I-1
sa(dp44
g13
I6
sg14
F1.9833333333333334
sg15
F56.4
sg16
I-1
sg17
F3.7333333333333334
sg18
F14.8
sg19
F163.2
sg20
F73.0
sg21
I-1
sg22
I-1
sg23
I1426
sg24
F81.1
sg25
F1.0
sg26
I396
sg27
F4.0
sg28
I5
sg29
F1.85
sg30
I86
sg31
I425
sg32
I-1
sg33
I-1
sg34
F7.4
sg35
I441
sg36
F3.0
sg37
I-1
sa(dp45
g13
I7
sg14
F0.31666666666666665
sg15
F56.3
sg16
I-1
sg17
F3.9833333333333334
sg18
F14.9
sg19
F163.2
sg20
F95.0
sg21
I-1
sg22
I-1
sg23
I1430
sg24
F81.1
sg25
F1.0
sg26
I469
sg27
F4.0
sg28
I0
sg29
F3.65
sg30
I87
sg31
I470
sg32
I-1
sg33
I-1
sg34
F7.4
sg35
I469
sg36
F4.0
sg37
I-1
sasS'workouty'
p46
(dp47
S'velocities_arr_0'
p48
F0.64
sS'velocities_arr_1'
p49
F0.61
sS'velocities_arr_2'
p50
F0.57
sS'velocities_arr_3'
p51
F0.53
sS'velocities_arr_4'
p52
F0.53
sS'velocities_arr_5'
p53
I0
sS'velocities_arr_6'
p54
I0
sS'velocities_arr_7'
p55
I0
sS'reps_completed'
p56
I5
sS'velocities_arr_9'
p57
I0
sS'postset_heartrate'
p58
I144
sS'went_to_failure'
p59
I0
sS'velocities_arr_8'
p60
I0
sS'velocities_arr_10'
p61
I0
sS'velocities_arr_11'
p62
I0
sS'did_pull_muscle'
p63
I0
ssS'workoutxseries'
p64
(lp65
(dp66
g13
I8
sS'velocities_arr_0'
p67
I0
sS'velocities_arr_2'
p68
I0
sS'velocities_arr_3'
p69
I0
sS'velocities_arr_4'
p70
I0
sS'velocities_arr_5'
p71
I0
sS'velocities_arr_6'
p72
I0
sS'velocities_arr_1'
p73
I0
sS'velocities_arr_8'
p74
I0
sS'velocities_arr_9'
p75
I0
sg58
I-1
sS'weight_lbs'
p76
I-1
sS'velocities_arr_7'
p77
I0
sS'category_exercise_name_10'
p78
I0
sS'category_exercise_name_2'
p79
I0
sg56
I-1
sS'reps_planned'
p80
I-1
sS'category_exercise_name_0'
p81
I0
sS'category_exercise_name_1'
p82
I0
sS'velocities_arr_10'
p83
I0
sS'category_exercise_name_3'
p84
I0
sS'category_exercise_name_4'
p85
I0
sS'category_exercise_name_5'
p86
I0
sS'category_exercise_name_6'
p87
I0
sS'category_exercise_name_7'
p88
I0
sS'category_exercise_name_8'
p89
I0
sS'category_exercise_name_9'
p90
I0
sS'set_number_of_the_day'
p91
I3
sg59
I0
sS'used_lifting_gear'
p92
I0
sS'velocities_arr_11'
p93
I0
sg63
I0
sg36
I0
sag66
ag66
ag66
ag66
ag66
ag66
ag66
ag66
ag66
ag66
ag66
ag66
ag66
ag66
ag66
ag66
a(dp94
g13
I1
sS'velocities_arr_0'
p95
F1.11
sS'velocities_arr_2'
p96
F1.08
sS'velocities_arr_3'
p97
F1.12
sS'velocities_arr_4'
p98
F1.62
sS'velocities_arr_5'
p99
I0
sS'velocities_arr_6'
p100
I0
sS'velocities_arr_1'
p101
F1.07
sS'velocities_arr_8'
p102
I0
sS'velocities_arr_9'
p103
I0
sg58
I107
sg76
I45
sS'velocities_arr_7'
p104
I0
sS'category_exercise_name_10'
p105
I0
sS'velocities_arr_10'
p106
I0
sg56
I5
sg80
I5
sS'category_exercise_name_0'
p107
I0
sS'category_exercise_name_1'
p108
I0
sS'category_exercise_name_2'
p109
I1
sS'category_exercise_name_3'
p110
I0
sS'category_exercise_name_4'
p111
I0
sS'category_exercise_name_5'
p112
I0
sS'category_exercise_name_6'
p113
I0
sS'category_exercise_name_7'
p114
I0
sS'category_exercise_name_8'
p115
I0
sS'category_exercise_name_9'
p116
I0
sg91
I0
sg59
I0
sg92
I0
sS'velocities_arr_11'
p117
I0
sg63
I0
sg36
I0
sa(dp118
g13
I1
sS'velocities_arr_0'
p119
F0.77
sS'velocities_arr_2'
p120
F0.83
sS'velocities_arr_3'
p121
F0.79
sS'velocities_arr_4'
p122
F0.77
sS'velocities_arr_5'
p123
I0
sS'velocities_arr_6'
p124
I0
sS'velocities_arr_1'
p125
F0.82
sS'velocities_arr_8'
p126
I0
sS'velocities_arr_9'
p127
I0
sg58
I125
sg76
I135
sS'velocities_arr_7'
p128
I0
sS'category_exercise_name_10'
p129
I0
sS'velocities_arr_10'
p130
I0
sg56
I5
sg80
I5
sS'category_exercise_name_0'
p131
I0
sS'category_exercise_name_1'
p132
I0
sS'category_exercise_name_2'
p133
I1
sS'category_exercise_name_3'
p134
I0
sS'category_exercise_name_4'
p135
I0
sS'category_exercise_name_5'
p136
I0
sS'category_exercise_name_6'
p137
I0
sS'category_exercise_name_7'
p138
I0
sS'category_exercise_name_8'
p139
I0
sS'category_exercise_name_9'
p140
I0
sg91
I1
sg59
I0
sg92
I0
sS'velocities_arr_11'
p141
I0
sg63
I0
sg36
I0
sa(dp142
g13
I1
sS'velocities_arr_0'
p143
F0.68
sS'velocities_arr_2'
p144
F0.65
sS'velocities_arr_3'
p145
F0.63
sS'velocities_arr_4'
p146
F0.61
sS'velocities_arr_5'
p147
I0
sS'velocities_arr_6'
p148
I0
sS'velocities_arr_1'
p149
F0.69
sS'velocities_arr_8'
p150
I0
sS'velocities_arr_9'
p151
I0
sg58
I131
sg76
I185
sS'velocities_arr_7'
p152
I0
sS'category_exercise_name_10'
p153
I0
sS'velocities_arr_10'
p154
I0
sg56
I5
sg80
I5
sS'category_exercise_name_0'
p155
I0
sS'category_exercise_name_1'
p156
I0
sS'category_exercise_name_2'
p157
I1
sS'category_exercise_name_3'
p158
I0
sS'category_exercise_name_4'
p159
I0
sS'category_exercise_name_5'
p160
I0
sS'category_exercise_name_6'
p161
I0
sS'category_exercise_name_7'
p162
I0
sS'category_exercise_name_8'
p163
I0
sS'category_exercise_name_9'
p164
I0
sg91
I2
sg59
I0
sg92
I0
sS'velocities_arr_11'
p165
I0
sg63
I0
sg36
I0
sa(dp166
g13
I1
sS'velocities_arr_0'
p167
F0.64
sS'velocities_arr_2'
p168
F0.62
sS'velocities_arr_3'
p169
F0.57
sS'velocities_arr_4'
p170
F0.56
sS'velocities_arr_5'
p171
I0
sS'velocities_arr_6'
p172
I0
sS'velocities_arr_1'
p173
F0.63
sS'velocities_arr_8'
p174
I0
sS'velocities_arr_9'
p175
I0
sg58
I141
sg76
I205
sS'velocities_arr_7'
p176
I0
sS'category_exercise_name_10'
p177
I0
sS'velocities_arr_10'
p178
I0
sg56
I5
sg80
I5
sS'category_exercise_name_0'
p179
I0
sS'category_exercise_name_1'
p180
I0
sS'category_exercise_name_2'
p181
I1
sS'category_exercise_name_3'
p182
I0
sS'category_exercise_name_4'
p183
I0
sS'category_exercise_name_5'
p184
I0
sS'category_exercise_name_6'
p185
I0
sS'category_exercise_name_7'
p186
I0
sS'category_exercise_name_8'
p187
I0
sS'category_exercise_name_9'
p188
I0
sg91
I3
sg59
I0
sg92
I0
sS'velocities_arr_11'
p189
I0
sg63
I0
sg36
I0
sa(dp190
g13
I1
sS'velocities_arr_0'
p191
F0.62
sS'velocities_arr_2'
p192
F0.52
sS'velocities_arr_3'
p193
F0.51
sS'velocities_arr_4'
p194
F0.46
sS'velocities_arr_5'
p195
I0
sS'velocities_arr_6'
p196
I0
sS'velocities_arr_1'
p197
F0.57
sS'velocities_arr_8'
p198
I0
sS'velocities_arr_9'
p199
I0
sg58
I148
sg76
I225
sS'velocities_arr_7'
p200
I0
sS'category_exercise_name_10'
p201
I0
sS'velocities_arr_10'
p202
I0
sg56
I5
sg80
I5
sS'category_exercise_name_0'
p203
I0
sS'category_exercise_name_1'
p204
I0
sS'category_exercise_name_2'
p205
I1
sS'category_exercise_name_3'
p206
I0
sS'category_exercise_name_4'
p207
I0
sS'category_exercise_name_5'
p208
I0
sS'category_exercise_name_6'
p209
I0
sS'category_exercise_name_7'
p210
I0
sS'category_exercise_name_8'
p211
I0
sS'category_exercise_name_9'
p212
I0
sg91
I4
sg59
I0
sg92
I0
sS'velocities_arr_11'
p213
I0
sg63
I0
sg36
I0
sa(dp214
g13
I1
sS'velocities_arr_0'
p215
F0.71
sS'velocities_arr_2'
p216
F0.65
sS'velocities_arr_3'
p217
F0.65
sS'velocities_arr_4'
p218
F0.62
sS'velocities_arr_5'
p219
F0.61
sS'velocities_arr_6'
p220
F0.54
sS'velocities_arr_1'
p221
F0.57
sS'velocities_arr_8'
p222
F0.52
sS'velocities_arr_9'
p223
F0.49
sg58
I111
sg76
I105
sS'velocities_arr_7'
p224
F0.61
sS'category_exercise_name_10'
p225
I0
sS'velocities_arr_10'
p226
F0.47
sg56
I12
sg80
I12
sS'category_exercise_name_0'
p227
I0
sS'category_exercise_name_1'
p228
I0
sS'category_exercise_name_2'
p229
I0
sS'category_exercise_name_3'
p230
I1
sS'category_exercise_name_4'
p231
I0
sS'category_exercise_name_5'
p232
I0
sS'category_exercise_name_6'
p233
I0
sS'category_exercise_name_7'
p234
I0
sS'category_exercise_name_8'
p235
I0
sS'category_exercise_name_9'
p236
I0
sg91
I5
sg59
I0
sg92
I0
sS'velocities_arr_11'
p237
F0.47
sg63
I0
sg36
I0
sa(dp238
g13
I1
sS'velocities_arr_0'
p239
F0.56
sS'velocities_arr_2'
p240
F0.59
sS'velocities_arr_3'
p241
F0.61
sS'velocities_arr_4'
p242
F0.59
sS'velocities_arr_5'
p243
F0.57
sS'velocities_arr_6'
p244
F0.52
sS'velocities_arr_1'
p245
F0.62
sS'velocities_arr_8'
p246
I0
sS'velocities_arr_9'
p247
I0
sg58
I114
sg76
I115
sS'velocities_arr_7'
p248
F0.46
sS'category_exercise_name_10'
p249
I0
sS'velocities_arr_10'
p250
I0
sg56
I8
sg80
I8
sS'category_exercise_name_0'
p251
I0
sS'category_exercise_name_1'
p252
I0
sS'category_exercise_name_2'
p253
I0
sS'category_exercise_name_3'
p254
I1
sS'category_exercise_name_4'
p255
I0
sS'category_exercise_name_5'
p256
I0
sS'category_exercise_name_6'
p257
I0
sS'category_exercise_name_7'
p258
I0
sS'category_exercise_name_8'
p259
I0
sS'category_exercise_name_9'
p260
I0
sg91
I6
sg59
I0
sg92
I0
sS'velocities_arr_11'
p261
I0
sg63
I0
sg36
I0
sa(dp262
g13
I1
sS'velocities_arr_0'
p263
F0.49
sS'velocities_arr_2'
p264
F0.46
sS'velocities_arr_3'
p265
F0.43
sS'velocities_arr_4'
p266
F0.39
sS'velocities_arr_5'
p267
I0
sS'velocities_arr_6'
p268
I0
sS'velocities_arr_1'
p269
F0.51
sS'velocities_arr_8'
p270
I0
sS'velocities_arr_9'
p271
I0
sg58
I130
sg76
I125
sS'velocities_arr_7'
p272
I0
sS'category_exercise_name_10'
p273
I0
sS'velocities_arr_10'
p274
I0
sg56
I5
sg80
I5
sS'category_exercise_name_0'
p275
I0
sS'category_exercise_name_1'
p276
I0
sS'category_exercise_name_2'
p277
I0
sS'category_exercise_name_3'
p278
I1
sS'category_exercise_name_4'
p279
I0
sS'category_exercise_name_5'
p280
I0
sS'category_exercise_name_6'
p281
I0
sS'category_exercise_name_7'
p282
I0
sS'category_exercise_name_8'
p283
I0
sS'category_exercise_name_9'
p284
I0
sg91
I7
sg59
I0
sg92
I0
sS'velocities_arr_11'
p285
I0
sg63
I0
sg36
I0
sa(dp286
g13
I4
sS'velocities_arr_0'
p287
F0.49
sS'velocities_arr_2'
p288
F0.68
sS'velocities_arr_3'
p289
F0.61
sS'velocities_arr_4'
p290
F0.56
sS'velocities_arr_5'
p291
I0
sS'velocities_arr_6'
p292
I0
sS'velocities_arr_1'
p293
F0.82
sS'velocities_arr_8'
p294
I0
sS'velocities_arr_9'
p295
I0
sg58
I116
sg76
I185
sS'velocities_arr_7'
p296
I0
sS'category_exercise_name_10'
p297
I0
sS'velocities_arr_10'
p298
I0
sg56
I5
sg80
I5
sS'category_exercise_name_0'
p299
I1
sS'category_exercise_name_1'
p300
I0
sS'category_exercise_name_2'
p301
I0
sS'category_exercise_name_3'
p302
I0
sS'category_exercise_name_4'
p303
I0
sS'category_exercise_name_5'
p304
I0
sS'category_exercise_name_6'
p305
I0
sS'category_exercise_name_7'
p306
I0
sS'category_exercise_name_8'
p307
I0
sS'category_exercise_name_9'
p308
I0
sg91
I0
sg59
I0
sg92
I0
sS'velocities_arr_11'
p309
I0
sg63
I0
sg36
F0.0
sa(dp310
g13
I4
sS'velocities_arr_0'
p311
F0.59
sS'velocities_arr_2'
p312
F1.29
sS'velocities_arr_3'
p313
F1.29
sS'velocities_arr_4'
p314
F1.29
sS'velocities_arr_5'
p315
I0
sS'velocities_arr_6'
p316
I0
sS'velocities_arr_1'
p317
F0.55
sS'velocities_arr_8'
p318
I0
sS'velocities_arr_9'
p319
I0
sg58
I115
sg76
I225
sS'velocities_arr_7'
p320
I0
sS'category_exercise_name_10'
p321
I0
sS'velocities_arr_10'
p322
I0
sg56
I5
sg80
I5
sS'category_exercise_name_0'
p323
I1
sS'category_exercise_name_1'
p324
I0
sS'category_exercise_name_2'
p325
I0
sS'category_exercise_name_3'
p326
I0
sS'category_exercise_name_4'
p327
I0
sS'category_exercise_name_5'
p328
I0
sS'category_exercise_name_6'
p329
I0
sS'category_exercise_name_7'
p330
I0
sS'category_exercise_name_8'
p331
I0
sS'category_exercise_name_9'
p332
I0
sg91
I1
sg59
I0
sg92
I0
sS'velocities_arr_11'
p333
I0
sg63
I0
sg36
F0.0
sa(dp334
g13
I4
sS'velocities_arr_0'
p335
F0.53
sS'velocities_arr_2'
p336
F0.59
sS'velocities_arr_3'
p337
F0.54
sS'velocities_arr_4'
p338
F0.54
sS'velocities_arr_5'
p339
I0
sS'velocities_arr_6'
p340
I0
sS'velocities_arr_1'
p341
F0.56
sS'velocities_arr_8'
p342
I0
sS'velocities_arr_9'
p343
I0
sg58
I130
sg76
I245
sS'velocities_arr_7'
p344
I0
sS'category_exercise_name_10'
p345
I0
sS'velocities_arr_10'
p346
I0
sg56
I5
sg80
I5
sS'category_exercise_name_0'
p347
I1
sS'category_exercise_name_1'
p348
I0
sS'category_exercise_name_2'
p349
I0
sS'category_exercise_name_3'
p350
I0
sS'category_exercise_name_4'
p351
I0
sS'category_exercise_name_5'
p352
I0
sS'category_exercise_name_6'
p353
I0
sS'category_exercise_name_7'
p354
I0
sS'category_exercise_name_8'
p355
I0
sS'category_exercise_name_9'
p356
I0
sg91
I2
sg59
I0
sg92
I0
sS'velocities_arr_11'
p357
I0
sg63
I0
sg36
F0.0
sa(dp358
g13
I4
sS'velocities_arr_0'
p359
F0.5
sS'velocities_arr_2'
p360
I0
sS'velocities_arr_3'
p361
I0
sS'velocities_arr_4'
p362
I0
sS'velocities_arr_5'
p363
I0
sS'velocities_arr_6'
p364
I0
sS'velocities_arr_1'
p365
F0.5
sS'velocities_arr_8'
p366
I0
sS'velocities_arr_9'
p367
I0
sg58
I121
sg76
I265
sS'velocities_arr_7'
p368
I0
sS'category_exercise_name_10'
p369
I0
sS'velocities_arr_10'
p370
I0
sg56
I2
sg80
I2
sS'category_exercise_name_0'
p371
I1
sS'category_exercise_name_1'
p372
I0
sS'category_exercise_name_2'
p373
I0
sS'category_exercise_name_3'
p374
I0
sS'category_exercise_name_4'
p375
I0
sS'category_exercise_name_5'
p376
I0
sS'category_exercise_name_6'
p377
I0
sS'category_exercise_name_7'
p378
I0
sS'category_exercise_name_8'
p379
I0
sS'category_exercise_name_9'
p380
I0
sg91
I3
sg59
I0
sg92
I0
sS'velocities_arr_11'
p381
I0
sg63
I0
sg36
F0.0
sa(dp382
g13
I8
sS'velocities_arr_0'
p383
F1.07
sS'velocities_arr_2'
p384
F1.07
sS'velocities_arr_3'
p385
F1.13
sS'velocities_arr_4'
p386
F0.71
sS'velocities_arr_5'
p387
I0
sS'velocities_arr_6'
p388
I0
sS'velocities_arr_1'
p389
F1.2
sS'velocities_arr_8'
p390
I0
sS'velocities_arr_9'
p391
I0
sg58
I99
sg76
I45
sS'velocities_arr_7'
p392
I0
sS'category_exercise_name_10'
p393
I0
sS'velocities_arr_10'
p394
I0
sg56
I5
sg80
I5
sS'category_exercise_name_0'
p395
I0
sS'category_exercise_name_1'
p396
I0
sS'category_exercise_name_2'
p397
I1
sS'category_exercise_name_3'
p398
I0
sS'category_exercise_name_4'
p399
I0
sS'category_exercise_name_5'
p400
I0
sS'category_exercise_name_6'
p401
I0
sS'category_exercise_name_7'
p402
I0
sS'category_exercise_name_8'
p403
I0
sS'category_exercise_name_9'
p404
I0
sg91
I0
sg59
I0
sg92
I0
sS'velocities_arr_11'
p405
I0
sg63
I0
sg36
F4.0
sa(dp406
g13
I8
sS'velocities_arr_0'
p407
F0.8
sS'velocities_arr_2'
p408
F0.78
sS'velocities_arr_3'
p409
F0.77
sS'velocities_arr_4'
p410
F0.74
sS'velocities_arr_5'
p411
I0
sS'velocities_arr_6'
p412
I0
sS'velocities_arr_1'
p413
F0.89
sS'velocities_arr_8'
p414
I0
sS'velocities_arr_9'
p415
I0
sg58
I120
sg76
I135
sS'velocities_arr_7'
p416
I0
sS'category_exercise_name_10'
p417
I0
sS'velocities_arr_10'
p418
I0
sg56
I5
sg80
I5
sS'category_exercise_name_0'
p419
I0
sS'category_exercise_name_1'
p420
I0
sS'category_exercise_name_2'
p421
I1
sS'category_exercise_name_3'
p422
I0
sS'category_exercise_name_4'
p423
I0
sS'category_exercise_name_5'
p424
I0
sS'category_exercise_name_6'
p425
I0
sS'category_exercise_name_7'
p426
I0
sS'category_exercise_name_8'
p427
I0
sS'category_exercise_name_9'
p428
I0
sg91
I1
sg59
I0
sg92
I0
sS'velocities_arr_11'
p429
I0
sg63
I0
sg36
F4.0
sa(dp430
g13
I8
sS'velocities_arr_0'
p431
F0.67
sS'velocities_arr_2'
p432
F0.64
sS'velocities_arr_3'
p433
F0.62
sS'velocities_arr_4'
p434
F0.6
sS'velocities_arr_5'
p435
F0.57
sS'velocities_arr_6'
p436
I0
sS'velocities_arr_1'
p437
F0.66
sS'velocities_arr_8'
p438
I0
sS'velocities_arr_9'
p439
I0
sg58
I139
sg76
I185
sS'velocities_arr_7'
p440
I0
sS'category_exercise_name_10'
p441
I0
sS'velocities_arr_10'
p442
I0
sg56
I6
sg80
I6
sS'category_exercise_name_0'
p443
I0
sS'category_exercise_name_1'
p444
I0
sS'category_exercise_name_2'
p445
I1
sS'category_exercise_name_3'
p446
I0
sS'category_exercise_name_4'
p447
I0
sS'category_exercise_name_5'
p448
I0
sS'category_exercise_name_6'
p449
I0
sS'category_exercise_name_7'
p450
I0
sS'category_exercise_name_8'
p451
I0
sS'category_exercise_name_9'
p452
I0
sg91
I2
sg59
I0
sg92
I0
sS'velocities_arr_11'
p453
I0
sg63
I0
sg36
F4.0
sa(dp454
g13
I8
sg67
I0
sg68
I0
sg69
I0
sg70
I0
sg71
I0
sg72
I0
sg73
I0
sg74
I0
sg75
I0
sg58
I-1
sg76
I205
sg77
I0
sg78
I0
sg56
I-1
sg80
I5
sg81
I0
sg82
I0
sg83
I0
sg84
I0
sg85
I0
sg86
I0
sg87
I0
sg88
I0
sg89
I0
sg90
I0
sg91
I3
sg59
I-1
sg79
I1
sg92
I0
sg93
I0
sg63
I-1
sg36
F4.0
sas.