(dp0
S'userx'
p1
(dp2
S'wrist_width_inches'
p3
I7
sS'height_inches'
p4
F70.0
sS'harris_benedict_bmr'
p5
I-1
sS'genetically_gifted'
p6
I0
sS'years_old'
p7
I31
sS'ankle_width_inches'
p8
I9
sS'sex_is_male'
p9
I1
ssS'dayseriesx'
p10
(lp11
(dp12
S'day_number'
p13
I-1
sS'sleeptime_awake_hrs'
p14
I-1
sS'withings_body_water_percent'
p15
I-1
sS'heart_rate_variability_rmssd'
p16
I-1
sS'sleeptime_deep_rem_hrs'
p17
I-1
sS'withings_body_fat_percent'
p18
I-1
sS'withings_weight_lbs'
p19
I-1
sS'sleeptime_efficiency_percent'
p20
I-1
sS'post_day_calories_in'
p21
I-1
sS'post_day_fat_g'
p22
I-1
sS'sleeptime_bed_time_ampm_index'
p23
I-1
sS'withings_muscle_mass_percent'
p24
I-1
sS'days_since_last_recorded_day'
p25
I-1
sS'sleeptime_alarm_ring_ampm_index'
p26
I-1
sS'withings_bone_mass_percent'
p27
I-1
sS'sleeptime_snoozed'
p28
I-1
sS'sleeptime_light_sleep_hrs'
p29
I-1
sS'withings_heart_rate_bpm'
p30
I-1
sS'sleeptime_alarm_set_ampm_index'
p31
I-1
sS'post_day_protein_g'
p32
I-1
sS'post_day_wearable_calories_burned'
p33
I-1
sS'withings_pulse_wave_velocity_m_per_s'
p34
I-1
sS'sleeptime_rise_time_ampm_index'
p35
I-1
sS'days_since_last_workout'
p36
I-1
sS'post_day_carbs_g'
p37
I-1
sag12
ag12
a(dp38
g13
I0
sg14
F0.48333333333333334
sg15
F56.9
sg16
I-1
sg17
F3.55
sg18
F14.0
sg19
F163.7
sg20
F94.0
sg21
I-1
sg22
I-1
sg23
I93
sg24
F82.0
sg25
F0.0
sg26
I1440
sg27
F4.0
sg28
I0
sg29
F4.133333333333334
sg30
I94
sg31
I660
sg32
I-1
sg33
I-1
sg34
F7.4
sg35
I584
sg36
I0
sg37
I-1
sa(dp39
g13
I1
sg14
F0.5
sg15
F56.9
sg16
I-1
sg17
F1.7333333333333334
sg18
F14.9
sg19
F163.7
sg20
F92.0
sg21
I-1
sg22
I-1
sg23
I8
sg24
F82.0
sg25
F1.0
sg26
I424
sg27
F4.0
sg28
I2
sg29
F4.833333333333333
sg30
I97
sg31
I425
sg32
I-1
sg33
I-1
sg34
F7.4
sg35
I433
sg36
F1.0
sg37
I-1
sa(dp40
g13
I2
sg14
F1.6166666666666667
sg15
F55.6
sg16
I-1
sg17
F2.1
sg18
F16.2
sg19
F163.8
sg20
F79.0
sg21
I-1
sg22
I-1
sg23
I664
sg24
F79.8
sg25
F1.0
sg26
I406
sg27
F3.9
sg28
I1
sg29
F4.15
sg30
I92
sg31
I425
sg32
I-1
sg33
I-1
sg34
F7.4
sg35
I417
sg36
F2.0
sg37
I-1
sa(dp41
g13
I3
sg14
F1.8333333333333335
sg15
F55.6
sg16
I-1
sg17
F2.783333333333333
sg18
F14.8
sg19
I164
sg20
F75.0
sg21
I-1
sg22
I-1
sg23
I1423
sg24
F79.8
sg25
F1.0
sg26
I423
sg27
F3.9
sg28
I2
sg29
F2.9
sg30
I93
sg31
I425
sg32
I-1
sg33
I-1
sg34
F7.4
sg35
I436
sg36
F0.0
sg37
I-1
sa(dp42
g13
I4
sg14
F0.43333333333333335
sg15
F56.0
sg16
I-1
sg17
F2.7666666666666666
sg18
F15.5
sg19
F163.5
sg20
F94.0
sg21
I-1
sg22
I-1
sg23
I1386
sg24
F80.5
sg25
F1.0
sg26
I403
sg27
F3.9
sg28
I3
sg29
F4.866666666666667
sg30
I91
sg31
I425
sg32
I-1
sg33
I-1
sg34
F7.5
sg35
I432
sg36
F1.0
sg37
I-1
sa(dp43
g13
I5
sg14
F0.9166666666666666
sg15
F55.7
sg16
I-1
sg17
F3.1
sg18
F16.1
sg19
F163.6
sg20
F85.0
sg21
I-1
sg22
I-1
sg23
I157
sg24
F79.9
sg25
F1.0
sg26
I1440
sg27
F3.9
sg28
I0
sg29
F2.3833333333333333
sg30
I84
sg31
I600
sg32
I-1
sg33
I-1
sg34
F7.4
sg35
I543
sg36
F2.0
sg37
I-1
sa(dp44
g13
I6
sg14
F0.03333333333333333
sg15
I-1
sg16
I-1
sg17
F2.3833333333333333
sg18
I-1
sg19
I-1
sg20
F99.0
sg21
I-1
sg22
I-1
sg23
I230
sg24
I-1
sg25
F2.0
sg26
I1440
sg27
I-1
sg28
I0
sg29
F2.716666666666667
sg30
I-1
sg31
I660
sg32
I-1
sg33
I-1
sg34
I-1
sg35
I539
sg36
F4.0
sg37
I-1
sa(dp45
g13
I7
sg14
F2.05
sg15
F55.7
sg16
I-1
sg17
F4.966666666666667
sg18
F16.1
sg19
F163.6
sg20
F75.0
sg21
I-1
sg22
I-1
sg23
I1385
sg24
F79.9
sg25
F1.0
sg26
I410
sg27
F3.9
sg28
I5
sg29
F1.3
sg30
F84.0
sg31
I425
sg32
I-1
sg33
I-1
sg34
F7.4
sg35
I444
sg36
F0.0
sg37
I-1
sasS'workouty'
p46
(dp47
S'velocities_arr_0'
p48
F0.56
sS'velocities_arr_1'
p49
F0.53
sS'velocities_arr_2'
p50
F0.47
sS'velocities_arr_3'
p51
F0.48
sS'velocities_arr_4'
p52
F0.42
sS'velocities_arr_5'
p53
F0.66
sS'velocities_arr_6'
p54
I0
sS'velocities_arr_7'
p55
I0
sS'reps_completed'
p56
I2
sS'velocities_arr_9'
p57
I0
sS'postset_heartrate'
p58
I149
sS'went_to_failure'
p59
I0
sS'velocities_arr_8'
p60
I0
sS'velocities_arr_10'
p61
I0
sS'velocities_arr_11'
p62
I0
sS'did_pull_muscle'
p63
I0
ssS'workoutxseries'
p64
(lp65
(dp66
g13
I8
sS'velocities_arr_0'
p67
I0
sS'velocities_arr_2'
p68
I0
sS'velocities_arr_3'
p69
I0
sS'velocities_arr_4'
p70
I0
sS'velocities_arr_5'
p71
I0
sS'velocities_arr_6'
p72
I0
sS'velocities_arr_1'
p73
I0
sS'velocities_arr_8'
p74
I0
sS'velocities_arr_9'
p75
I0
sg58
I-1
sS'weight_lbs'
p76
I-1
sS'velocities_arr_7'
p77
I0
sS'category_exercise_name_12'
p78
I0
sS'category_exercise_name_13'
p79
I0
sS'category_exercise_name_10'
p80
I0
sS'category_exercise_name_11'
p81
I0
sS'category_exercise_name_2'
p82
I0
sg56
I-1
sS'reps_planned'
p83
I-1
sS'category_exercise_name_0'
p84
I0
sS'category_exercise_name_1'
p85
I0
sS'velocities_arr_10'
p86
I0
sS'category_exercise_name_3'
p87
I0
sS'category_exercise_name_4'
p88
I0
sS'category_exercise_name_5'
p89
I0
sS'category_exercise_name_6'
p90
I0
sS'category_exercise_name_7'
p91
I0
sS'category_exercise_name_8'
p92
I0
sS'category_exercise_name_9'
p93
I0
sS'set_number_of_the_day'
p94
I4
sg59
I0
sS'used_lifting_gear'
p95
I0
sS'velocities_arr_11'
p96
I0
sg63
I0
sg36
I0
sag66
ag66
ag66
ag66
ag66
ag66
ag66
ag66
ag66
ag66
ag66
ag66
ag66
a(dp97
g13
I1
sS'velocities_arr_0'
p98
F0.77
sS'velocities_arr_2'
p99
F1.49
sS'velocities_arr_3'
p100
F0.68
sS'velocities_arr_4'
p101
F0.77
sS'velocities_arr_5'
p102
I0
sS'velocities_arr_6'
p103
I0
sS'velocities_arr_1'
p104
F0.61
sS'velocities_arr_8'
p105
I0
sS'velocities_arr_9'
p106
I0
sg58
I115
sg76
I135
sS'velocities_arr_7'
p107
I0
sS'category_exercise_name_12'
p108
I0
sS'category_exercise_name_13'
p109
I0
sS'category_exercise_name_10'
p110
I0
sS'category_exercise_name_11'
p111
I0
sS'velocities_arr_10'
p112
I0
sg56
I5
sg83
I5
sS'category_exercise_name_0'
p113
I1
sS'category_exercise_name_1'
p114
I0
sS'category_exercise_name_2'
p115
I0
sS'category_exercise_name_3'
p116
I0
sS'category_exercise_name_4'
p117
I0
sS'category_exercise_name_5'
p118
I0
sS'category_exercise_name_6'
p119
I0
sS'category_exercise_name_7'
p120
I0
sS'category_exercise_name_8'
p121
I0
sS'category_exercise_name_9'
p122
I0
sg94
I0
sg59
I0
sg95
I0
sS'velocities_arr_11'
p123
I0
sg63
I0
sg36
I0
sa(dp124
g13
I1
sS'velocities_arr_0'
p125
F0.65
sS'velocities_arr_2'
p126
F1.46
sS'velocities_arr_3'
p127
F0.74
sS'velocities_arr_4'
p128
F0.73
sS'velocities_arr_5'
p129
F0.73
sS'velocities_arr_6'
p130
I0
sS'velocities_arr_1'
p131
F0.75
sS'velocities_arr_8'
p132
I0
sS'velocities_arr_9'
p133
I0
sg58
I137
sg76
I155
sS'velocities_arr_7'
p134
I0
sS'category_exercise_name_12'
p135
I0
sS'category_exercise_name_13'
p136
I0
sS'category_exercise_name_10'
p137
I0
sS'category_exercise_name_11'
p138
I0
sS'velocities_arr_10'
p139
I0
sg56
I6
sg83
I6
sS'category_exercise_name_0'
p140
I1
sS'category_exercise_name_1'
p141
I0
sS'category_exercise_name_2'
p142
I0
sS'category_exercise_name_3'
p143
I0
sS'category_exercise_name_4'
p144
I0
sS'category_exercise_name_5'
p145
I0
sS'category_exercise_name_6'
p146
I0
sS'category_exercise_name_7'
p147
I0
sS'category_exercise_name_8'
p148
I0
sS'category_exercise_name_9'
p149
I0
sg94
I1
sg59
I0
sg95
I0
sS'velocities_arr_11'
p150
I0
sg63
I0
sg36
I0
sa(dp151
g13
I1
sS'velocities_arr_0'
p152
F0.59
sS'velocities_arr_2'
p153
F0.67
sS'velocities_arr_3'
p154
F0.66
sS'velocities_arr_4'
p155
F0.67
sS'velocities_arr_5'
p156
F0.67
sS'velocities_arr_6'
p157
I0
sS'velocities_arr_1'
p158
F0.64
sS'velocities_arr_8'
p159
I0
sS'velocities_arr_9'
p160
I0
sg58
I132
sg76
I185
sS'velocities_arr_7'
p161
I0
sS'category_exercise_name_12'
p162
I0
sS'category_exercise_name_13'
p163
I0
sS'category_exercise_name_10'
p164
I0
sS'category_exercise_name_11'
p165
I0
sS'velocities_arr_10'
p166
I0
sg56
I6
sg83
I6
sS'category_exercise_name_0'
p167
I1
sS'category_exercise_name_1'
p168
I0
sS'category_exercise_name_2'
p169
I0
sS'category_exercise_name_3'
p170
I0
sS'category_exercise_name_4'
p171
I0
sS'category_exercise_name_5'
p172
I0
sS'category_exercise_name_6'
p173
I0
sS'category_exercise_name_7'
p174
I0
sS'category_exercise_name_8'
p175
I0
sS'category_exercise_name_9'
p176
I0
sg94
I2
sg59
I0
sg95
I0
sS'velocities_arr_11'
p177
I0
sg63
I0
sg36
I0
sa(dp178
g13
I1
sS'velocities_arr_0'
p179
F0.64
sS'velocities_arr_2'
p180
F0.63
sS'velocities_arr_3'
p181
F0.58
sS'velocities_arr_4'
p182
F0.6
sS'velocities_arr_5'
p183
F0.6
sS'velocities_arr_6'
p184
I0
sS'velocities_arr_1'
p185
F0.71
sS'velocities_arr_8'
p186
I0
sS'velocities_arr_9'
p187
I0
sg58
I150
sg76
I195
sS'velocities_arr_7'
p188
I0
sS'category_exercise_name_12'
p189
I0
sS'category_exercise_name_13'
p190
I0
sS'category_exercise_name_10'
p191
I0
sS'category_exercise_name_11'
p192
I0
sS'velocities_arr_10'
p193
I0
sg56
I6
sg83
I6
sS'category_exercise_name_0'
p194
I1
sS'category_exercise_name_1'
p195
I0
sS'category_exercise_name_2'
p196
I0
sS'category_exercise_name_3'
p197
I0
sS'category_exercise_name_4'
p198
I0
sS'category_exercise_name_5'
p199
I0
sS'category_exercise_name_6'
p200
I0
sS'category_exercise_name_7'
p201
I0
sS'category_exercise_name_8'
p202
I0
sS'category_exercise_name_9'
p203
I0
sg94
I3
sg59
I0
sg95
I0
sS'velocities_arr_11'
p204
I0
sg63
I0
sg36
I0
sa(dp205
g13
I1
sS'velocities_arr_0'
p206
F1.44
sS'velocities_arr_2'
p207
F0.79
sS'velocities_arr_3'
p208
F0.6
sS'velocities_arr_4'
p209
F0.56
sS'velocities_arr_5'
p210
F0.9
sS'velocities_arr_6'
p211
I0
sS'velocities_arr_1'
p212
F0.7
sS'velocities_arr_8'
p213
I0
sS'velocities_arr_9'
p214
I0
sg58
I141
sg76
I205
sS'velocities_arr_7'
p215
I0
sS'category_exercise_name_12'
p216
I0
sS'category_exercise_name_13'
p217
I0
sS'category_exercise_name_10'
p218
I0
sS'category_exercise_name_11'
p219
I0
sS'velocities_arr_10'
p220
I0
sg56
I6
sg83
I6
sS'category_exercise_name_0'
p221
I1
sS'category_exercise_name_1'
p222
I0
sS'category_exercise_name_2'
p223
I0
sS'category_exercise_name_3'
p224
I0
sS'category_exercise_name_4'
p225
I0
sS'category_exercise_name_5'
p226
I0
sS'category_exercise_name_6'
p227
I0
sS'category_exercise_name_7'
p228
I0
sS'category_exercise_name_8'
p229
I0
sS'category_exercise_name_9'
p230
I0
sg94
I4
sg59
I0
sg95
I0
sS'velocities_arr_11'
p231
I0
sg63
I0
sg36
I0
sa(dp232
g13
I1
sS'velocities_arr_0'
p233
F0.77
sS'velocities_arr_2'
p234
F1.02
sS'velocities_arr_3'
p235
F0.58
sS'velocities_arr_4'
p236
F0.6
sS'velocities_arr_5'
p237
I0
sS'velocities_arr_6'
p238
I0
sS'velocities_arr_1'
p239
F0.66
sS'velocities_arr_8'
p240
I0
sS'velocities_arr_9'
p241
I0
sg58
I145
sg76
I225
sS'velocities_arr_7'
p242
I0
sS'category_exercise_name_12'
p243
I0
sS'category_exercise_name_13'
p244
I0
sS'category_exercise_name_10'
p245
I0
sS'category_exercise_name_11'
p246
I0
sS'velocities_arr_10'
p247
I0
sg56
I5
sg83
I6
sS'category_exercise_name_0'
p248
I1
sS'category_exercise_name_1'
p249
I0
sS'category_exercise_name_2'
p250
I0
sS'category_exercise_name_3'
p251
I0
sS'category_exercise_name_4'
p252
I0
sS'category_exercise_name_5'
p253
I0
sS'category_exercise_name_6'
p254
I0
sS'category_exercise_name_7'
p255
I0
sS'category_exercise_name_8'
p256
I0
sS'category_exercise_name_9'
p257
I0
sg94
I5
sg59
I1
sg95
I0
sS'velocities_arr_11'
p258
I0
sg63
I0
sg36
I0
sa(dp259
g13
I4
sS'velocities_arr_0'
p260
F1.07
sS'velocities_arr_2'
p261
F1.16
sS'velocities_arr_3'
p262
F1.1
sS'velocities_arr_4'
p263
F1.11
sS'velocities_arr_5'
p264
F1.05
sS'velocities_arr_6'
p265
I0
sS'velocities_arr_1'
p266
F1.08
sS'velocities_arr_8'
p267
I0
sS'velocities_arr_9'
p268
I0
sg58
I117
sg76
I45
sS'velocities_arr_7'
p269
I0
sS'category_exercise_name_12'
p270
I0
sS'category_exercise_name_13'
p271
I0
sS'category_exercise_name_10'
p272
I0
sS'category_exercise_name_11'
p273
I0
sS'velocities_arr_10'
p274
I0
sg56
I6
sg83
I6
sS'category_exercise_name_0'
p275
I0
sS'category_exercise_name_1'
p276
I0
sS'category_exercise_name_2'
p277
I1
sS'category_exercise_name_3'
p278
I0
sS'category_exercise_name_4'
p279
I0
sS'category_exercise_name_5'
p280
I0
sS'category_exercise_name_6'
p281
I0
sS'category_exercise_name_7'
p282
I0
sS'category_exercise_name_8'
p283
I0
sS'category_exercise_name_9'
p284
I0
sg94
I0
sg59
I0
sg95
I0
sS'velocities_arr_11'
p285
I0
sg63
I0
sg36
F0.0
sa(dp286
g13
I4
sS'velocities_arr_0'
p287
F0.91
sS'velocities_arr_2'
p288
F0.85
sS'velocities_arr_3'
p289
F0.79
sS'velocities_arr_4'
p290
F0.82
sS'velocities_arr_5'
p291
F0.76
sS'velocities_arr_6'
p292
I0
sS'velocities_arr_1'
p293
F0.89
sS'velocities_arr_8'
p294
I0
sS'velocities_arr_9'
p295
I0
sg58
I138
sg76
I135
sS'velocities_arr_7'
p296
I0
sS'category_exercise_name_12'
p297
I0
sS'category_exercise_name_13'
p298
I0
sS'category_exercise_name_10'
p299
I0
sS'category_exercise_name_11'
p300
I0
sS'velocities_arr_10'
p301
I0
sg56
I6
sg83
I6
sS'category_exercise_name_0'
p302
I0
sS'category_exercise_name_1'
p303
I0
sS'category_exercise_name_2'
p304
I1
sS'category_exercise_name_3'
p305
I0
sS'category_exercise_name_4'
p306
I0
sS'category_exercise_name_5'
p307
I0
sS'category_exercise_name_6'
p308
I0
sS'category_exercise_name_7'
p309
I0
sS'category_exercise_name_8'
p310
I0
sS'category_exercise_name_9'
p311
I0
sg94
I1
sg59
I0
sg95
I0
sS'velocities_arr_11'
p312
I0
sg63
I0
sg36
F0.0
sa(dp313
g13
I4
sS'velocities_arr_0'
p314
F0.74
sS'velocities_arr_2'
p315
F0.65
sS'velocities_arr_3'
p316
F0.64
sS'velocities_arr_4'
p317
F0.59
sS'velocities_arr_5'
p318
F0.58
sS'velocities_arr_6'
p319
I0
sS'velocities_arr_1'
p320
F0.7
sS'velocities_arr_8'
p321
I0
sS'velocities_arr_9'
p322
I0
sg58
I145
sg76
I185
sS'velocities_arr_7'
p323
I0
sS'category_exercise_name_12'
p324
I0
sS'category_exercise_name_13'
p325
I0
sS'category_exercise_name_10'
p326
I0
sS'category_exercise_name_11'
p327
I0
sS'velocities_arr_10'
p328
I0
sg56
I6
sg83
I6
sS'category_exercise_name_0'
p329
I0
sS'category_exercise_name_1'
p330
I0
sS'category_exercise_name_2'
p331
I1
sS'category_exercise_name_3'
p332
I0
sS'category_exercise_name_4'
p333
I0
sS'category_exercise_name_5'
p334
I0
sS'category_exercise_name_6'
p335
I0
sS'category_exercise_name_7'
p336
I0
sS'category_exercise_name_8'
p337
I0
sS'category_exercise_name_9'
p338
I0
sg94
I2
sg59
I0
sg95
I0
sS'velocities_arr_11'
p339
I0
sg63
I0
sg36
F0.0
sa(dp340
g13
I4
sS'velocities_arr_0'
p341
F0.66
sS'velocities_arr_2'
p342
F0.6
sS'velocities_arr_3'
p343
F0.55
sS'velocities_arr_4'
p344
F0.51
sS'velocities_arr_5'
p345
F0.52
sS'velocities_arr_6'
p346
I0
sS'velocities_arr_1'
p347
F0.6
sS'velocities_arr_8'
p348
I0
sS'velocities_arr_9'
p349
I0
sg58
I153
sg76
I205
sS'velocities_arr_7'
p350
I0
sS'category_exercise_name_12'
p351
I0
sS'category_exercise_name_13'
p352
I0
sS'category_exercise_name_10'
p353
I0
sS'category_exercise_name_11'
p354
I0
sS'velocities_arr_10'
p355
I0
sg56
I6
sg83
I6
sS'category_exercise_name_0'
p356
I0
sS'category_exercise_name_1'
p357
I0
sS'category_exercise_name_2'
p358
I1
sS'category_exercise_name_3'
p359
I0
sS'category_exercise_name_4'
p360
I0
sS'category_exercise_name_5'
p361
I0
sS'category_exercise_name_6'
p362
I0
sS'category_exercise_name_7'
p363
I0
sS'category_exercise_name_8'
p364
I0
sS'category_exercise_name_9'
p365
I0
sg94
I3
sg59
I0
sg95
I0
sS'velocities_arr_11'
p366
I0
sg63
I0
sg36
F0.0
sa(dp367
g13
I4
sS'velocities_arr_0'
p368
F0.56
sS'velocities_arr_2'
p369
F0.51
sS'velocities_arr_3'
p370
F0.51
sS'velocities_arr_4'
p371
F0.46
sS'velocities_arr_5'
p372
F0.45
sS'velocities_arr_6'
p373
I0
sS'velocities_arr_1'
p374
F0.55
sS'velocities_arr_8'
p375
I0
sS'velocities_arr_9'
p376
I0
sg58
I157
sg76
I225
sS'velocities_arr_7'
p377
I0
sS'category_exercise_name_12'
p378
I0
sS'category_exercise_name_13'
p379
I0
sS'category_exercise_name_10'
p380
I0
sS'category_exercise_name_11'
p381
I0
sS'velocities_arr_10'
p382
I0
sg56
I6
sg83
I6
sS'category_exercise_name_0'
p383
I0
sS'category_exercise_name_1'
p384
I0
sS'category_exercise_name_2'
p385
I1
sS'category_exercise_name_3'
p386
I0
sS'category_exercise_name_4'
p387
I0
sS'category_exercise_name_5'
p388
I0
sS'category_exercise_name_6'
p389
I0
sS'category_exercise_name_7'
p390
I0
sS'category_exercise_name_8'
p391
I0
sS'category_exercise_name_9'
p392
I0
sg94
I4
sg59
I0
sg95
I0
sS'velocities_arr_11'
p393
I0
sg63
I0
sg36
F0.0
sa(dp394
g13
I4
sS'velocities_arr_0'
p395
F2.71
sS'velocities_arr_2'
p396
F1.89
sS'velocities_arr_3'
p397
F2.03
sS'velocities_arr_4'
p398
F1.41
sS'velocities_arr_5'
p399
F2.16
sS'velocities_arr_6'
p400
F2.25
sS'velocities_arr_1'
p401
F2.52
sS'velocities_arr_8'
p402
I0
sS'velocities_arr_9'
p403
I0
sg58
I117
sg76
I45
sS'velocities_arr_7'
p404
F1.86
sS'category_exercise_name_12'
p405
I0
sS'category_exercise_name_13'
p406
I0
sS'category_exercise_name_10'
p407
I0
sS'category_exercise_name_11'
p408
I0
sS'velocities_arr_10'
p409
I0
sg56
I8
sg83
I8
sS'category_exercise_name_0'
p410
I0
sS'category_exercise_name_1'
p411
I0
sS'category_exercise_name_2'
p412
I0
sS'category_exercise_name_3'
p413
I1
sS'category_exercise_name_4'
p414
I0
sS'category_exercise_name_5'
p415
I0
sS'category_exercise_name_6'
p416
I0
sS'category_exercise_name_7'
p417
I0
sS'category_exercise_name_8'
p418
I0
sS'category_exercise_name_9'
p419
I0
sg94
I5
sg59
I0
sg95
I0
sS'velocities_arr_11'
p420
I0
sg63
I0
sg36
F0.0
sa(dp421
g13
I4
sS'velocities_arr_0'
p422
I0
sS'velocities_arr_2'
p423
I0
sS'velocities_arr_3'
p424
I0
sS'velocities_arr_4'
p425
I0
sS'velocities_arr_5'
p426
I0
sS'velocities_arr_6'
p427
I0
sS'velocities_arr_1'
p428
I0
sS'velocities_arr_8'
p429
I0
sS'velocities_arr_9'
p430
I0
sg58
I122
sg76
I100
sS'velocities_arr_7'
p431
I0
sS'category_exercise_name_12'
p432
I0
sS'category_exercise_name_13'
p433
I0
sS'category_exercise_name_10'
p434
I0
sS'category_exercise_name_11'
p435
I0
sS'velocities_arr_10'
p436
I0
sg56
I8
sg83
I8
sS'category_exercise_name_0'
p437
I0
sS'category_exercise_name_1'
p438
I0
sS'category_exercise_name_2'
p439
I0
sS'category_exercise_name_3'
p440
I1
sS'category_exercise_name_4'
p441
I0
sS'category_exercise_name_5'
p442
I0
sS'category_exercise_name_6'
p443
I0
sS'category_exercise_name_7'
p444
I0
sS'category_exercise_name_8'
p445
I0
sS'category_exercise_name_9'
p446
I0
sg94
I6
sg59
I0
sg95
I0
sS'velocities_arr_11'
p447
I0
sg63
I0
sg36
F0.0
sa(dp448
g13
I4
sS'velocities_arr_0'
p449
F0.78
sS'velocities_arr_2'
p450
F0.44
sS'velocities_arr_3'
p451
F0.44
sS'velocities_arr_4'
p452
F0.44
sS'velocities_arr_5'
p453
F0.44
sS'velocities_arr_6'
p454
F0.44
sS'velocities_arr_1'
p455
F0.44
sS'velocities_arr_8'
p456
I0
sS'velocities_arr_9'
p457
I0
sg58
I119
sg76
I110
sS'velocities_arr_7'
p458
F0.44
sS'category_exercise_name_12'
p459
I0
sS'category_exercise_name_13'
p460
I0
sS'category_exercise_name_10'
p461
I0
sS'category_exercise_name_11'
p462
I0
sS'velocities_arr_10'
p463
I0
sg56
I8
sg83
I8
sS'category_exercise_name_0'
p464
I0
sS'category_exercise_name_1'
p465
I0
sS'category_exercise_name_2'
p466
I0
sS'category_exercise_name_3'
p467
I1
sS'category_exercise_name_4'
p468
I0
sS'category_exercise_name_5'
p469
I0
sS'category_exercise_name_6'
p470
I0
sS'category_exercise_name_7'
p471
I0
sS'category_exercise_name_8'
p472
I0
sS'category_exercise_name_9'
p473
I0
sg94
I7
sg59
I0
sg95
I0
sS'velocities_arr_11'
p474
I0
sg63
I0
sg36
F0.0
sa(dp475
g13
I4
sS'velocities_arr_0'
p476
F0.62
sS'velocities_arr_2'
p477
F0.62
sS'velocities_arr_3'
p478
F0.68
sS'velocities_arr_4'
p479
F0.64
sS'velocities_arr_5'
p480
F0.66
sS'velocities_arr_6'
p481
F0.46
sS'velocities_arr_1'
p482
F0.69
sS'velocities_arr_8'
p483
I0
sS'velocities_arr_9'
p484
I0
sg58
I122
sg76
I110
sS'velocities_arr_7'
p485
F0.46
sS'category_exercise_name_12'
p486
I0
sS'category_exercise_name_13'
p487
I0
sS'category_exercise_name_10'
p488
I0
sS'category_exercise_name_11'
p489
I0
sS'velocities_arr_10'
p490
I0
sg56
I8
sg83
I8
sS'category_exercise_name_0'
p491
I0
sS'category_exercise_name_1'
p492
I0
sS'category_exercise_name_2'
p493
I0
sS'category_exercise_name_3'
p494
I1
sS'category_exercise_name_4'
p495
I0
sS'category_exercise_name_5'
p496
I0
sS'category_exercise_name_6'
p497
I0
sS'category_exercise_name_7'
p498
I0
sS'category_exercise_name_8'
p499
I0
sS'category_exercise_name_9'
p500
I0
sg94
I8
sg59
I0
sg95
I0
sS'velocities_arr_11'
p501
I0
sg63
I0
sg36
F0.0
sa(dp502
g13
I4
sS'velocities_arr_0'
p503
F0.67
sS'velocities_arr_2'
p504
F0.69
sS'velocities_arr_3'
p505
F0.65
sS'velocities_arr_4'
p506
F0.67
sS'velocities_arr_5'
p507
F0.57
sS'velocities_arr_6'
p508
F0.56
sS'velocities_arr_1'
p509
F0.69
sS'velocities_arr_8'
p510
I0
sS'velocities_arr_9'
p511
I0
sg58
I128
sg76
I110
sS'velocities_arr_7'
p512
F0.56
sS'category_exercise_name_12'
p513
I0
sS'category_exercise_name_13'
p514
I0
sS'category_exercise_name_10'
p515
I0
sS'category_exercise_name_11'
p516
I0
sS'velocities_arr_10'
p517
I0
sg56
I8
sg83
I8
sS'category_exercise_name_0'
p518
I0
sS'category_exercise_name_1'
p519
I0
sS'category_exercise_name_2'
p520
I0
sS'category_exercise_name_3'
p521
I1
sS'category_exercise_name_4'
p522
I0
sS'category_exercise_name_5'
p523
I0
sS'category_exercise_name_6'
p524
I0
sS'category_exercise_name_7'
p525
I0
sS'category_exercise_name_8'
p526
I0
sS'category_exercise_name_9'
p527
I0
sg94
I9
sg59
I0
sg95
I0
sS'velocities_arr_11'
p528
I0
sg63
I0
sg36
F0.0
sa(dp529
g13
I4
sS'velocities_arr_0'
p530
I0
sS'velocities_arr_2'
p531
I0
sS'velocities_arr_3'
p532
I0
sS'velocities_arr_4'
p533
I0
sS'velocities_arr_5'
p534
I0
sS'velocities_arr_6'
p535
I0
sS'velocities_arr_1'
p536
I0
sS'velocities_arr_8'
p537
I0
sS'velocities_arr_9'
p538
I0
sg58
I115
sg76
I10
sS'velocities_arr_7'
p539
I0
sS'category_exercise_name_12'
p540
I0
sS'category_exercise_name_13'
p541
I1
sS'category_exercise_name_10'
p542
I0
sS'category_exercise_name_11'
p543
I0
sS'velocities_arr_10'
p544
I0
sg56
I12
sg83
I12
sS'category_exercise_name_0'
p545
I0
sS'category_exercise_name_1'
p546
I0
sS'category_exercise_name_2'
p547
I0
sS'category_exercise_name_3'
p548
I0
sS'category_exercise_name_4'
p549
I0
sS'category_exercise_name_5'
p550
I0
sS'category_exercise_name_6'
p551
I0
sS'category_exercise_name_7'
p552
I0
sS'category_exercise_name_8'
p553
I0
sS'category_exercise_name_9'
p554
I0
sg94
I10
sg59
I0
sg95
I0
sS'velocities_arr_11'
p555
I0
sg63
I0
sg36
F0.0
sa(dp556
g13
I4
sS'velocities_arr_0'
p557
I0
sS'velocities_arr_2'
p558
I0
sS'velocities_arr_3'
p559
I0
sS'velocities_arr_4'
p560
I0
sS'velocities_arr_5'
p561
I0
sS'velocities_arr_6'
p562
I0
sS'velocities_arr_1'
p563
I0
sS'velocities_arr_8'
p564
I0
sS'velocities_arr_9'
p565
I0
sg58
I121
sg76
I15
sS'velocities_arr_7'
p566
I0
sS'category_exercise_name_12'
p567
I0
sS'category_exercise_name_13'
p568
I1
sS'category_exercise_name_10'
p569
I0
sS'category_exercise_name_11'
p570
I0
sS'velocities_arr_10'
p571
I0
sg56
I8
sg83
I8
sS'category_exercise_name_0'
p572
I0
sS'category_exercise_name_1'
p573
I0
sS'category_exercise_name_2'
p574
I0
sS'category_exercise_name_3'
p575
I0
sS'category_exercise_name_4'
p576
I0
sS'category_exercise_name_5'
p577
I0
sS'category_exercise_name_6'
p578
I0
sS'category_exercise_name_7'
p579
I0
sS'category_exercise_name_8'
p580
I0
sS'category_exercise_name_9'
p581
I0
sg94
I11
sg59
I0
sg95
I0
sS'velocities_arr_11'
p582
I0
sg63
I0
sg36
F0.0
sa(dp583
g13
I4
sS'velocities_arr_0'
p584
I0
sS'velocities_arr_2'
p585
I0
sS'velocities_arr_3'
p586
I0
sS'velocities_arr_4'
p587
I0
sS'velocities_arr_5'
p588
I0
sS'velocities_arr_6'
p589
I0
sS'velocities_arr_1'
p590
I0
sS'velocities_arr_8'
p591
I0
sS'velocities_arr_9'
p592
I0
sg58
I121
sg76
I20
sS'velocities_arr_7'
p593
I0
sS'category_exercise_name_12'
p594
I0
sS'category_exercise_name_13'
p595
I1
sS'category_exercise_name_10'
p596
I0
sS'category_exercise_name_11'
p597
I0
sS'velocities_arr_10'
p598
I0
sg56
I5
sg83
I5
sS'category_exercise_name_0'
p599
I0
sS'category_exercise_name_1'
p600
I0
sS'category_exercise_name_2'
p601
I0
sS'category_exercise_name_3'
p602
I0
sS'category_exercise_name_4'
p603
I0
sS'category_exercise_name_5'
p604
I0
sS'category_exercise_name_6'
p605
I0
sS'category_exercise_name_7'
p606
I0
sS'category_exercise_name_8'
p607
I0
sS'category_exercise_name_9'
p608
I0
sg94
I12
sg59
I0
sg95
I0
sS'velocities_arr_11'
p609
I0
sg63
I0
sg36
F0.0
sa(dp610
g13
I4
sS'velocities_arr_0'
p611
I0
sS'velocities_arr_2'
p612
I0
sS'velocities_arr_3'
p613
I0
sS'velocities_arr_4'
p614
I0
sS'velocities_arr_5'
p615
I0
sS'velocities_arr_6'
p616
I0
sS'velocities_arr_1'
p617
I0
sS'velocities_arr_8'
p618
I0
sS'velocities_arr_9'
p619
I0
sg58
I117
sg76
I15
sS'velocities_arr_7'
p620
I0
sS'category_exercise_name_12'
p621
I0
sS'category_exercise_name_13'
p622
I1
sS'category_exercise_name_10'
p623
I0
sS'category_exercise_name_11'
p624
I0
sS'velocities_arr_10'
p625
I0
sg56
I3
sg83
I3
sS'category_exercise_name_0'
p626
I0
sS'category_exercise_name_1'
p627
I0
sS'category_exercise_name_2'
p628
I0
sS'category_exercise_name_3'
p629
I0
sS'category_exercise_name_4'
p630
I0
sS'category_exercise_name_5'
p631
I0
sS'category_exercise_name_6'
p632
I0
sS'category_exercise_name_7'
p633
I0
sS'category_exercise_name_8'
p634
I0
sS'category_exercise_name_9'
p635
I0
sg94
I13
sg59
I0
sg95
I0
sS'velocities_arr_11'
p636
I0
sg63
I0
sg36
F0.0
sa(dp637
g13
I4
sS'velocities_arr_0'
p638
I0
sS'velocities_arr_2'
p639
I0
sS'velocities_arr_3'
p640
I0
sS'velocities_arr_4'
p641
I0
sS'velocities_arr_5'
p642
I0
sS'velocities_arr_6'
p643
I0
sS'velocities_arr_1'
p644
I0
sS'velocities_arr_8'
p645
I0
sS'velocities_arr_9'
p646
I0
sg58
I122
sg76
I10
sS'velocities_arr_7'
p647
I0
sS'category_exercise_name_12'
p648
I0
sS'category_exercise_name_13'
p649
I1
sS'category_exercise_name_10'
p650
I0
sS'category_exercise_name_11'
p651
I0
sS'velocities_arr_10'
p652
I0
sg56
I8
sg83
I8
sS'category_exercise_name_0'
p653
I0
sS'category_exercise_name_1'
p654
I0
sS'category_exercise_name_2'
p655
I0
sS'category_exercise_name_3'
p656
I0
sS'category_exercise_name_4'
p657
I0
sS'category_exercise_name_5'
p658
I0
sS'category_exercise_name_6'
p659
I0
sS'category_exercise_name_7'
p660
I0
sS'category_exercise_name_8'
p661
I0
sS'category_exercise_name_9'
p662
I0
sg94
I14
sg59
I0
sg95
I0
sS'velocities_arr_11'
p663
I0
sg63
I0
sg36
F0.0
sa(dp664
g13
I8
sS'velocities_arr_0'
p665
F0.71
sS'velocities_arr_2'
p666
F1.07
sS'velocities_arr_3'
p667
F1.12
sS'velocities_arr_4'
p668
F1.03
sS'velocities_arr_5'
p669
F1.03
sS'velocities_arr_6'
p670
I0
sS'velocities_arr_1'
p671
F1.04
sS'velocities_arr_8'
p672
I0
sS'velocities_arr_9'
p673
I0
sg58
I124
sg76
I45
sS'velocities_arr_7'
p674
I0
sS'category_exercise_name_12'
p675
I0
sS'category_exercise_name_13'
p676
I0
sS'category_exercise_name_10'
p677
I0
sS'category_exercise_name_11'
p678
I0
sS'velocities_arr_10'
p679
I0
sg56
I6
sg83
I6
sS'category_exercise_name_0'
p680
I0
sS'category_exercise_name_1'
p681
I0
sS'category_exercise_name_2'
p682
I1
sS'category_exercise_name_3'
p683
I0
sS'category_exercise_name_4'
p684
I0
sS'category_exercise_name_5'
p685
I0
sS'category_exercise_name_6'
p686
I0
sS'category_exercise_name_7'
p687
I0
sS'category_exercise_name_8'
p688
I0
sS'category_exercise_name_9'
p689
I0
sg94
I0
sg59
I0
sg95
I0
sS'velocities_arr_11'
p690
I0
sg63
I0
sg36
F0.0
sa(dp691
g13
I8
sS'velocities_arr_0'
p692
F0.79
sS'velocities_arr_2'
p693
F0.82
sS'velocities_arr_3'
p694
F0.74
sS'velocities_arr_4'
p695
F0.74
sS'velocities_arr_5'
p696
F0.64
sS'velocities_arr_6'
p697
I0
sS'velocities_arr_1'
p698
F0.43
sS'velocities_arr_8'
p699
I0
sS'velocities_arr_9'
p700
I0
sg58
I142
sg76
I135
sS'velocities_arr_7'
p701
I0
sS'category_exercise_name_12'
p702
I0
sS'category_exercise_name_13'
p703
I0
sS'category_exercise_name_10'
p704
I0
sS'category_exercise_name_11'
p705
I0
sS'velocities_arr_10'
p706
I0
sg56
I6
sg83
I6
sS'category_exercise_name_0'
p707
I0
sS'category_exercise_name_1'
p708
I0
sS'category_exercise_name_2'
p709
I1
sS'category_exercise_name_3'
p710
I0
sS'category_exercise_name_4'
p711
I0
sS'category_exercise_name_5'
p712
I0
sS'category_exercise_name_6'
p713
I0
sS'category_exercise_name_7'
p714
I0
sS'category_exercise_name_8'
p715
I0
sS'category_exercise_name_9'
p716
I0
sg94
I1
sg59
I0
sg95
I0
sS'velocities_arr_11'
p717
I0
sg63
I0
sg36
F0.0
sa(dp718
g13
I8
sS'velocities_arr_0'
p719
F0.65
sS'velocities_arr_2'
p720
F0.57
sS'velocities_arr_3'
p721
F0.56
sS'velocities_arr_4'
p722
F0.55
sS'velocities_arr_5'
p723
F0.52
sS'velocities_arr_6'
p724
I0
sS'velocities_arr_1'
p725
F0.6
sS'velocities_arr_8'
p726
I0
sS'velocities_arr_9'
p727
I0
sg58
I154
sg76
I205
sS'velocities_arr_7'
p728
I0
sS'category_exercise_name_12'
p729
I0
sS'category_exercise_name_13'
p730
I0
sS'category_exercise_name_10'
p731
I0
sS'category_exercise_name_11'
p732
I0
sS'velocities_arr_10'
p733
I0
sg56
I6
sg83
I6
sS'category_exercise_name_0'
p734
I0
sS'category_exercise_name_1'
p735
I0
sS'category_exercise_name_2'
p736
I1
sS'category_exercise_name_3'
p737
I0
sS'category_exercise_name_4'
p738
I0
sS'category_exercise_name_5'
p739
I0
sS'category_exercise_name_6'
p740
I0
sS'category_exercise_name_7'
p741
I0
sS'category_exercise_name_8'
p742
I0
sS'category_exercise_name_9'
p743
I0
sg94
I2
sg59
I0
sg95
I0
sS'velocities_arr_11'
p744
I0
sg63
I0
sg36
F0.0
sa(dp745
g13
I8
sS'velocities_arr_0'
p746
F0.56
sS'velocities_arr_2'
p747
F0.41
sS'velocities_arr_3'
p748
F0.48
sS'velocities_arr_4'
p749
F0.42
sS'velocities_arr_5'
p750
F0.66
sS'velocities_arr_6'
p751
I0
sS'velocities_arr_1'
p752
F0.53
sS'velocities_arr_8'
p753
I0
sS'velocities_arr_9'
p754
I0
sg58
I161
sg76
I230
sS'velocities_arr_7'
p755
I0
sS'category_exercise_name_12'
p756
I0
sS'category_exercise_name_13'
p757
I0
sS'category_exercise_name_10'
p758
I0
sS'category_exercise_name_11'
p759
I0
sS'velocities_arr_10'
p760
I0
sg56
I6
sg83
I6
sS'category_exercise_name_0'
p761
I0
sS'category_exercise_name_1'
p762
I0
sS'category_exercise_name_2'
p763
I1
sS'category_exercise_name_3'
p764
I0
sS'category_exercise_name_4'
p765
I0
sS'category_exercise_name_5'
p766
I0
sS'category_exercise_name_6'
p767
I0
sS'category_exercise_name_7'
p768
I0
sS'category_exercise_name_8'
p769
I0
sS'category_exercise_name_9'
p770
I0
sg94
I3
sg59
I0
sg95
I0
sS'velocities_arr_11'
p771
I0
sg63
I0
sg36
F0.0
sa(dp772
g13
I8
sg67
I0
sg68
I0
sg69
I0
sg70
I0
sg71
I0
sg72
I0
sg73
I0
sg74
I0
sg75
I0
sg58
I-1
sg76
I245
sg77
I0
sg78
I0
sg79
I0
sg80
I0
sg81
I0
sg56
I-1
sg83
I2
sg84
I0
sg85
I0
sg86
I0
sg87
I0
sg88
I0
sg89
I0
sg90
I0
sg91
I0
sg92
I0
sg93
I0
sg94
I4
sg59
I-1
sg82
I1
sg95
I0
sg96
I0
sg63
I-1
sg36
F0.0
sas.