(dp0
S'userx'
p1
(dp2
S'wrist_width_inches'
p3
I7
sS'height_inches'
p4
F70.0
sS'harris_benedict_bmr'
p5
I-1
sS'genetically_gifted'
p6
I0
sS'years_old'
p7
I31
sS'ankle_width_inches'
p8
I9
sS'sex_is_male'
p9
I1
ssS'dayseriesx'
p10
(lp11
(dp12
S'day_number'
p13
I-1
sS'sleeptime_awake_hrs'
p14
I-1
sS'withings_body_water_percent'
p15
I-1
sS'heart_rate_variability_rmssd'
p16
I-1
sS'sleeptime_deep_rem_hrs'
p17
I-1
sS'withings_body_fat_percent'
p18
I-1
sS'withings_weight_lbs'
p19
I-1
sS'sleeptime_efficiency_percent'
p20
I-1
sS'post_day_calories_in'
p21
I-1
sS'post_day_fat_g'
p22
I-1
sS'sleeptime_bed_time_ampm_index'
p23
I-1
sS'withings_muscle_mass_percent'
p24
I-1
sS'days_since_last_recorded_day'
p25
I-1
sS'sleeptime_alarm_ring_ampm_index'
p26
I-1
sS'withings_bone_mass_percent'
p27
I-1
sS'sleeptime_snoozed'
p28
I-1
sS'sleeptime_light_sleep_hrs'
p29
I-1
sS'withings_heart_rate_bpm'
p30
I-1
sS'sleeptime_alarm_set_ampm_index'
p31
I-1
sS'post_day_protein_g'
p32
I-1
sS'post_day_wearable_calories_burned'
p33
I-1
sS'withings_pulse_wave_velocity_m_per_s'
p34
I-1
sS'sleeptime_rise_time_ampm_index'
p35
I-1
sS'days_since_last_workout'
p36
I-1
sS'post_day_carbs_g'
p37
I-1
sag12
ag12
ag12
ag12
ag12
ag12
ag12
ag12
ag12
a(dp38
g13
I0
sg14
F0.7333333333333333
sg15
F56.0
sg16
I-1
sg17
F4.733333333333333
sg18
F15.5
sg19
F163.1
sg20
F91.0
sg21
I-1
sg22
I-1
sg23
I1339
sg24
F80.5
sg25
F0.0
sg26
I425
sg27
F3.9
sg28
I4
sg29
F3.55
sg30
F72.0
sg31
I428
sg32
I-1
sg33
I-1
sg34
F7.4
sg35
I440
sg36
I0
sg37
I-1
sa(dp39
g13
I1
sg14
F0.35
sg15
F56.0
sg16
I-1
sg17
F4.233333333333333
sg18
F15.4
sg19
F162.4
sg20
F95.0
sg21
I-1
sg22
I-1
sg23
I1355
sg24
F80.6
sg25
F1.0
sg26
I412
sg27
F3.9
sg28
I4
sg29
F4.15
sg30
F88.0
sg31
I428
sg32
I-1
sg33
I-1
sg34
F7.5
sg35
I440
sg36
F0.0
sg37
I-1
sa(dp40
g13
I2
sg14
F0.2
sg15
F56.2
sg16
I-1
sg17
F3.05
sg18
F15.1
sg19
F161.7
sg20
F97.0
sg21
I-1
sg22
I-1
sg23
I1371
sg24
F80.9
sg25
F1.0
sg26
I424
sg27
F3.9
sg28
I3
sg29
F5.2
sg30
F76.0
sg31
I428
sg32
I-1
sg33
I-1
sg34
F7.6
sg35
I440
sg36
F0.0
sg37
I-1
sasS'workouty'
p41
(dp42
S'velocities_arr_0'
p43
F0.85
sS'velocities_arr_1'
p44
F0.88
sS'velocities_arr_2'
p45
F1.15
sS'velocities_arr_3'
p46
F1.32
sS'velocities_arr_4'
p47
F0.66
sS'velocities_arr_5'
p48
F1.98
sS'velocities_arr_6'
p49
I0
sS'velocities_arr_7'
p50
I0
sS'reps_completed'
p51
I6
sS'velocities_arr_9'
p52
I0
sS'postset_heartrate'
p53
I126
sS'went_to_failure'
p54
I0
sS'velocities_arr_8'
p55
I0
sS'velocities_arr_10'
p56
I0
sS'velocities_arr_11'
p57
I0
sS'did_pull_muscle'
p58
I0
ssS'workoutxseries'
p59
(lp60
(dp61
g13
I3
sS'velocities_arr_0'
p62
I0
sS'velocities_arr_2'
p63
I0
sS'velocities_arr_3'
p64
I0
sS'velocities_arr_4'
p65
I0
sS'velocities_arr_5'
p66
I0
sS'velocities_arr_6'
p67
I0
sS'velocities_arr_1'
p68
I0
sS'velocities_arr_8'
p69
I0
sS'velocities_arr_9'
p70
I0
sg53
I-1
sS'weight_lbs'
p71
I-1
sS'velocities_arr_7'
p72
I0
sS'category_exercise_name_12'
p73
I0
sS'category_exercise_name_13'
p74
I0
sS'category_exercise_name_10'
p75
I0
sS'category_exercise_name_11'
p76
I0
sS'category_exercise_name_2'
p77
I0
sg51
I-1
sS'reps_planned'
p78
I-1
sS'category_exercise_name_0'
p79
I0
sS'category_exercise_name_1'
p80
I0
sS'velocities_arr_10'
p81
I0
sS'category_exercise_name_3'
p82
I0
sS'category_exercise_name_4'
p83
I0
sS'category_exercise_name_5'
p84
I0
sS'category_exercise_name_6'
p85
I0
sS'category_exercise_name_7'
p86
I0
sS'category_exercise_name_8'
p87
I0
sS'category_exercise_name_9'
p88
I0
sS'set_number_of_the_day'
p89
I1
sg54
I0
sS'used_lifting_gear'
p90
I0
sS'velocities_arr_11'
p91
I0
sg58
I0
sg36
I0
sag61
ag61
ag61
ag61
ag61
ag61
ag61
ag61
ag61
ag61
ag61
ag61
ag61
ag61
ag61
ag61
ag61
ag61
ag61
ag61
ag61
ag61
ag61
ag61
a(dp92
g13
I1
sS'velocities_arr_0'
p93
F1.23
sS'velocities_arr_2'
p94
F1.16
sS'velocities_arr_3'
p95
F1.13
sS'velocities_arr_4'
p96
F1.18
sS'velocities_arr_5'
p97
F1.18
sS'velocities_arr_6'
p98
F1.18
sS'velocities_arr_1'
p99
F1.3
sS'velocities_arr_8'
p100
I0
sS'velocities_arr_9'
p101
I0
sg53
I107
sg71
I45
sS'velocities_arr_7'
p102
F1.18
sS'category_exercise_name_12'
p103
I0
sS'category_exercise_name_13'
p104
I0
sS'category_exercise_name_10'
p105
I0
sS'category_exercise_name_11'
p106
I0
sS'velocities_arr_10'
p107
I0
sg51
I8
sg78
I8
sS'category_exercise_name_0'
p108
I0
sS'category_exercise_name_1'
p109
I0
sS'category_exercise_name_2'
p110
I1
sS'category_exercise_name_3'
p111
I0
sS'category_exercise_name_4'
p112
I0
sS'category_exercise_name_5'
p113
I0
sS'category_exercise_name_6'
p114
I0
sS'category_exercise_name_7'
p115
I0
sS'category_exercise_name_8'
p116
I0
sS'category_exercise_name_9'
p117
I0
sg89
I0
sg54
I0
sg90
I0
sS'velocities_arr_11'
p118
I0
sg58
I0
sg36
I0
sa(dp119
g13
I1
sS'velocities_arr_0'
p120
F0.84
sS'velocities_arr_2'
p121
F0.82
sS'velocities_arr_3'
p122
F0.8
sS'velocities_arr_4'
p123
F0.8
sS'velocities_arr_5'
p124
F0.77
sS'velocities_arr_6'
p125
F0.74
sS'velocities_arr_1'
p126
F0.91
sS'velocities_arr_8'
p127
I0
sS'velocities_arr_9'
p128
I0
sg53
I109
sg71
I135
sS'velocities_arr_7'
p129
F0.72
sS'category_exercise_name_12'
p130
I0
sS'category_exercise_name_13'
p131
I0
sS'category_exercise_name_10'
p132
I0
sS'category_exercise_name_11'
p133
I0
sS'velocities_arr_10'
p134
I0
sg51
I8
sg78
I8
sS'category_exercise_name_0'
p135
I0
sS'category_exercise_name_1'
p136
I0
sS'category_exercise_name_2'
p137
I1
sS'category_exercise_name_3'
p138
I0
sS'category_exercise_name_4'
p139
I0
sS'category_exercise_name_5'
p140
I0
sS'category_exercise_name_6'
p141
I0
sS'category_exercise_name_7'
p142
I0
sS'category_exercise_name_8'
p143
I0
sS'category_exercise_name_9'
p144
I0
sg89
I1
sg54
I0
sg90
I0
sS'velocities_arr_11'
p145
I0
sg58
I0
sg36
I0
sa(dp146
g13
I1
sS'velocities_arr_0'
p147
F0.77
sS'velocities_arr_2'
p148
F0.69
sS'velocities_arr_3'
p149
F0.74
sS'velocities_arr_4'
p150
F0.68
sS'velocities_arr_5'
p151
F0.68
sS'velocities_arr_6'
p152
F0.65
sS'velocities_arr_1'
p153
F0.76
sS'velocities_arr_8'
p154
I0
sS'velocities_arr_9'
p155
I0
sg53
I142
sg71
I155
sS'velocities_arr_7'
p156
F0.59
sS'category_exercise_name_12'
p157
I0
sS'category_exercise_name_13'
p158
I0
sS'category_exercise_name_10'
p159
I0
sS'category_exercise_name_11'
p160
I0
sS'velocities_arr_10'
p161
I0
sg51
I8
sg78
I8
sS'category_exercise_name_0'
p162
I0
sS'category_exercise_name_1'
p163
I0
sS'category_exercise_name_2'
p164
I1
sS'category_exercise_name_3'
p165
I0
sS'category_exercise_name_4'
p166
I0
sS'category_exercise_name_5'
p167
I0
sS'category_exercise_name_6'
p168
I0
sS'category_exercise_name_7'
p169
I0
sS'category_exercise_name_8'
p170
I0
sS'category_exercise_name_9'
p171
I0
sg89
I2
sg54
I0
sg90
I0
sS'velocities_arr_11'
p172
I0
sg58
I0
sg36
I0
sa(dp173
g13
I1
sS'velocities_arr_0'
p174
F0.64
sS'velocities_arr_2'
p175
F0.63
sS'velocities_arr_3'
p176
F0.57
sS'velocities_arr_4'
p177
F0.59
sS'velocities_arr_5'
p178
F0.53
sS'velocities_arr_6'
p179
F0.52
sS'velocities_arr_1'
p180
F0.62
sS'velocities_arr_8'
p181
I0
sS'velocities_arr_9'
p182
I0
sg53
I153
sg71
I185
sS'velocities_arr_7'
p183
F0.47
sS'category_exercise_name_12'
p184
I0
sS'category_exercise_name_13'
p185
I0
sS'category_exercise_name_10'
p186
I0
sS'category_exercise_name_11'
p187
I0
sS'velocities_arr_10'
p188
I0
sg51
I8
sg78
I8
sS'category_exercise_name_0'
p189
I0
sS'category_exercise_name_1'
p190
I0
sS'category_exercise_name_2'
p191
I1
sS'category_exercise_name_3'
p192
I0
sS'category_exercise_name_4'
p193
I0
sS'category_exercise_name_5'
p194
I0
sS'category_exercise_name_6'
p195
I0
sS'category_exercise_name_7'
p196
I0
sS'category_exercise_name_8'
p197
I0
sS'category_exercise_name_9'
p198
I0
sg89
I3
sg54
I0
sg90
I0
sS'velocities_arr_11'
p199
I0
sg58
I0
sg36
I0
sa(dp200
g13
I2
sS'velocities_arr_0'
p201
F2.58
sS'velocities_arr_2'
p202
F1.89
sS'velocities_arr_3'
p203
F2.2
sS'velocities_arr_4'
p204
F1.89
sS'velocities_arr_5'
p205
F2.2
sS'velocities_arr_6'
p206
F1.89
sS'velocities_arr_1'
p207
F2.08
sS'velocities_arr_8'
p208
F1.76
sS'velocities_arr_9'
p209
F0.47
sg53
I88
sg71
I45
sS'velocities_arr_7'
p210
F1.89
sS'category_exercise_name_12'
p211
I0
sS'category_exercise_name_13'
p212
I0
sS'category_exercise_name_10'
p213
I0
sS'category_exercise_name_11'
p214
I0
sS'velocities_arr_10'
p215
I0
sg51
I8
sg78
I8
sS'category_exercise_name_0'
p216
I0
sS'category_exercise_name_1'
p217
I0
sS'category_exercise_name_2'
p218
I0
sS'category_exercise_name_3'
p219
I1
sS'category_exercise_name_4'
p220
I0
sS'category_exercise_name_5'
p221
I0
sS'category_exercise_name_6'
p222
I0
sS'category_exercise_name_7'
p223
I0
sS'category_exercise_name_8'
p224
I0
sS'category_exercise_name_9'
p225
I0
sg89
I0
sg54
I0
sg90
I0
sS'velocities_arr_11'
p226
I0
sg58
I0
sg36
F0.0
sa(dp227
g13
I2
sS'velocities_arr_0'
p228
F0.7
sS'velocities_arr_2'
p229
F0.72
sS'velocities_arr_3'
p230
F0.71
sS'velocities_arr_4'
p231
F0.71
sS'velocities_arr_5'
p232
F0.76
sS'velocities_arr_6'
p233
F0.71
sS'velocities_arr_1'
p234
F0.73
sS'velocities_arr_8'
p235
I0
sS'velocities_arr_9'
p236
I0
sg53
I89
sg71
I95
sS'velocities_arr_7'
p237
F0.65
sS'category_exercise_name_12'
p238
I0
sS'category_exercise_name_13'
p239
I0
sS'category_exercise_name_10'
p240
I0
sS'category_exercise_name_11'
p241
I0
sS'velocities_arr_10'
p242
I0
sg51
I8
sg78
I8
sS'category_exercise_name_0'
p243
I0
sS'category_exercise_name_1'
p244
I0
sS'category_exercise_name_2'
p245
I0
sS'category_exercise_name_3'
p246
I1
sS'category_exercise_name_4'
p247
I0
sS'category_exercise_name_5'
p248
I0
sS'category_exercise_name_6'
p249
I0
sS'category_exercise_name_7'
p250
I0
sS'category_exercise_name_8'
p251
I0
sS'category_exercise_name_9'
p252
I0
sg89
I1
sg54
I0
sg90
I0
sS'velocities_arr_11'
p253
I0
sg58
I0
sg36
F0.0
sa(dp254
g13
I2
sS'velocities_arr_0'
p255
F0.82
sS'velocities_arr_2'
p256
F0.9
sS'velocities_arr_3'
p257
F0.8
sS'velocities_arr_4'
p258
F0.8
sS'velocities_arr_5'
p259
F0.71
sS'velocities_arr_6'
p260
F0.78
sS'velocities_arr_1'
p261
F0.86
sS'velocities_arr_8'
p262
I0
sS'velocities_arr_9'
p263
I0
sg53
I95
sg71
I95
sS'velocities_arr_7'
p264
F0.74
sS'category_exercise_name_12'
p265
I0
sS'category_exercise_name_13'
p266
I0
sS'category_exercise_name_10'
p267
I0
sS'category_exercise_name_11'
p268
I0
sS'velocities_arr_10'
p269
I0
sg51
I8
sg78
I8
sS'category_exercise_name_0'
p270
I0
sS'category_exercise_name_1'
p271
I0
sS'category_exercise_name_2'
p272
I0
sS'category_exercise_name_3'
p273
I1
sS'category_exercise_name_4'
p274
I0
sS'category_exercise_name_5'
p275
I0
sS'category_exercise_name_6'
p276
I0
sS'category_exercise_name_7'
p277
I0
sS'category_exercise_name_8'
p278
I0
sS'category_exercise_name_9'
p279
I0
sg89
I2
sg54
I0
sg90
I0
sS'velocities_arr_11'
p280
I0
sg58
I0
sg36
F0.0
sa(dp281
g13
I2
sS'velocities_arr_0'
p282
F0.62
sS'velocities_arr_2'
p283
F0.71
sS'velocities_arr_3'
p284
F0.67
sS'velocities_arr_4'
p285
F0.66
sS'velocities_arr_5'
p286
F0.55
sS'velocities_arr_6'
p287
F0.59
sS'velocities_arr_1'
p288
F0.75
sS'velocities_arr_8'
p289
I0
sS'velocities_arr_9'
p290
I0
sg53
I103
sg71
I105
sS'velocities_arr_7'
p291
F0.54
sS'category_exercise_name_12'
p292
I0
sS'category_exercise_name_13'
p293
I0
sS'category_exercise_name_10'
p294
I0
sS'category_exercise_name_11'
p295
I0
sS'velocities_arr_10'
p296
I0
sg51
I8
sg78
I8
sS'category_exercise_name_0'
p297
I0
sS'category_exercise_name_1'
p298
I0
sS'category_exercise_name_2'
p299
I0
sS'category_exercise_name_3'
p300
I1
sS'category_exercise_name_4'
p301
I0
sS'category_exercise_name_5'
p302
I0
sS'category_exercise_name_6'
p303
I0
sS'category_exercise_name_7'
p304
I0
sS'category_exercise_name_8'
p305
I0
sS'category_exercise_name_9'
p306
I0
sg89
I3
sg54
I0
sg90
I0
sS'velocities_arr_11'
p307
I0
sg58
I0
sg36
F0.0
sa(dp308
g13
I2
sS'velocities_arr_0'
p309
I0
sS'velocities_arr_2'
p310
I0
sS'velocities_arr_3'
p311
I0
sS'velocities_arr_4'
p312
I0
sS'velocities_arr_5'
p313
I0
sS'velocities_arr_6'
p314
I0
sS'velocities_arr_1'
p315
I0
sS'velocities_arr_8'
p316
I0
sS'velocities_arr_9'
p317
I0
sg53
I112
sg71
I115
sS'velocities_arr_7'
p318
I0
sS'category_exercise_name_12'
p319
I0
sS'category_exercise_name_13'
p320
I0
sS'category_exercise_name_10'
p321
I0
sS'category_exercise_name_11'
p322
I0
sS'velocities_arr_10'
p323
I0
sg51
I8
sg78
I8
sS'category_exercise_name_0'
p324
I0
sS'category_exercise_name_1'
p325
I0
sS'category_exercise_name_2'
p326
I0
sS'category_exercise_name_3'
p327
I1
sS'category_exercise_name_4'
p328
I0
sS'category_exercise_name_5'
p329
I0
sS'category_exercise_name_6'
p330
I0
sS'category_exercise_name_7'
p331
I0
sS'category_exercise_name_8'
p332
I0
sS'category_exercise_name_9'
p333
I0
sg89
I4
sg54
I0
sg90
I0
sS'velocities_arr_11'
p334
I0
sg58
I0
sg36
F0.0
sa(dp335
g13
I2
sS'velocities_arr_0'
p336
F0.45
sS'velocities_arr_2'
p337
F0.4
sS'velocities_arr_3'
p338
F0.4
sS'velocities_arr_4'
p339
I0
sS'velocities_arr_5'
p340
I0
sS'velocities_arr_6'
p341
I0
sS'velocities_arr_1'
p342
F0.43
sS'velocities_arr_8'
p343
I0
sS'velocities_arr_9'
p344
I0
sg53
I111
sg71
I125
sS'velocities_arr_7'
p345
I0
sS'category_exercise_name_12'
p346
I0
sS'category_exercise_name_13'
p347
I0
sS'category_exercise_name_10'
p348
I0
sS'category_exercise_name_11'
p349
I0
sS'velocities_arr_10'
p350
I0
sg51
I4
sg78
I4
sS'category_exercise_name_0'
p351
I0
sS'category_exercise_name_1'
p352
I0
sS'category_exercise_name_2'
p353
I0
sS'category_exercise_name_3'
p354
I1
sS'category_exercise_name_4'
p355
I0
sS'category_exercise_name_5'
p356
I0
sS'category_exercise_name_6'
p357
I0
sS'category_exercise_name_7'
p358
I0
sS'category_exercise_name_8'
p359
I0
sS'category_exercise_name_9'
p360
I0
sg89
I5
sg54
I0
sg90
I0
sS'velocities_arr_11'
p361
I0
sg58
I0
sg36
F0.0
sa(dp362
g13
I2
sS'velocities_arr_0'
p363
F0.3
sS'velocities_arr_2'
p364
F0.3
sS'velocities_arr_3'
p365
I0
sS'velocities_arr_4'
p366
I0
sS'velocities_arr_5'
p367
I0
sS'velocities_arr_6'
p368
I0
sS'velocities_arr_1'
p369
F0.3
sS'velocities_arr_8'
p370
I0
sS'velocities_arr_9'
p371
I0
sg53
I107
sg71
I135
sS'velocities_arr_7'
p372
I0
sS'category_exercise_name_12'
p373
I0
sS'category_exercise_name_13'
p374
I0
sS'category_exercise_name_10'
p375
I0
sS'category_exercise_name_11'
p376
I0
sS'velocities_arr_10'
p377
I0
sg51
I3
sg78
I3
sS'category_exercise_name_0'
p378
I0
sS'category_exercise_name_1'
p379
I0
sS'category_exercise_name_2'
p380
I0
sS'category_exercise_name_3'
p381
I1
sS'category_exercise_name_4'
p382
I0
sS'category_exercise_name_5'
p383
I0
sS'category_exercise_name_6'
p384
I0
sS'category_exercise_name_7'
p385
I0
sS'category_exercise_name_8'
p386
I0
sS'category_exercise_name_9'
p387
I0
sg89
I6
sg54
I0
sg90
I0
sS'velocities_arr_11'
p388
I0
sg58
I0
sg36
F0.0
sa(dp389
g13
I2
sS'velocities_arr_0'
p390
I0
sS'velocities_arr_2'
p391
I0
sS'velocities_arr_3'
p392
I0
sS'velocities_arr_4'
p393
I0
sS'velocities_arr_5'
p394
I0
sS'velocities_arr_6'
p395
I0
sS'velocities_arr_1'
p396
I0
sS'velocities_arr_8'
p397
I0
sS'velocities_arr_9'
p398
I0
sg53
I121
sg71
F162.4
sS'velocities_arr_7'
p399
I0
sS'category_exercise_name_12'
p400
I1
sS'category_exercise_name_13'
p401
I0
sS'category_exercise_name_10'
p402
I0
sS'category_exercise_name_11'
p403
I0
sS'velocities_arr_10'
p404
I0
sg51
I8
sg78
I8
sS'category_exercise_name_0'
p405
I0
sS'category_exercise_name_1'
p406
I0
sS'category_exercise_name_2'
p407
I0
sS'category_exercise_name_3'
p408
I0
sS'category_exercise_name_4'
p409
I0
sS'category_exercise_name_5'
p410
I0
sS'category_exercise_name_6'
p411
I0
sS'category_exercise_name_7'
p412
I0
sS'category_exercise_name_8'
p413
I0
sS'category_exercise_name_9'
p414
I0
sg89
I7
sg54
I0
sg90
I0
sS'velocities_arr_11'
p415
I0
sg58
I0
sg36
F0.0
sa(dp416
g13
I2
sS'velocities_arr_0'
p417
I0
sS'velocities_arr_2'
p418
I0
sS'velocities_arr_3'
p419
I0
sS'velocities_arr_4'
p420
I0
sS'velocities_arr_5'
p421
I0
sS'velocities_arr_6'
p422
I0
sS'velocities_arr_1'
p423
I0
sS'velocities_arr_8'
p424
I0
sS'velocities_arr_9'
p425
I0
sg53
I121
sg71
F162.4
sS'velocities_arr_7'
p426
I0
sS'category_exercise_name_12'
p427
I1
sS'category_exercise_name_13'
p428
I0
sS'category_exercise_name_10'
p429
I0
sS'category_exercise_name_11'
p430
I0
sS'velocities_arr_10'
p431
I0
sg51
I4
sg78
I4
sS'category_exercise_name_0'
p432
I0
sS'category_exercise_name_1'
p433
I0
sS'category_exercise_name_2'
p434
I0
sS'category_exercise_name_3'
p435
I0
sS'category_exercise_name_4'
p436
I0
sS'category_exercise_name_5'
p437
I0
sS'category_exercise_name_6'
p438
I0
sS'category_exercise_name_7'
p439
I0
sS'category_exercise_name_8'
p440
I0
sS'category_exercise_name_9'
p441
I0
sg89
I8
sg54
I0
sg90
I0
sS'velocities_arr_11'
p442
I0
sg58
I0
sg36
F0.0
sa(dp443
g13
I3
sS'velocities_arr_0'
p444
F0.63
sS'velocities_arr_2'
p445
F0.64
sS'velocities_arr_3'
p446
F0.66
sS'velocities_arr_4'
p447
F0.72
sS'velocities_arr_5'
p448
F0.72
sS'velocities_arr_6'
p449
I0
sS'velocities_arr_1'
p450
F0.76
sS'velocities_arr_8'
p451
I0
sS'velocities_arr_9'
p452
I0
sg53
I116
sg71
I135
sS'velocities_arr_7'
p453
I0
sS'category_exercise_name_12'
p454
I0
sS'category_exercise_name_13'
p455
I0
sS'category_exercise_name_10'
p456
I0
sS'category_exercise_name_11'
p457
I0
sS'velocities_arr_10'
p458
I0
sg51
I6
sg78
I6
sS'category_exercise_name_0'
p459
I1
sS'category_exercise_name_1'
p460
I0
sS'category_exercise_name_2'
p461
I0
sS'category_exercise_name_3'
p462
I0
sS'category_exercise_name_4'
p463
I0
sS'category_exercise_name_5'
p464
I0
sS'category_exercise_name_6'
p465
I0
sS'category_exercise_name_7'
p466
I0
sS'category_exercise_name_8'
p467
I0
sS'category_exercise_name_9'
p468
I0
sg89
I0
sg54
I0
sg90
I0
sS'velocities_arr_11'
p469
I0
sg58
I0
sg36
F0.0
sa(dp470
g13
I3
sg62
I0
sg63
I0
sg64
I0
sg65
I0
sg66
I0
sg67
I0
sg68
I0
sg69
I0
sg70
I0
sg53
I-1
sg71
I155
sg72
I0
sg73
I0
sg74
I0
sg75
I0
sg76
I0
sg51
I-1
sg78
I6
sg79
I1
sg80
I0
sg81
I0
sg82
I0
sg83
I0
sg84
I0
sg85
I0
sg86
I0
sg87
I0
sg88
I0
sg89
I1
sg54
I-1
sg77
I0
sg90
I0
sg91
I0
sg58
I-1
sg36
F0.0
sas.