(dp0
S'userx'
p1
(dp2
S'wrist_width_inches'
p3
I7
sS'height_inches'
p4
F70.0
sS'harris_benedict_bmr'
p5
I-1
sS'genetically_gifted'
p6
I0
sS'years_old'
p7
I31
sS'ankle_width_inches'
p8
I9
sS'sex_is_male'
p9
I1
ssS'dayseriesx'
p10
(lp11
(dp12
S'day_number'
p13
I-1
sS'sleeptime_awake_hrs'
p14
I-1
sS'withings_body_water_percent'
p15
I-1
sS'heart_rate_variability_rmssd'
p16
I-1
sS'sleeptime_deep_rem_hrs'
p17
I-1
sS'withings_body_fat_percent'
p18
I-1
sS'withings_weight_lbs'
p19
I-1
sS'sleeptime_efficiency_percent'
p20
I-1
sS'post_day_calories_in'
p21
I-1
sS'post_day_fat_g'
p22
I-1
sS'sleeptime_bed_time_ampm_index'
p23
I-1
sS'withings_muscle_mass_percent'
p24
I-1
sS'days_since_last_recorded_day'
p25
I-1
sS'sleeptime_alarm_ring_ampm_index'
p26
I-1
sS'withings_bone_mass_percent'
p27
I-1
sS'sleeptime_snoozed'
p28
I-1
sS'sleeptime_light_sleep_hrs'
p29
I-1
sS'withings_heart_rate_bpm'
p30
I-1
sS'sleeptime_alarm_set_ampm_index'
p31
I-1
sS'post_day_protein_g'
p32
I-1
sS'post_day_wearable_calories_burned'
p33
I-1
sS'withings_pulse_wave_velocity_m_per_s'
p34
I-1
sS'sleeptime_rise_time_ampm_index'
p35
I-1
sS'days_since_last_workout'
p36
I-1
sS'post_day_carbs_g'
p37
I-1
sag12
ag12
ag12
ag12
ag12
ag12
ag12
ag12
ag12
ag12
ag12
a(dp38
g13
I0
sg14
F0.2833333333333333
sg15
F56.3
sg16
I-1
sg17
F3.4166666666666665
sg18
F14.9
sg19
F162.2
sg20
F96.0
sg21
I-1
sg22
I-1
sg23
I1322
sg24
F81.1
sg25
F0.0
sg26
I401
sg27
F4.0
sg28
I4
sg29
F5.533333333333333
sg30
F82.0
sg31
I425
sg32
I-1
sg33
I-1
sg34
F7.5
sg35
I437
sg36
I0
sg37
I-1
sa(dp39
g13
I1
sg14
F0.9833333333333333
sg15
I-1
sg16
I-1
sg17
F4.433333333333334
sg18
I-1
sg19
I-1
sg20
F88.0
sg21
I-1
sg22
I-1
sg23
I1376
sg24
I-1
sg25
F1.0
sg26
I406
sg27
I-1
sg28
I4
sg29
F2.9166666666666665
sg30
I-1
sg31
I425
sg32
I-1
sg33
I-1
sg34
I-1
sg35
I437
sg36
F1.0
sg37
I-1
sa(dp40
g13
I2
sg14
F1.3
sg15
F55.0
sg16
I-1
sg17
F5.033333333333333
sg18
F17.4
sg19
F162.3
sg20
F85.0
sg21
I-1
sg22
I-1
sg23
I1397
sg24
F78.7
sg25
F1.0
sg26
I1440
sg27
F3.9
sg28
I0
sg29
F2.6333333333333333
sg30
I82
sg31
I610
sg32
I-1
sg33
I-1
sg34
I-1
sg35
I495
sg36
F2.0
sg37
I-1
sa(dp41
g13
I3
sg14
F1.5
sg15
I-1
sg16
I-1
sg17
F3.45
sg18
I-1
sg19
I-1
sg20
F80.0
sg21
I-1
sg22
I-1
sg23
I111
sg24
I-1
sg25
F1.0
sg26
I583
sg27
I-1
sg28
I0
sg29
F2.8833333333333333
sg30
I-1
sg31
I610
sg32
I-1
sg33
I-1
sg34
I-1
sg35
I583
sg36
F3.0
sg37
I-1
sa(dp42
g13
I4
sg14
F1.0666666666666667
sg15
F55.0
sg16
I-1
sg17
F3.75
sg18
F14.6
sg19
F161.8
sg20
F86.0
sg21
I-1
sg22
I-1
sg23
I1396
sg24
F78.7
sg25
F1.0
sg26
I400
sg27
F3.9
sg28
I3
sg29
F3.183333333333333
sg30
I86
sg31
I425
sg32
I-1
sg33
I-1
sg34
F7.7
sg35
I437
sg36
F4.0
sg37
I-1
sa(dp43
g13
I5
sg14
F1.15
sg15
F57.1
sg16
I-1
sg17
F2.3666666666666667
sg18
F13.5
sg19
F161.1
sg20
F82.0
sg21
I-1
sg22
I-1
sg23
I30
sg24
F82.4
sg25
F1.0
sg26
I399
sg27
F4.0
sg28
I3
sg29
F3.25
sg30
I-1
sg31
I425
sg32
I-1
sg33
I-1
sg34
I-1
sg35
I437
sg36
F0.0
sg37
I-1
sa(dp44
g13
I6
sg14
F0.6666666666666666
sg15
F56.9
sg16
I-1
sg17
F2.0166666666666666
sg18
F13.8
sg19
F161.1
sg20
F90.0
sg21
I-1
sg22
I-1
sg23
I8
sg24
F82.2
sg25
F1.0
sg26
I422
sg27
F4.0
sg28
I4
sg29
F4.533333333333333
sg30
I85
sg31
I425
sg32
I-1
sg33
I-1
sg34
F7.7
sg35
I441
sg36
F1.0
sg37
I-1
sa(dp45
g13
I7
sg14
F1.4666666666666668
sg15
F56.9
sg16
I-1
sg17
F4.483333333333333
sg18
F13.9
sg19
F162.1
sg20
F80.0
sg21
I-1
sg22
I-1
sg23
I1427
sg24
F82.1
sg25
F1.0
sg26
I416
sg27
F4.0
sg28
I3
sg29
F1.5166666666666666
sg30
I79
sg31
I425
sg32
I-1
sg33
I-1
sg34
F7.7
sg35
I437
sg36
F2.0
sg37
I-1
sa(dp46
g13
I8
sg14
F0.26666666666666666
sg15
F57.0
sg16
I-1
sg17
F3.0
sg18
F13.7
sg19
F161.2
sg20
F96.0
sg21
I-1
sg22
I-1
sg23
I1436
sg24
F82.3
sg25
F1.0
sg26
I397
sg27
F4.0
sg28
I4
sg29
F4.05
sg30
I98
sg31
I425
sg32
I-1
sg33
I-1
sg34
F7.5
sg35
I437
sg36
F3.0
sg37
I-1
sa(dp47
g13
I9
sg14
F1.5
sg15
F56.2
sg16
I-1
sg17
F5.033333333333333
sg18
F15.0
sg19
F159.7
sg20
F83.0
sg21
I-1
sg22
I-1
sg23
I23
sg24
F81.0
sg25
F1.0
sg26
I1440
sg27
F4.0
sg28
I0
sg29
F2.3833333333333333
sg30
I87
sg31
I630
sg32
I-1
sg33
I-1
sg34
F7.6
sg35
I560
sg36
F4.0
sg37
I-1
sa(dp48
g13
I10
sg14
F0.23333333333333334
sg15
I-1
sg16
I-1
sg17
F3.066666666666667
sg18
I-1
sg19
I-1
sg20
F95.0
sg21
I-1
sg22
I-1
sg23
I177
sg24
I-1
sg25
F1.0
sg26
I1440
sg27
I-1
sg28
I0
sg29
F2.5833333333333335
sg30
I-1
sg31
I670
sg32
I-1
sg33
I-1
sg34
I-1
sg35
I531
sg36
F5.0
sg37
I-1
sa(dp49
g13
I11
sg14
F0.7666666666666667
sg15
F56.6
sg16
I-1
sg17
F3.183333333333333
sg18
F14.4
sg19
F161.6
sg20
F91.0
sg21
I-1
sg22
I-1
sg23
I605
sg24
F81.6
sg25
F1.0
sg26
I422
sg27
F4.0
sg28
I4
sg29
F5.25
sg30
I95
sg31
I426
sg32
I-1
sg33
I-1
sg34
F7.7
sg35
I438
sg36
F6.0
sg37
I-1
sasS'workouty'
p50
(dp51
S'velocities_arr_0'
p52
F1.01
sS'velocities_arr_1'
p53
F1.13
sS'velocities_arr_2'
p54
F1.56
sS'velocities_arr_3'
p55
F1.49
sS'velocities_arr_4'
p56
F1.49
sS'velocities_arr_5'
p57
F1.49
sS'velocities_arr_6'
p58
I0
sS'velocities_arr_7'
p59
I0
sS'reps_completed'
p60
I6
sS'velocities_arr_9'
p61
I0
sS'postset_heartrate'
p62
I117
sS'went_to_failure'
p63
I0
sS'velocities_arr_8'
p64
I0
sS'velocities_arr_10'
p65
I0
sS'velocities_arr_11'
p66
I0
sS'did_pull_muscle'
p67
I0
ssS'workoutxseries'
p68
(lp69
(dp70
g13
I12
sS'velocities_arr_0'
p71
I0
sS'velocities_arr_2'
p72
I0
sS'velocities_arr_3'
p73
I0
sS'velocities_arr_4'
p74
I0
sS'velocities_arr_5'
p75
I0
sS'velocities_arr_6'
p76
I0
sS'velocities_arr_1'
p77
I0
sS'velocities_arr_8'
p78
I0
sS'velocities_arr_9'
p79
I0
sg62
I-1
sS'weight_lbs'
p80
I-1
sS'velocities_arr_7'
p81
I0
sS'category_exercise_name_12'
p82
I0
sS'category_exercise_name_13'
p83
I0
sS'category_exercise_name_10'
p84
I0
sS'category_exercise_name_11'
p85
I0
sS'category_exercise_name_2'
p86
I0
sg60
I-1
sS'reps_planned'
p87
I-1
sS'category_exercise_name_0'
p88
I0
sS'category_exercise_name_1'
p89
I0
sS'velocities_arr_10'
p90
I0
sS'category_exercise_name_3'
p91
I0
sS'category_exercise_name_4'
p92
I0
sS'category_exercise_name_5'
p93
I0
sS'category_exercise_name_6'
p94
I0
sS'category_exercise_name_7'
p95
I0
sS'category_exercise_name_8'
p96
I0
sS'category_exercise_name_9'
p97
I0
sS'set_number_of_the_day'
p98
I24
sg63
I0
sS'used_lifting_gear'
p99
I0
sS'velocities_arr_11'
p100
I0
sg67
I0
sg36
I0
sag70
ag70
ag70
ag70
ag70
ag70
ag70
ag70
ag70
ag70
ag70
ag70
a(dp101
g13
I1
sS'velocities_arr_0'
p102
F1.04
sS'velocities_arr_2'
p103
I0
sS'velocities_arr_3'
p104
I0
sS'velocities_arr_4'
p105
I0
sS'velocities_arr_5'
p106
I0
sS'velocities_arr_6'
p107
I0
sS'velocities_arr_1'
p108
I0
sS'velocities_arr_8'
p109
I0
sS'velocities_arr_9'
p110
I0
sg62
I105
sg80
I45
sS'velocities_arr_7'
p111
I0
sS'category_exercise_name_12'
p112
I0
sS'category_exercise_name_13'
p113
I0
sS'category_exercise_name_10'
p114
I0
sS'category_exercise_name_11'
p115
I0
sS'velocities_arr_10'
p116
I0
sg60
I1
sg87
I1
sS'category_exercise_name_0'
p117
I0
sS'category_exercise_name_1'
p118
I0
sS'category_exercise_name_2'
p119
I1
sS'category_exercise_name_3'
p120
I0
sS'category_exercise_name_4'
p121
I0
sS'category_exercise_name_5'
p122
I0
sS'category_exercise_name_6'
p123
I0
sS'category_exercise_name_7'
p124
I0
sS'category_exercise_name_8'
p125
I0
sS'category_exercise_name_9'
p126
I0
sg98
I0
sg63
I0
sg99
I0
sS'velocities_arr_11'
p127
I0
sg67
I0
sg36
I0
sa(dp128
g13
I1
sS'velocities_arr_0'
p129
F0.65
sS'velocities_arr_2'
p130
F0.64
sS'velocities_arr_3'
p131
F0.61
sS'velocities_arr_4'
p132
F0.6
sS'velocities_arr_5'
p133
F0.58
sS'velocities_arr_6'
p134
F0.57
sS'velocities_arr_1'
p135
F0.65
sS'velocities_arr_8'
p136
F0.55
sS'velocities_arr_9'
p137
F0.49
sg62
I130
sg80
I160
sS'velocities_arr_7'
p138
F0.55
sS'category_exercise_name_12'
p139
I0
sS'category_exercise_name_13'
p140
I0
sS'category_exercise_name_10'
p141
I0
sS'category_exercise_name_11'
p142
I0
sS'velocities_arr_10'
p143
F0.49
sg60
I11
sg87
I11
sS'category_exercise_name_0'
p144
I0
sS'category_exercise_name_1'
p145
I0
sS'category_exercise_name_2'
p146
I1
sS'category_exercise_name_3'
p147
I0
sS'category_exercise_name_4'
p148
I0
sS'category_exercise_name_5'
p149
I0
sS'category_exercise_name_6'
p150
I0
sS'category_exercise_name_7'
p151
I0
sS'category_exercise_name_8'
p152
I0
sS'category_exercise_name_9'
p153
I0
sg98
I1
sg63
I0
sg99
I0
sS'velocities_arr_11'
p154
I0
sg67
I0
sg36
I0
sa(dp155
g13
I1
sS'velocities_arr_0'
p156
F0.69
sS'velocities_arr_2'
p157
F0.62
sS'velocities_arr_3'
p158
F0.61
sS'velocities_arr_4'
p159
F0.54
sS'velocities_arr_5'
p160
F0.56
sS'velocities_arr_6'
p161
F0.63
sS'velocities_arr_1'
p162
F0.67
sS'velocities_arr_8'
p163
F0.5
sS'velocities_arr_9'
p164
I0
sg62
I135
sg80
I170
sS'velocities_arr_7'
p165
F0.52
sS'category_exercise_name_12'
p166
I0
sS'category_exercise_name_13'
p167
I0
sS'category_exercise_name_10'
p168
I0
sS'category_exercise_name_11'
p169
I0
sS'velocities_arr_10'
p170
I0
sg60
I9
sg87
I9
sS'category_exercise_name_0'
p171
I0
sS'category_exercise_name_1'
p172
I0
sS'category_exercise_name_2'
p173
I1
sS'category_exercise_name_3'
p174
I0
sS'category_exercise_name_4'
p175
I0
sS'category_exercise_name_5'
p176
I0
sS'category_exercise_name_6'
p177
I0
sS'category_exercise_name_7'
p178
I0
sS'category_exercise_name_8'
p179
I0
sS'category_exercise_name_9'
p180
I0
sg98
I2
sg63
I0
sg99
I0
sS'velocities_arr_11'
p181
I0
sg67
I0
sg36
I0
sa(dp182
g13
I1
sS'velocities_arr_0'
p183
F0.52
sS'velocities_arr_2'
p184
I0
sS'velocities_arr_3'
p185
I0
sS'velocities_arr_4'
p186
I0
sS'velocities_arr_5'
p187
I0
sS'velocities_arr_6'
p188
I0
sS'velocities_arr_1'
p189
F0.46
sS'velocities_arr_8'
p190
I0
sS'velocities_arr_9'
p191
I0
sg62
I132
sg80
I210
sS'velocities_arr_7'
p192
I0
sS'category_exercise_name_12'
p193
I0
sS'category_exercise_name_13'
p194
I0
sS'category_exercise_name_10'
p195
I0
sS'category_exercise_name_11'
p196
I0
sS'velocities_arr_10'
p197
I0
sg60
I2
sg87
I2
sS'category_exercise_name_0'
p198
I0
sS'category_exercise_name_1'
p199
I0
sS'category_exercise_name_2'
p200
I1
sS'category_exercise_name_3'
p201
I0
sS'category_exercise_name_4'
p202
I0
sS'category_exercise_name_5'
p203
I0
sS'category_exercise_name_6'
p204
I0
sS'category_exercise_name_7'
p205
I0
sS'category_exercise_name_8'
p206
I0
sS'category_exercise_name_9'
p207
I0
sg98
I3
sg63
I0
sg99
I0
sS'velocities_arr_11'
p208
I0
sg67
I0
sg36
I0
sa(dp209
g13
I1
sS'velocities_arr_0'
p210
F0.48
sS'velocities_arr_2'
p211
F0.42
sS'velocities_arr_3'
p212
F0.46
sS'velocities_arr_4'
p213
I0
sS'velocities_arr_5'
p214
I0
sS'velocities_arr_6'
p215
I0
sS'velocities_arr_1'
p216
F0.46
sS'velocities_arr_8'
p217
I0
sS'velocities_arr_9'
p218
I0
sg62
I133
sg80
I220
sS'velocities_arr_7'
p219
I0
sS'category_exercise_name_12'
p220
I0
sS'category_exercise_name_13'
p221
I0
sS'category_exercise_name_10'
p222
I0
sS'category_exercise_name_11'
p223
I0
sS'velocities_arr_10'
p224
I0
sg60
I3
sg87
I12
sS'category_exercise_name_0'
p225
I0
sS'category_exercise_name_1'
p226
I0
sS'category_exercise_name_2'
p227
I1
sS'category_exercise_name_3'
p228
I0
sS'category_exercise_name_4'
p229
I0
sS'category_exercise_name_5'
p230
I0
sS'category_exercise_name_6'
p231
I0
sS'category_exercise_name_7'
p232
I0
sS'category_exercise_name_8'
p233
I0
sS'category_exercise_name_9'
p234
I0
sg98
I4
sg63
I0
sg99
I0
sS'velocities_arr_11'
p235
I0
sg67
I0
sg36
I0
sa(dp236
g13
I1
sS'velocities_arr_0'
p237
F0.86
sS'velocities_arr_2'
p238
I0
sS'velocities_arr_3'
p239
I0
sS'velocities_arr_4'
p240
I0
sS'velocities_arr_5'
p241
I0
sS'velocities_arr_6'
p242
I0
sS'velocities_arr_1'
p243
F0.83
sS'velocities_arr_8'
p244
I0
sS'velocities_arr_9'
p245
I0
sg62
I125
sg80
I115
sS'velocities_arr_7'
p246
I0
sS'category_exercise_name_12'
p247
I0
sS'category_exercise_name_13'
p248
I0
sS'category_exercise_name_10'
p249
I0
sS'category_exercise_name_11'
p250
I0
sS'velocities_arr_10'
p251
I0
sg60
I2
sg87
I2
sS'category_exercise_name_0'
p252
I0
sS'category_exercise_name_1'
p253
I0
sS'category_exercise_name_2'
p254
I1
sS'category_exercise_name_3'
p255
I0
sS'category_exercise_name_4'
p256
I0
sS'category_exercise_name_5'
p257
I0
sS'category_exercise_name_6'
p258
I0
sS'category_exercise_name_7'
p259
I0
sS'category_exercise_name_8'
p260
I0
sS'category_exercise_name_9'
p261
I0
sg98
I5
sg63
I0
sg99
I0
sS'velocities_arr_11'
p262
I0
sg67
I0
sg36
I0
sa(dp263
g13
I1
sS'velocities_arr_0'
p264
F0.98
sS'velocities_arr_2'
p265
F0.91
sS'velocities_arr_3'
p266
F0.92
sS'velocities_arr_4'
p267
F0.92
sS'velocities_arr_5'
p268
F0.92
sS'velocities_arr_6'
p269
F0.92
sS'velocities_arr_1'
p270
F0.83
sS'velocities_arr_8'
p271
I0
sS'velocities_arr_9'
p272
I0
sg62
I118
sg80
I55
sS'velocities_arr_7'
p273
F0.92
sS'category_exercise_name_12'
p274
I0
sS'category_exercise_name_13'
p275
I0
sS'category_exercise_name_10'
p276
I0
sS'category_exercise_name_11'
p277
I0
sS'velocities_arr_10'
p278
I0
sg60
I8
sg87
I8
sS'category_exercise_name_0'
p279
I0
sS'category_exercise_name_1'
p280
I0
sS'category_exercise_name_2'
p281
I1
sS'category_exercise_name_3'
p282
I0
sS'category_exercise_name_4'
p283
I0
sS'category_exercise_name_5'
p284
I0
sS'category_exercise_name_6'
p285
I0
sS'category_exercise_name_7'
p286
I0
sS'category_exercise_name_8'
p287
I0
sS'category_exercise_name_9'
p288
I0
sg98
I6
sg63
I0
sg99
I0
sS'velocities_arr_11'
p289
I0
sg67
I0
sg36
I0
sa(dp290
g13
I1
sS'velocities_arr_0'
p291
I0
sS'velocities_arr_2'
p292
I0
sS'velocities_arr_3'
p293
I0
sS'velocities_arr_4'
p294
I0
sS'velocities_arr_5'
p295
I0
sS'velocities_arr_6'
p296
I0
sS'velocities_arr_1'
p297
I0
sS'velocities_arr_8'
p298
I0
sS'velocities_arr_9'
p299
I0
sg62
I120
sg80
I75
sS'velocities_arr_7'
p300
I0
sS'category_exercise_name_12'
p301
I0
sS'category_exercise_name_13'
p302
I0
sS'category_exercise_name_10'
p303
I0
sS'category_exercise_name_11'
p304
I0
sS'velocities_arr_10'
p305
I0
sg60
I12
sg87
I13
sS'category_exercise_name_0'
p306
I0
sS'category_exercise_name_1'
p307
I0
sS'category_exercise_name_2'
p308
I1
sS'category_exercise_name_3'
p309
I0
sS'category_exercise_name_4'
p310
I0
sS'category_exercise_name_5'
p311
I0
sS'category_exercise_name_6'
p312
I0
sS'category_exercise_name_7'
p313
I0
sS'category_exercise_name_8'
p314
I0
sS'category_exercise_name_9'
p315
I0
sg98
I7
sg63
I0
sg99
I0
sS'velocities_arr_11'
p316
I0
sg67
I0
sg36
I0
sa(dp317
g13
I1
sS'velocities_arr_0'
p318
I0
sS'velocities_arr_2'
p319
I0
sS'velocities_arr_3'
p320
I0
sS'velocities_arr_4'
p321
I0
sS'velocities_arr_5'
p322
I0
sS'velocities_arr_6'
p323
I0
sS'velocities_arr_1'
p324
I0
sS'velocities_arr_8'
p325
I0
sS'velocities_arr_9'
p326
I0
sg62
I120
sg80
I135
sS'velocities_arr_7'
p327
I0
sS'category_exercise_name_12'
p328
I0
sS'category_exercise_name_13'
p329
I0
sS'category_exercise_name_10'
p330
I0
sS'category_exercise_name_11'
p331
I0
sS'velocities_arr_10'
p332
I0
sg60
I7
sg87
I7
sS'category_exercise_name_0'
p333
I0
sS'category_exercise_name_1'
p334
I0
sS'category_exercise_name_2'
p335
I1
sS'category_exercise_name_3'
p336
I0
sS'category_exercise_name_4'
p337
I0
sS'category_exercise_name_5'
p338
I0
sS'category_exercise_name_6'
p339
I0
sS'category_exercise_name_7'
p340
I0
sS'category_exercise_name_8'
p341
I0
sS'category_exercise_name_9'
p342
I0
sg98
I8
sg63
I0
sg99
I0
sS'velocities_arr_11'
p343
I0
sg67
I0
sg36
I0
sa(dp344
g13
I1
sS'velocities_arr_0'
p345
I0
sS'velocities_arr_2'
p346
I0
sS'velocities_arr_3'
p347
I0
sS'velocities_arr_4'
p348
I0
sS'velocities_arr_5'
p349
I0
sS'velocities_arr_6'
p350
I0
sS'velocities_arr_1'
p351
I0
sS'velocities_arr_8'
p352
I0
sS'velocities_arr_9'
p353
I0
sg62
I120
sg80
I135
sS'velocities_arr_7'
p354
I0
sS'category_exercise_name_12'
p355
I0
sS'category_exercise_name_13'
p356
I0
sS'category_exercise_name_10'
p357
I0
sS'category_exercise_name_11'
p358
I0
sS'velocities_arr_10'
p359
I0
sg60
I7
sg87
I7
sS'category_exercise_name_0'
p360
I0
sS'category_exercise_name_1'
p361
I0
sS'category_exercise_name_2'
p362
I1
sS'category_exercise_name_3'
p363
I0
sS'category_exercise_name_4'
p364
I0
sS'category_exercise_name_5'
p365
I0
sS'category_exercise_name_6'
p366
I0
sS'category_exercise_name_7'
p367
I0
sS'category_exercise_name_8'
p368
I0
sS'category_exercise_name_9'
p369
I0
sg98
I9
sg63
I0
sg99
I0
sS'velocities_arr_11'
p370
I0
sg67
I0
sg36
I0
sa(dp371
g13
I1
sS'velocities_arr_0'
p372
I0
sS'velocities_arr_2'
p373
I0
sS'velocities_arr_3'
p374
I0
sS'velocities_arr_4'
p375
I0
sS'velocities_arr_5'
p376
I0
sS'velocities_arr_6'
p377
I0
sS'velocities_arr_1'
p378
I0
sS'velocities_arr_8'
p379
I0
sS'velocities_arr_9'
p380
I0
sg62
I140
sg80
I195
sS'velocities_arr_7'
p381
I0
sS'category_exercise_name_12'
p382
I0
sS'category_exercise_name_13'
p383
I0
sS'category_exercise_name_10'
p384
I0
sS'category_exercise_name_11'
p385
I0
sS'velocities_arr_10'
p386
I0
sg60
I3
sg87
I3
sS'category_exercise_name_0'
p387
I0
sS'category_exercise_name_1'
p388
I0
sS'category_exercise_name_2'
p389
I1
sS'category_exercise_name_3'
p390
I0
sS'category_exercise_name_4'
p391
I0
sS'category_exercise_name_5'
p392
I0
sS'category_exercise_name_6'
p393
I0
sS'category_exercise_name_7'
p394
I0
sS'category_exercise_name_8'
p395
I0
sS'category_exercise_name_9'
p396
I0
sg98
I10
sg63
I0
sg99
I0
sS'velocities_arr_11'
p397
I0
sg67
I0
sg36
I0
sa(dp398
g13
I1
sS'velocities_arr_0'
p399
F0.0
sS'velocities_arr_2'
p400
I0
sS'velocities_arr_3'
p401
I0
sS'velocities_arr_4'
p402
I0
sS'velocities_arr_5'
p403
I0
sS'velocities_arr_6'
p404
I0
sS'velocities_arr_1'
p405
I0
sS'velocities_arr_8'
p406
I0
sS'velocities_arr_9'
p407
I0
sg62
I140
sg80
I316
sS'velocities_arr_7'
p408
I0
sS'category_exercise_name_12'
p409
I0
sS'category_exercise_name_13'
p410
I0
sS'category_exercise_name_10'
p411
I0
sS'category_exercise_name_11'
p412
I0
sS'velocities_arr_10'
p413
I0
sg60
I0
sg87
I8
sS'category_exercise_name_0'
p414
I0
sS'category_exercise_name_1'
p415
I0
sS'category_exercise_name_2'
p416
I1
sS'category_exercise_name_3'
p417
I0
sS'category_exercise_name_4'
p418
I0
sS'category_exercise_name_5'
p419
I0
sS'category_exercise_name_6'
p420
I0
sS'category_exercise_name_7'
p421
I0
sS'category_exercise_name_8'
p422
I0
sS'category_exercise_name_9'
p423
I0
sg98
I11
sg63
I1
sg99
I0
sS'velocities_arr_11'
p424
I0
sg67
I0
sg36
I0
sa(dp425
g13
I1
sS'velocities_arr_0'
p426
F0.0
sS'velocities_arr_2'
p427
I0
sS'velocities_arr_3'
p428
I0
sS'velocities_arr_4'
p429
I0
sS'velocities_arr_5'
p430
I0
sS'velocities_arr_6'
p431
I0
sS'velocities_arr_1'
p432
I0
sS'velocities_arr_8'
p433
I0
sS'velocities_arr_9'
p434
I0
sg62
I140
sg80
I1000
sS'velocities_arr_7'
p435
I0
sS'category_exercise_name_12'
p436
I0
sS'category_exercise_name_13'
p437
I0
sS'category_exercise_name_10'
p438
I0
sS'category_exercise_name_11'
p439
I0
sS'velocities_arr_10'
p440
I0
sg60
I0
sg87
I14
sS'category_exercise_name_0'
p441
I0
sS'category_exercise_name_1'
p442
I0
sS'category_exercise_name_2'
p443
I1
sS'category_exercise_name_3'
p444
I0
sS'category_exercise_name_4'
p445
I0
sS'category_exercise_name_5'
p446
I0
sS'category_exercise_name_6'
p447
I0
sS'category_exercise_name_7'
p448
I0
sS'category_exercise_name_8'
p449
I0
sS'category_exercise_name_9'
p450
I0
sg98
I12
sg63
I1
sg99
I0
sS'velocities_arr_11'
p451
I0
sg67
I0
sg36
I0
sa(dp452
g13
I1
sS'velocities_arr_0'
p453
F0.0
sS'velocities_arr_2'
p454
I0
sS'velocities_arr_3'
p455
I0
sS'velocities_arr_4'
p456
I0
sS'velocities_arr_5'
p457
I0
sS'velocities_arr_6'
p458
I0
sS'velocities_arr_1'
p459
I0
sS'velocities_arr_8'
p460
I0
sS'velocities_arr_9'
p461
I0
sg62
I140
sg80
I1000
sS'velocities_arr_7'
p462
I0
sS'category_exercise_name_12'
p463
I0
sS'category_exercise_name_13'
p464
I0
sS'category_exercise_name_10'
p465
I0
sS'category_exercise_name_11'
p466
I0
sS'velocities_arr_10'
p467
I0
sg60
I0
sg87
I6
sS'category_exercise_name_0'
p468
I0
sS'category_exercise_name_1'
p469
I0
sS'category_exercise_name_2'
p470
I1
sS'category_exercise_name_3'
p471
I0
sS'category_exercise_name_4'
p472
I0
sS'category_exercise_name_5'
p473
I0
sS'category_exercise_name_6'
p474
I0
sS'category_exercise_name_7'
p475
I0
sS'category_exercise_name_8'
p476
I0
sS'category_exercise_name_9'
p477
I0
sg98
I13
sg63
I1
sg99
I0
sS'velocities_arr_11'
p478
I0
sg67
I0
sg36
I0
sa(dp479
g13
I1
sS'velocities_arr_0'
p480
F0.0
sS'velocities_arr_2'
p481
I0
sS'velocities_arr_3'
p482
I0
sS'velocities_arr_4'
p483
I0
sS'velocities_arr_5'
p484
I0
sS'velocities_arr_6'
p485
I0
sS'velocities_arr_1'
p486
I0
sS'velocities_arr_8'
p487
I0
sS'velocities_arr_9'
p488
I0
sg62
I140
sg80
I1000
sS'velocities_arr_7'
p489
I0
sS'category_exercise_name_12'
p490
I0
sS'category_exercise_name_13'
p491
I0
sS'category_exercise_name_10'
p492
I0
sS'category_exercise_name_11'
p493
I0
sS'velocities_arr_10'
p494
I0
sg60
I0
sg87
I7
sS'category_exercise_name_0'
p495
I0
sS'category_exercise_name_1'
p496
I0
sS'category_exercise_name_2'
p497
I1
sS'category_exercise_name_3'
p498
I0
sS'category_exercise_name_4'
p499
I0
sS'category_exercise_name_5'
p500
I0
sS'category_exercise_name_6'
p501
I0
sS'category_exercise_name_7'
p502
I0
sS'category_exercise_name_8'
p503
I0
sS'category_exercise_name_9'
p504
I0
sg98
I14
sg63
I1
sg99
I0
sS'velocities_arr_11'
p505
I0
sg67
I0
sg36
I0
sa(dp506
g13
I1
sS'velocities_arr_0'
p507
F0.0
sS'velocities_arr_2'
p508
I0
sS'velocities_arr_3'
p509
I0
sS'velocities_arr_4'
p510
I0
sS'velocities_arr_5'
p511
I0
sS'velocities_arr_6'
p512
I0
sS'velocities_arr_1'
p513
I0
sS'velocities_arr_8'
p514
I0
sS'velocities_arr_9'
p515
I0
sg62
I140
sg80
I950
sS'velocities_arr_7'
p516
I0
sS'category_exercise_name_12'
p517
I0
sS'category_exercise_name_13'
p518
I0
sS'category_exercise_name_10'
p519
I0
sS'category_exercise_name_11'
p520
I0
sS'velocities_arr_10'
p521
I0
sg60
I0
sg87
I1
sS'category_exercise_name_0'
p522
I0
sS'category_exercise_name_1'
p523
I0
sS'category_exercise_name_2'
p524
I1
sS'category_exercise_name_3'
p525
I0
sS'category_exercise_name_4'
p526
I0
sS'category_exercise_name_5'
p527
I0
sS'category_exercise_name_6'
p528
I0
sS'category_exercise_name_7'
p529
I0
sS'category_exercise_name_8'
p530
I0
sS'category_exercise_name_9'
p531
I0
sg98
I15
sg63
I1
sg99
I0
sS'velocities_arr_11'
p532
I0
sg67
I0
sg36
I0
sa(dp533
g13
I1
sS'velocities_arr_0'
p534
F0.0
sS'velocities_arr_2'
p535
I0
sS'velocities_arr_3'
p536
I0
sS'velocities_arr_4'
p537
I0
sS'velocities_arr_5'
p538
I0
sS'velocities_arr_6'
p539
I0
sS'velocities_arr_1'
p540
I0
sS'velocities_arr_8'
p541
I0
sS'velocities_arr_9'
p542
I0
sg62
I140
sg80
I990
sS'velocities_arr_7'
p543
I0
sS'category_exercise_name_12'
p544
I0
sS'category_exercise_name_13'
p545
I0
sS'category_exercise_name_10'
p546
I0
sS'category_exercise_name_11'
p547
I0
sS'velocities_arr_10'
p548
I0
sg60
I0
sg87
I13
sS'category_exercise_name_0'
p549
I0
sS'category_exercise_name_1'
p550
I0
sS'category_exercise_name_2'
p551
I1
sS'category_exercise_name_3'
p552
I0
sS'category_exercise_name_4'
p553
I0
sS'category_exercise_name_5'
p554
I0
sS'category_exercise_name_6'
p555
I0
sS'category_exercise_name_7'
p556
I0
sS'category_exercise_name_8'
p557
I0
sS'category_exercise_name_9'
p558
I0
sg98
I16
sg63
I1
sg99
I0
sS'velocities_arr_11'
p559
I0
sg67
I0
sg36
I0
sa(dp560
g13
I1
sS'velocities_arr_0'
p561
F0.0
sS'velocities_arr_2'
p562
I0
sS'velocities_arr_3'
p563
I0
sS'velocities_arr_4'
p564
I0
sS'velocities_arr_5'
p565
I0
sS'velocities_arr_6'
p566
I0
sS'velocities_arr_1'
p567
I0
sS'velocities_arr_8'
p568
I0
sS'velocities_arr_9'
p569
I0
sg62
I140
sg80
I975
sS'velocities_arr_7'
p570
I0
sS'category_exercise_name_12'
p571
I0
sS'category_exercise_name_13'
p572
I0
sS'category_exercise_name_10'
p573
I0
sS'category_exercise_name_11'
p574
I0
sS'velocities_arr_10'
p575
I0
sg60
I0
sg87
I14
sS'category_exercise_name_0'
p576
I0
sS'category_exercise_name_1'
p577
I0
sS'category_exercise_name_2'
p578
I1
sS'category_exercise_name_3'
p579
I0
sS'category_exercise_name_4'
p580
I0
sS'category_exercise_name_5'
p581
I0
sS'category_exercise_name_6'
p582
I0
sS'category_exercise_name_7'
p583
I0
sS'category_exercise_name_8'
p584
I0
sS'category_exercise_name_9'
p585
I0
sg98
I17
sg63
I1
sg99
I0
sS'velocities_arr_11'
p586
I0
sg67
I0
sg36
I0
sa(dp587
g13
I6
sS'velocities_arr_0'
p588
F0.51
sS'velocities_arr_2'
p589
F0.71
sS'velocities_arr_3'
p590
F0.92
sS'velocities_arr_4'
p591
I0
sS'velocities_arr_5'
p592
I0
sS'velocities_arr_6'
p593
I0
sS'velocities_arr_1'
p594
F0.6
sS'velocities_arr_8'
p595
I0
sS'velocities_arr_9'
p596
I0
sg62
I100
sg80
I45
sS'velocities_arr_7'
p597
I0
sS'category_exercise_name_12'
p598
I0
sS'category_exercise_name_13'
p599
I0
sS'category_exercise_name_10'
p600
I0
sS'category_exercise_name_11'
p601
I0
sS'velocities_arr_10'
p602
I0
sg60
I4
sg87
I4
sS'category_exercise_name_0'
p603
I0
sS'category_exercise_name_1'
p604
I0
sS'category_exercise_name_2'
p605
I1
sS'category_exercise_name_3'
p606
I0
sS'category_exercise_name_4'
p607
I0
sS'category_exercise_name_5'
p608
I0
sS'category_exercise_name_6'
p609
I0
sS'category_exercise_name_7'
p610
I0
sS'category_exercise_name_8'
p611
I0
sS'category_exercise_name_9'
p612
I0
sg98
I0
sg63
I0
sg99
I0
sS'velocities_arr_11'
p613
I0
sg67
I0
sg36
F0.0
sa(dp614
g13
I6
sS'velocities_arr_0'
p615
F0.74
sS'velocities_arr_2'
p616
F0.61
sS'velocities_arr_3'
p617
F0.63
sS'velocities_arr_4'
p618
F0.63
sS'velocities_arr_5'
p619
I0
sS'velocities_arr_6'
p620
I0
sS'velocities_arr_1'
p621
F0.69
sS'velocities_arr_8'
p622
I0
sS'velocities_arr_9'
p623
I0
sg62
I110
sg80
I135
sS'velocities_arr_7'
p624
I0
sS'category_exercise_name_12'
p625
I0
sS'category_exercise_name_13'
p626
I0
sS'category_exercise_name_10'
p627
I0
sS'category_exercise_name_11'
p628
I0
sS'velocities_arr_10'
p629
I0
sg60
I5
sg87
I5
sS'category_exercise_name_0'
p630
I0
sS'category_exercise_name_1'
p631
I0
sS'category_exercise_name_2'
p632
I1
sS'category_exercise_name_3'
p633
I0
sS'category_exercise_name_4'
p634
I0
sS'category_exercise_name_5'
p635
I0
sS'category_exercise_name_6'
p636
I0
sS'category_exercise_name_7'
p637
I0
sS'category_exercise_name_8'
p638
I0
sS'category_exercise_name_9'
p639
I0
sg98
I1
sg63
I0
sg99
I0
sS'velocities_arr_11'
p640
I0
sg67
I0
sg36
F0.0
sa(dp641
g13
I6
sS'velocities_arr_0'
p642
F0.64
sS'velocities_arr_2'
p643
F0.59
sS'velocities_arr_3'
p644
F0.57
sS'velocities_arr_4'
p645
F0.57
sS'velocities_arr_5'
p646
I0
sS'velocities_arr_6'
p647
I0
sS'velocities_arr_1'
p648
F0.6
sS'velocities_arr_8'
p649
I0
sS'velocities_arr_9'
p650
I0
sg62
I110
sg80
I155
sS'velocities_arr_7'
p651
I0
sS'category_exercise_name_12'
p652
I0
sS'category_exercise_name_13'
p653
I0
sS'category_exercise_name_10'
p654
I0
sS'category_exercise_name_11'
p655
I0
sS'velocities_arr_10'
p656
I0
sg60
I5
sg87
I5
sS'category_exercise_name_0'
p657
I0
sS'category_exercise_name_1'
p658
I0
sS'category_exercise_name_2'
p659
I1
sS'category_exercise_name_3'
p660
I0
sS'category_exercise_name_4'
p661
I0
sS'category_exercise_name_5'
p662
I0
sS'category_exercise_name_6'
p663
I0
sS'category_exercise_name_7'
p664
I0
sS'category_exercise_name_8'
p665
I0
sS'category_exercise_name_9'
p666
I0
sg98
I2
sg63
I0
sg99
I0
sS'velocities_arr_11'
p667
I0
sg67
I0
sg36
F0.0
sa(dp668
g13
I6
sS'velocities_arr_0'
p669
F0.61
sS'velocities_arr_2'
p670
F0.59
sS'velocities_arr_3'
p671
F0.51
sS'velocities_arr_4'
p672
F0.52
sS'velocities_arr_5'
p673
I0
sS'velocities_arr_6'
p674
I0
sS'velocities_arr_1'
p675
F0.58
sS'velocities_arr_8'
p676
I0
sS'velocities_arr_9'
p677
I0
sg62
I116
sg80
I185
sS'velocities_arr_7'
p678
I0
sS'category_exercise_name_12'
p679
I0
sS'category_exercise_name_13'
p680
I0
sS'category_exercise_name_10'
p681
I0
sS'category_exercise_name_11'
p682
I0
sS'velocities_arr_10'
p683
I0
sg60
I5
sg87
I5
sS'category_exercise_name_0'
p684
I0
sS'category_exercise_name_1'
p685
I0
sS'category_exercise_name_2'
p686
I1
sS'category_exercise_name_3'
p687
I0
sS'category_exercise_name_4'
p688
I0
sS'category_exercise_name_5'
p689
I0
sS'category_exercise_name_6'
p690
I0
sS'category_exercise_name_7'
p691
I0
sS'category_exercise_name_8'
p692
I0
sS'category_exercise_name_9'
p693
I0
sg98
I3
sg63
I0
sg99
I0
sS'velocities_arr_11'
p694
I0
sg67
I0
sg36
F0.0
sa(dp695
g13
I6
sS'velocities_arr_0'
p696
F0.52
sS'velocities_arr_2'
p697
F0.48
sS'velocities_arr_3'
p698
F0.6
sS'velocities_arr_4'
p699
F0.43
sS'velocities_arr_5'
p700
I0
sS'velocities_arr_6'
p701
I0
sS'velocities_arr_1'
p702
F0.6
sS'velocities_arr_8'
p703
I0
sS'velocities_arr_9'
p704
I0
sg62
I129
sg80
I205
sS'velocities_arr_7'
p705
I0
sS'category_exercise_name_12'
p706
I0
sS'category_exercise_name_13'
p707
I0
sS'category_exercise_name_10'
p708
I0
sS'category_exercise_name_11'
p709
I0
sS'velocities_arr_10'
p710
I0
sg60
I5
sg87
I5
sS'category_exercise_name_0'
p711
I0
sS'category_exercise_name_1'
p712
I0
sS'category_exercise_name_2'
p713
I1
sS'category_exercise_name_3'
p714
I0
sS'category_exercise_name_4'
p715
I0
sS'category_exercise_name_5'
p716
I0
sS'category_exercise_name_6'
p717
I0
sS'category_exercise_name_7'
p718
I0
sS'category_exercise_name_8'
p719
I0
sS'category_exercise_name_9'
p720
I0
sg98
I4
sg63
I0
sg99
I0
sS'velocities_arr_11'
p721
I0
sg67
I0
sg36
F0.0
sa(dp722
g13
I6
sS'velocities_arr_0'
p723
I0
sS'velocities_arr_2'
p724
I0
sS'velocities_arr_3'
p725
I0
sS'velocities_arr_4'
p726
I0
sS'velocities_arr_5'
p727
I0
sS'velocities_arr_6'
p728
I0
sS'velocities_arr_1'
p729
I0
sS'velocities_arr_8'
p730
I0
sS'velocities_arr_9'
p731
I0
sg62
I138
sg80
I162
sS'velocities_arr_7'
p732
I0
sS'category_exercise_name_12'
p733
I0
sS'category_exercise_name_13'
p734
I0
sS'category_exercise_name_10'
p735
I0
sS'category_exercise_name_11'
p736
I1
sS'velocities_arr_10'
p737
I0
sg60
I5
sg87
I5
sS'category_exercise_name_0'
p738
I0
sS'category_exercise_name_1'
p739
I0
sS'category_exercise_name_2'
p740
I0
sS'category_exercise_name_3'
p741
I0
sS'category_exercise_name_4'
p742
I0
sS'category_exercise_name_5'
p743
I0
sS'category_exercise_name_6'
p744
I0
sS'category_exercise_name_7'
p745
I0
sS'category_exercise_name_8'
p746
I0
sS'category_exercise_name_9'
p747
I0
sg98
I5
sg63
I0
sg99
I0
sS'velocities_arr_11'
p748
I0
sg67
I0
sg36
F0.0
sa(dp749
g13
I6
sS'velocities_arr_0'
p750
I0
sS'velocities_arr_2'
p751
I0
sS'velocities_arr_3'
p752
I0
sS'velocities_arr_4'
p753
I0
sS'velocities_arr_5'
p754
I0
sS'velocities_arr_6'
p755
I0
sS'velocities_arr_1'
p756
I0
sS'velocities_arr_8'
p757
I0
sS'velocities_arr_9'
p758
I0
sg62
I121
sg80
I162
sS'velocities_arr_7'
p759
I0
sS'category_exercise_name_12'
p760
I0
sS'category_exercise_name_13'
p761
I0
sS'category_exercise_name_10'
p762
I0
sS'category_exercise_name_11'
p763
I1
sS'velocities_arr_10'
p764
I0
sg60
I2
sg87
I2
sS'category_exercise_name_0'
p765
I0
sS'category_exercise_name_1'
p766
I0
sS'category_exercise_name_2'
p767
I0
sS'category_exercise_name_3'
p768
I0
sS'category_exercise_name_4'
p769
I0
sS'category_exercise_name_5'
p770
I0
sS'category_exercise_name_6'
p771
I0
sS'category_exercise_name_7'
p772
I0
sS'category_exercise_name_8'
p773
I0
sS'category_exercise_name_9'
p774
I0
sg98
I6
sg63
I0
sg99
I0
sS'velocities_arr_11'
p775
I0
sg67
I0
sg36
F0.0
sa(dp776
g13
I12
sS'velocities_arr_0'
p777
F1.26
sS'velocities_arr_2'
p778
F0.38
sS'velocities_arr_3'
p779
F0.99
sS'velocities_arr_4'
p780
F0.97
sS'velocities_arr_5'
p781
F1.06
sS'velocities_arr_6'
p782
I0
sS'velocities_arr_1'
p783
F0.52
sS'velocities_arr_8'
p784
I0
sS'velocities_arr_9'
p785
I0
sg62
I94
sg80
I45
sS'velocities_arr_7'
p786
I0
sS'category_exercise_name_12'
p787
I0
sS'category_exercise_name_13'
p788
I0
sS'category_exercise_name_10'
p789
I0
sS'category_exercise_name_11'
p790
I0
sS'velocities_arr_10'
p791
I0
sg60
I6
sg87
I6
sS'category_exercise_name_0'
p792
I0
sS'category_exercise_name_1'
p793
I0
sS'category_exercise_name_2'
p794
I1
sS'category_exercise_name_3'
p795
I0
sS'category_exercise_name_4'
p796
I0
sS'category_exercise_name_5'
p797
I0
sS'category_exercise_name_6'
p798
I0
sS'category_exercise_name_7'
p799
I0
sS'category_exercise_name_8'
p800
I0
sS'category_exercise_name_9'
p801
I0
sg98
I0
sg63
I0
sg99
I0
sS'velocities_arr_11'
p802
I0
sg67
I0
sg36
F6.0
sa(dp803
g13
I12
sS'velocities_arr_0'
p804
F0.47
sS'velocities_arr_2'
p805
F0.56
sS'velocities_arr_3'
p806
F0.98
sS'velocities_arr_4'
p807
F0.98
sS'velocities_arr_5'
p808
F0.92
sS'velocities_arr_6'
p809
I0
sS'velocities_arr_1'
p810
F1.03
sS'velocities_arr_8'
p811
I0
sS'velocities_arr_9'
p812
I0
sg62
I99
sg80
I55
sS'velocities_arr_7'
p813
I0
sS'category_exercise_name_12'
p814
I0
sS'category_exercise_name_13'
p815
I0
sS'category_exercise_name_10'
p816
I0
sS'category_exercise_name_11'
p817
I0
sS'velocities_arr_10'
p818
I0
sg60
I6
sg87
I6
sS'category_exercise_name_0'
p819
I0
sS'category_exercise_name_1'
p820
I0
sS'category_exercise_name_2'
p821
I1
sS'category_exercise_name_3'
p822
I0
sS'category_exercise_name_4'
p823
I0
sS'category_exercise_name_5'
p824
I0
sS'category_exercise_name_6'
p825
I0
sS'category_exercise_name_7'
p826
I0
sS'category_exercise_name_8'
p827
I0
sS'category_exercise_name_9'
p828
I0
sg98
I1
sg63
I0
sg99
I0
sS'velocities_arr_11'
p829
I0
sg67
I0
sg36
F6.0
sa(dp830
g13
I12
sS'velocities_arr_0'
p831
F1.01
sS'velocities_arr_2'
p832
F0.89
sS'velocities_arr_3'
p833
I0
sS'velocities_arr_4'
p834
I0
sS'velocities_arr_5'
p835
I0
sS'velocities_arr_6'
p836
I0
sS'velocities_arr_1'
p837
F0.94
sS'velocities_arr_8'
p838
I0
sS'velocities_arr_9'
p839
I0
sg62
I105
sg80
I55
sS'velocities_arr_7'
p840
I0
sS'category_exercise_name_12'
p841
I0
sS'category_exercise_name_13'
p842
I0
sS'category_exercise_name_10'
p843
I0
sS'category_exercise_name_11'
p844
I0
sS'velocities_arr_10'
p845
I0
sg60
I3
sg87
I3
sS'category_exercise_name_0'
p846
I0
sS'category_exercise_name_1'
p847
I0
sS'category_exercise_name_2'
p848
I1
sS'category_exercise_name_3'
p849
I0
sS'category_exercise_name_4'
p850
I0
sS'category_exercise_name_5'
p851
I0
sS'category_exercise_name_6'
p852
I0
sS'category_exercise_name_7'
p853
I0
sS'category_exercise_name_8'
p854
I0
sS'category_exercise_name_9'
p855
I0
sg98
I2
sg63
I0
sg99
I0
sS'velocities_arr_11'
p856
I0
sg67
I0
sg36
F6.0
sa(dp857
g13
I12
sS'velocities_arr_0'
p858
F1.07
sS'velocities_arr_2'
p859
F0.45
sS'velocities_arr_3'
p860
F0.97
sS'velocities_arr_4'
p861
F0.89
sS'velocities_arr_5'
p862
F0.87
sS'velocities_arr_6'
p863
I0
sS'velocities_arr_1'
p864
F0.42
sS'velocities_arr_8'
p865
I0
sS'velocities_arr_9'
p866
I0
sg62
I105
sg80
I60
sS'velocities_arr_7'
p867
I0
sS'category_exercise_name_12'
p868
I0
sS'category_exercise_name_13'
p869
I0
sS'category_exercise_name_10'
p870
I0
sS'category_exercise_name_11'
p871
I0
sS'velocities_arr_10'
p872
I0
sg60
I6
sg87
I6
sS'category_exercise_name_0'
p873
I0
sS'category_exercise_name_1'
p874
I0
sS'category_exercise_name_2'
p875
I1
sS'category_exercise_name_3'
p876
I0
sS'category_exercise_name_4'
p877
I0
sS'category_exercise_name_5'
p878
I0
sS'category_exercise_name_6'
p879
I0
sS'category_exercise_name_7'
p880
I0
sS'category_exercise_name_8'
p881
I0
sS'category_exercise_name_9'
p882
I0
sg98
I3
sg63
I0
sg99
I0
sS'velocities_arr_11'
p883
I0
sg67
I0
sg36
F6.0
sa(dp884
g13
I12
sS'velocities_arr_0'
p885
F0.85
sS'velocities_arr_2'
p886
F0.7
sS'velocities_arr_3'
p887
F0.66
sS'velocities_arr_4'
p888
F0.64
sS'velocities_arr_5'
p889
F0.58
sS'velocities_arr_6'
p890
I0
sS'velocities_arr_1'
p891
F0.73
sS'velocities_arr_8'
p892
I0
sS'velocities_arr_9'
p893
I0
sg62
I119
sg80
I150
sS'velocities_arr_7'
p894
I0
sS'category_exercise_name_12'
p895
I0
sS'category_exercise_name_13'
p896
I0
sS'category_exercise_name_10'
p897
I0
sS'category_exercise_name_11'
p898
I0
sS'velocities_arr_10'
p899
I0
sg60
I6
sg87
I6
sS'category_exercise_name_0'
p900
I0
sS'category_exercise_name_1'
p901
I0
sS'category_exercise_name_2'
p902
I1
sS'category_exercise_name_3'
p903
I0
sS'category_exercise_name_4'
p904
I0
sS'category_exercise_name_5'
p905
I0
sS'category_exercise_name_6'
p906
I0
sS'category_exercise_name_7'
p907
I0
sS'category_exercise_name_8'
p908
I0
sS'category_exercise_name_9'
p909
I0
sg98
I4
sg63
I0
sg99
I0
sS'velocities_arr_11'
p910
I0
sg67
I0
sg36
F6.0
sa(dp911
g13
I12
sS'velocities_arr_0'
p912
F0.94
sS'velocities_arr_2'
p913
F0.38
sS'velocities_arr_3'
p914
I0
sS'velocities_arr_4'
p915
I0
sS'velocities_arr_5'
p916
I0
sS'velocities_arr_6'
p917
I0
sS'velocities_arr_1'
p918
F0.41
sS'velocities_arr_8'
p919
I0
sS'velocities_arr_9'
p920
I0
sg62
I131
sg80
I240
sS'velocities_arr_7'
p921
I0
sS'category_exercise_name_12'
p922
I0
sS'category_exercise_name_13'
p923
I0
sS'category_exercise_name_10'
p924
I0
sS'category_exercise_name_11'
p925
I0
sS'velocities_arr_10'
p926
I0
sg60
I3
sg87
I6
sS'category_exercise_name_0'
p927
I0
sS'category_exercise_name_1'
p928
I0
sS'category_exercise_name_2'
p929
I1
sS'category_exercise_name_3'
p930
I0
sS'category_exercise_name_4'
p931
I0
sS'category_exercise_name_5'
p932
I0
sS'category_exercise_name_6'
p933
I0
sS'category_exercise_name_7'
p934
I0
sS'category_exercise_name_8'
p935
I0
sS'category_exercise_name_9'
p936
I0
sg98
I5
sg63
I0
sg99
I0
sS'velocities_arr_11'
p937
I0
sg67
I0
sg36
F6.0
sa(dp938
g13
I12
sS'velocities_arr_0'
p939
F0.44
sS'velocities_arr_2'
p940
F0.4
sS'velocities_arr_3'
p941
I0
sS'velocities_arr_4'
p942
I0
sS'velocities_arr_5'
p943
I0
sS'velocities_arr_6'
p944
I0
sS'velocities_arr_1'
p945
F0.4
sS'velocities_arr_8'
p946
I0
sS'velocities_arr_9'
p947
I0
sg62
I132
sg80
I240
sS'velocities_arr_7'
p948
I0
sS'category_exercise_name_12'
p949
I0
sS'category_exercise_name_13'
p950
I0
sS'category_exercise_name_10'
p951
I0
sS'category_exercise_name_11'
p952
I0
sS'velocities_arr_10'
p953
I0
sg60
I3
sg87
I6
sS'category_exercise_name_0'
p954
I0
sS'category_exercise_name_1'
p955
I0
sS'category_exercise_name_2'
p956
I1
sS'category_exercise_name_3'
p957
I0
sS'category_exercise_name_4'
p958
I0
sS'category_exercise_name_5'
p959
I0
sS'category_exercise_name_6'
p960
I0
sS'category_exercise_name_7'
p961
I0
sS'category_exercise_name_8'
p962
I0
sS'category_exercise_name_9'
p963
I0
sg98
I6
sg63
I0
sg99
I0
sS'velocities_arr_11'
p964
I0
sg67
I0
sg36
F6.0
sa(dp965
g13
I12
sS'velocities_arr_0'
p966
F0.0
sS'velocities_arr_2'
p967
I0
sS'velocities_arr_3'
p968
I0
sS'velocities_arr_4'
p969
I0
sS'velocities_arr_5'
p970
I0
sS'velocities_arr_6'
p971
I0
sS'velocities_arr_1'
p972
I0
sS'velocities_arr_8'
p973
I0
sS'velocities_arr_9'
p974
I0
sg62
I132
sg80
I290
sS'velocities_arr_7'
p975
I0
sS'category_exercise_name_12'
p976
I0
sS'category_exercise_name_13'
p977
I0
sS'category_exercise_name_10'
p978
I0
sS'category_exercise_name_11'
p979
I0
sS'velocities_arr_10'
p980
I0
sg60
I0
sg87
I6
sS'category_exercise_name_0'
p981
I0
sS'category_exercise_name_1'
p982
I0
sS'category_exercise_name_2'
p983
I1
sS'category_exercise_name_3'
p984
I0
sS'category_exercise_name_4'
p985
I0
sS'category_exercise_name_5'
p986
I0
sS'category_exercise_name_6'
p987
I0
sS'category_exercise_name_7'
p988
I0
sS'category_exercise_name_8'
p989
I0
sS'category_exercise_name_9'
p990
I0
sg98
I7
sg63
I1
sg99
I0
sS'velocities_arr_11'
p991
I0
sg67
I0
sg36
F6.0
sa(dp992
g13
I12
sS'velocities_arr_0'
p993
F0.58
sS'velocities_arr_2'
p994
F0.5
sS'velocities_arr_3'
p995
F0.47
sS'velocities_arr_4'
p996
F0.43
sS'velocities_arr_5'
p997
F0.84
sS'velocities_arr_6'
p998
I0
sS'velocities_arr_1'
p999
F0.56
sS'velocities_arr_8'
p1000
I0
sS'velocities_arr_9'
p1001
I0
sg62
I140
sg80
I200
sS'velocities_arr_7'
p1002
I0
sS'category_exercise_name_12'
p1003
I0
sS'category_exercise_name_13'
p1004
I0
sS'category_exercise_name_10'
p1005
I0
sS'category_exercise_name_11'
p1006
I0
sS'velocities_arr_10'
p1007
I0
sg60
I6
sg87
I6
sS'category_exercise_name_0'
p1008
I0
sS'category_exercise_name_1'
p1009
I0
sS'category_exercise_name_2'
p1010
I1
sS'category_exercise_name_3'
p1011
I0
sS'category_exercise_name_4'
p1012
I0
sS'category_exercise_name_5'
p1013
I0
sS'category_exercise_name_6'
p1014
I0
sS'category_exercise_name_7'
p1015
I0
sS'category_exercise_name_8'
p1016
I0
sS'category_exercise_name_9'
p1017
I0
sg98
I8
sg63
I0
sg99
I0
sS'velocities_arr_11'
p1018
I0
sg67
I0
sg36
F6.0
sa(dp1019
g13
I12
sS'velocities_arr_0'
p1020
F0.53
sS'velocities_arr_2'
p1021
F0.42
sS'velocities_arr_3'
p1022
F0.39
sS'velocities_arr_4'
p1023
I0
sS'velocities_arr_5'
p1024
I0
sS'velocities_arr_6'
p1025
I0
sS'velocities_arr_1'
p1026
F0.48
sS'velocities_arr_8'
p1027
I0
sS'velocities_arr_9'
p1028
I0
sg62
I139
sg80
I200
sS'velocities_arr_7'
p1029
I0
sS'category_exercise_name_12'
p1030
I0
sS'category_exercise_name_13'
p1031
I0
sS'category_exercise_name_10'
p1032
I0
sS'category_exercise_name_11'
p1033
I0
sS'velocities_arr_10'
p1034
I0
sg60
I4
sg87
I4
sS'category_exercise_name_0'
p1035
I0
sS'category_exercise_name_1'
p1036
I0
sS'category_exercise_name_2'
p1037
I1
sS'category_exercise_name_3'
p1038
I0
sS'category_exercise_name_4'
p1039
I0
sS'category_exercise_name_5'
p1040
I0
sS'category_exercise_name_6'
p1041
I0
sS'category_exercise_name_7'
p1042
I0
sS'category_exercise_name_8'
p1043
I0
sS'category_exercise_name_9'
p1044
I0
sg98
I9
sg63
I0
sg99
I0
sS'velocities_arr_11'
p1045
I0
sg67
I0
sg36
F6.0
sa(dp1046
g13
I12
sS'velocities_arr_0'
p1047
F0.58
sS'velocities_arr_2'
p1048
F0.5
sS'velocities_arr_3'
p1049
F0.47
sS'velocities_arr_4'
p1050
F0.43
sS'velocities_arr_5'
p1051
F0.84
sS'velocities_arr_6'
p1052
I0
sS'velocities_arr_1'
p1053
F0.56
sS'velocities_arr_8'
p1054
I0
sS'velocities_arr_9'
p1055
I0
sg62
I140
sg80
I200
sS'velocities_arr_7'
p1056
I0
sS'category_exercise_name_12'
p1057
I0
sS'category_exercise_name_13'
p1058
I0
sS'category_exercise_name_10'
p1059
I0
sS'category_exercise_name_11'
p1060
I0
sS'velocities_arr_10'
p1061
I0
sg60
I6
sg87
I6
sS'category_exercise_name_0'
p1062
I0
sS'category_exercise_name_1'
p1063
I0
sS'category_exercise_name_2'
p1064
I1
sS'category_exercise_name_3'
p1065
I0
sS'category_exercise_name_4'
p1066
I0
sS'category_exercise_name_5'
p1067
I0
sS'category_exercise_name_6'
p1068
I0
sS'category_exercise_name_7'
p1069
I0
sS'category_exercise_name_8'
p1070
I0
sS'category_exercise_name_9'
p1071
I0
sg98
I10
sg63
I0
sg99
I0
sS'velocities_arr_11'
p1072
I0
sg67
I0
sg36
F6.0
sa(dp1073
g13
I12
sS'velocities_arr_0'
p1074
F0.0
sS'velocities_arr_2'
p1075
I0
sS'velocities_arr_3'
p1076
I0
sS'velocities_arr_4'
p1077
I0
sS'velocities_arr_5'
p1078
I0
sS'velocities_arr_6'
p1079
I0
sS'velocities_arr_1'
p1080
I0
sS'velocities_arr_8'
p1081
I0
sS'velocities_arr_9'
p1082
I0
sg62
I140
sg80
I290
sS'velocities_arr_7'
p1083
I0
sS'category_exercise_name_12'
p1084
I0
sS'category_exercise_name_13'
p1085
I0
sS'category_exercise_name_10'
p1086
I0
sS'category_exercise_name_11'
p1087
I0
sS'velocities_arr_10'
p1088
I0
sg60
I0
sg87
I6
sS'category_exercise_name_0'
p1089
I0
sS'category_exercise_name_1'
p1090
I0
sS'category_exercise_name_2'
p1091
I1
sS'category_exercise_name_3'
p1092
I0
sS'category_exercise_name_4'
p1093
I0
sS'category_exercise_name_5'
p1094
I0
sS'category_exercise_name_6'
p1095
I0
sS'category_exercise_name_7'
p1096
I0
sS'category_exercise_name_8'
p1097
I0
sS'category_exercise_name_9'
p1098
I0
sg98
I11
sg63
I1
sg99
I0
sS'velocities_arr_11'
p1099
I0
sg67
I0
sg36
F6.0
sa(dp1100
g13
I12
sS'velocities_arr_0'
p1101
F0.0
sS'velocities_arr_2'
p1102
I0
sS'velocities_arr_3'
p1103
I0
sS'velocities_arr_4'
p1104
I0
sS'velocities_arr_5'
p1105
I0
sS'velocities_arr_6'
p1106
I0
sS'velocities_arr_1'
p1107
I0
sS'velocities_arr_8'
p1108
I0
sS'velocities_arr_9'
p1109
I0
sg62
I140
sg80
I290
sS'velocities_arr_7'
p1110
I0
sS'category_exercise_name_12'
p1111
I0
sS'category_exercise_name_13'
p1112
I0
sS'category_exercise_name_10'
p1113
I0
sS'category_exercise_name_11'
p1114
I0
sS'velocities_arr_10'
p1115
I0
sg60
I0
sg87
I3
sS'category_exercise_name_0'
p1116
I0
sS'category_exercise_name_1'
p1117
I0
sS'category_exercise_name_2'
p1118
I1
sS'category_exercise_name_3'
p1119
I0
sS'category_exercise_name_4'
p1120
I0
sS'category_exercise_name_5'
p1121
I0
sS'category_exercise_name_6'
p1122
I0
sS'category_exercise_name_7'
p1123
I0
sS'category_exercise_name_8'
p1124
I0
sS'category_exercise_name_9'
p1125
I0
sg98
I12
sg63
I1
sg99
I0
sS'velocities_arr_11'
p1126
I0
sg67
I0
sg36
F6.0
sa(dp1127
g13
I12
sS'velocities_arr_0'
p1128
F0.0
sS'velocities_arr_2'
p1129
I0
sS'velocities_arr_3'
p1130
I0
sS'velocities_arr_4'
p1131
I0
sS'velocities_arr_5'
p1132
I0
sS'velocities_arr_6'
p1133
I0
sS'velocities_arr_1'
p1134
I0
sS'velocities_arr_8'
p1135
I0
sS'velocities_arr_9'
p1136
I0
sg62
I140
sg80
I380
sS'velocities_arr_7'
p1137
I0
sS'category_exercise_name_12'
p1138
I0
sS'category_exercise_name_13'
p1139
I0
sS'category_exercise_name_10'
p1140
I0
sS'category_exercise_name_11'
p1141
I0
sS'velocities_arr_10'
p1142
I0
sg60
I0
sg87
I6
sS'category_exercise_name_0'
p1143
I0
sS'category_exercise_name_1'
p1144
I0
sS'category_exercise_name_2'
p1145
I1
sS'category_exercise_name_3'
p1146
I0
sS'category_exercise_name_4'
p1147
I0
sS'category_exercise_name_5'
p1148
I0
sS'category_exercise_name_6'
p1149
I0
sS'category_exercise_name_7'
p1150
I0
sS'category_exercise_name_8'
p1151
I0
sS'category_exercise_name_9'
p1152
I0
sg98
I13
sg63
I1
sg99
I0
sS'velocities_arr_11'
p1153
I0
sg67
I0
sg36
F6.0
sa(dp1154
g13
I12
sS'velocities_arr_0'
p1155
F0.0
sS'velocities_arr_2'
p1156
I0
sS'velocities_arr_3'
p1157
I0
sS'velocities_arr_4'
p1158
I0
sS'velocities_arr_5'
p1159
I0
sS'velocities_arr_6'
p1160
I0
sS'velocities_arr_1'
p1161
I0
sS'velocities_arr_8'
p1162
I0
sS'velocities_arr_9'
p1163
I0
sg62
I140
sg80
I430
sS'velocities_arr_7'
p1164
I0
sS'category_exercise_name_12'
p1165
I0
sS'category_exercise_name_13'
p1166
I0
sS'category_exercise_name_10'
p1167
I0
sS'category_exercise_name_11'
p1168
I0
sS'velocities_arr_10'
p1169
I0
sg60
I0
sg87
I6
sS'category_exercise_name_0'
p1170
I0
sS'category_exercise_name_1'
p1171
I0
sS'category_exercise_name_2'
p1172
I1
sS'category_exercise_name_3'
p1173
I0
sS'category_exercise_name_4'
p1174
I0
sS'category_exercise_name_5'
p1175
I0
sS'category_exercise_name_6'
p1176
I0
sS'category_exercise_name_7'
p1177
I0
sS'category_exercise_name_8'
p1178
I0
sS'category_exercise_name_9'
p1179
I0
sg98
I14
sg63
I1
sg99
I0
sS'velocities_arr_11'
p1180
I0
sg67
I0
sg36
F6.0
sa(dp1181
g13
I12
sS'velocities_arr_0'
p1182
F0.0
sS'velocities_arr_2'
p1183
I0
sS'velocities_arr_3'
p1184
I0
sS'velocities_arr_4'
p1185
I0
sS'velocities_arr_5'
p1186
I0
sS'velocities_arr_6'
p1187
I0
sS'velocities_arr_1'
p1188
I0
sS'velocities_arr_8'
p1189
I0
sS'velocities_arr_9'
p1190
I0
sg62
I140
sg80
I430
sS'velocities_arr_7'
p1191
I0
sS'category_exercise_name_12'
p1192
I0
sS'category_exercise_name_13'
p1193
I0
sS'category_exercise_name_10'
p1194
I0
sS'category_exercise_name_11'
p1195
I0
sS'velocities_arr_10'
p1196
I0
sg60
I0
sg87
I6
sS'category_exercise_name_0'
p1197
I0
sS'category_exercise_name_1'
p1198
I0
sS'category_exercise_name_2'
p1199
I1
sS'category_exercise_name_3'
p1200
I0
sS'category_exercise_name_4'
p1201
I0
sS'category_exercise_name_5'
p1202
I0
sS'category_exercise_name_6'
p1203
I0
sS'category_exercise_name_7'
p1204
I0
sS'category_exercise_name_8'
p1205
I0
sS'category_exercise_name_9'
p1206
I0
sg98
I15
sg63
I1
sg99
I0
sS'velocities_arr_11'
p1207
I0
sg67
I0
sg36
F6.0
sa(dp1208
g13
I12
sS'velocities_arr_0'
p1209
F0.0
sS'velocities_arr_2'
p1210
I0
sS'velocities_arr_3'
p1211
I0
sS'velocities_arr_4'
p1212
I0
sS'velocities_arr_5'
p1213
I0
sS'velocities_arr_6'
p1214
I0
sS'velocities_arr_1'
p1215
I0
sS'velocities_arr_8'
p1216
I0
sS'velocities_arr_9'
p1217
I0
sg62
I140
sg80
I430
sS'velocities_arr_7'
p1218
I0
sS'category_exercise_name_12'
p1219
I0
sS'category_exercise_name_13'
p1220
I0
sS'category_exercise_name_10'
p1221
I0
sS'category_exercise_name_11'
p1222
I0
sS'velocities_arr_10'
p1223
I0
sg60
I0
sg87
I3
sS'category_exercise_name_0'
p1224
I0
sS'category_exercise_name_1'
p1225
I0
sS'category_exercise_name_2'
p1226
I1
sS'category_exercise_name_3'
p1227
I0
sS'category_exercise_name_4'
p1228
I0
sS'category_exercise_name_5'
p1229
I0
sS'category_exercise_name_6'
p1230
I0
sS'category_exercise_name_7'
p1231
I0
sS'category_exercise_name_8'
p1232
I0
sS'category_exercise_name_9'
p1233
I0
sg98
I16
sg63
I1
sg99
I0
sS'velocities_arr_11'
p1234
I0
sg67
I0
sg36
F6.0
sa(dp1235
g13
I12
sS'velocities_arr_0'
p1236
F0.0
sS'velocities_arr_2'
p1237
I0
sS'velocities_arr_3'
p1238
I0
sS'velocities_arr_4'
p1239
I0
sS'velocities_arr_5'
p1240
I0
sS'velocities_arr_6'
p1241
I0
sS'velocities_arr_1'
p1242
I0
sS'velocities_arr_8'
p1243
I0
sS'velocities_arr_9'
p1244
I0
sg62
I140
sg80
I430
sS'velocities_arr_7'
p1245
I0
sS'category_exercise_name_12'
p1246
I0
sS'category_exercise_name_13'
p1247
I0
sS'category_exercise_name_10'
p1248
I0
sS'category_exercise_name_11'
p1249
I0
sS'velocities_arr_10'
p1250
I0
sg60
I0
sg87
I4
sS'category_exercise_name_0'
p1251
I0
sS'category_exercise_name_1'
p1252
I0
sS'category_exercise_name_2'
p1253
I1
sS'category_exercise_name_3'
p1254
I0
sS'category_exercise_name_4'
p1255
I0
sS'category_exercise_name_5'
p1256
I0
sS'category_exercise_name_6'
p1257
I0
sS'category_exercise_name_7'
p1258
I0
sS'category_exercise_name_8'
p1259
I0
sS'category_exercise_name_9'
p1260
I0
sg98
I17
sg63
I1
sg99
I0
sS'velocities_arr_11'
p1261
I0
sg67
I0
sg36
F6.0
sa(dp1262
g13
I12
sS'velocities_arr_0'
p1263
F0.0
sS'velocities_arr_2'
p1264
I0
sS'velocities_arr_3'
p1265
I0
sS'velocities_arr_4'
p1266
I0
sS'velocities_arr_5'
p1267
I0
sS'velocities_arr_6'
p1268
I0
sS'velocities_arr_1'
p1269
I0
sS'velocities_arr_8'
p1270
I0
sS'velocities_arr_9'
p1271
I0
sg62
I140
sg80
I430
sS'velocities_arr_7'
p1272
I0
sS'category_exercise_name_12'
p1273
I0
sS'category_exercise_name_13'
p1274
I0
sS'category_exercise_name_10'
p1275
I0
sS'category_exercise_name_11'
p1276
I0
sS'velocities_arr_10'
p1277
I0
sg60
I0
sg87
I4
sS'category_exercise_name_0'
p1278
I0
sS'category_exercise_name_1'
p1279
I0
sS'category_exercise_name_2'
p1280
I1
sS'category_exercise_name_3'
p1281
I0
sS'category_exercise_name_4'
p1282
I0
sS'category_exercise_name_5'
p1283
I0
sS'category_exercise_name_6'
p1284
I0
sS'category_exercise_name_7'
p1285
I0
sS'category_exercise_name_8'
p1286
I0
sS'category_exercise_name_9'
p1287
I0
sg98
I18
sg63
I1
sg99
I0
sS'velocities_arr_11'
p1288
I0
sg67
I0
sg36
F6.0
sa(dp1289
g13
I12
sS'velocities_arr_0'
p1290
F0.0
sS'velocities_arr_2'
p1291
I0
sS'velocities_arr_3'
p1292
I0
sS'velocities_arr_4'
p1293
I0
sS'velocities_arr_5'
p1294
I0
sS'velocities_arr_6'
p1295
I0
sS'velocities_arr_1'
p1296
I0
sS'velocities_arr_8'
p1297
I0
sS'velocities_arr_9'
p1298
I0
sg62
I140
sg80
I435
sS'velocities_arr_7'
p1299
I0
sS'category_exercise_name_12'
p1300
I0
sS'category_exercise_name_13'
p1301
I0
sS'category_exercise_name_10'
p1302
I0
sS'category_exercise_name_11'
p1303
I0
sS'velocities_arr_10'
p1304
I0
sg60
I0
sg87
I6
sS'category_exercise_name_0'
p1305
I0
sS'category_exercise_name_1'
p1306
I0
sS'category_exercise_name_2'
p1307
I1
sS'category_exercise_name_3'
p1308
I0
sS'category_exercise_name_4'
p1309
I0
sS'category_exercise_name_5'
p1310
I0
sS'category_exercise_name_6'
p1311
I0
sS'category_exercise_name_7'
p1312
I0
sS'category_exercise_name_8'
p1313
I0
sS'category_exercise_name_9'
p1314
I0
sg98
I19
sg63
I1
sg99
I0
sS'velocities_arr_11'
p1315
I0
sg67
I0
sg36
F6.0
sa(dp1316
g13
I12
sS'velocities_arr_0'
p1317
F0.0
sS'velocities_arr_2'
p1318
I0
sS'velocities_arr_3'
p1319
I0
sS'velocities_arr_4'
p1320
I0
sS'velocities_arr_5'
p1321
I0
sS'velocities_arr_6'
p1322
I0
sS'velocities_arr_1'
p1323
I0
sS'velocities_arr_8'
p1324
I0
sS'velocities_arr_9'
p1325
I0
sg62
I140
sg80
I435
sS'velocities_arr_7'
p1326
I0
sS'category_exercise_name_12'
p1327
I0
sS'category_exercise_name_13'
p1328
I0
sS'category_exercise_name_10'
p1329
I0
sS'category_exercise_name_11'
p1330
I0
sS'velocities_arr_10'
p1331
I0
sg60
I0
sg87
I4
sS'category_exercise_name_0'
p1332
I0
sS'category_exercise_name_1'
p1333
I0
sS'category_exercise_name_2'
p1334
I1
sS'category_exercise_name_3'
p1335
I0
sS'category_exercise_name_4'
p1336
I0
sS'category_exercise_name_5'
p1337
I0
sS'category_exercise_name_6'
p1338
I0
sS'category_exercise_name_7'
p1339
I0
sS'category_exercise_name_8'
p1340
I0
sS'category_exercise_name_9'
p1341
I0
sg98
I20
sg63
I1
sg99
I0
sS'velocities_arr_11'
p1342
I0
sg67
I0
sg36
F6.0
sa(dp1343
g13
I12
sS'velocities_arr_0'
p1344
F0.0
sS'velocities_arr_2'
p1345
I0
sS'velocities_arr_3'
p1346
I0
sS'velocities_arr_4'
p1347
I0
sS'velocities_arr_5'
p1348
I0
sS'velocities_arr_6'
p1349
I0
sS'velocities_arr_1'
p1350
I0
sS'velocities_arr_8'
p1351
I0
sS'velocities_arr_9'
p1352
I0
sg62
I140
sg80
I435
sS'velocities_arr_7'
p1353
I0
sS'category_exercise_name_12'
p1354
I0
sS'category_exercise_name_13'
p1355
I0
sS'category_exercise_name_10'
p1356
I0
sS'category_exercise_name_11'
p1357
I0
sS'velocities_arr_10'
p1358
I0
sg60
I0
sg87
I4
sS'category_exercise_name_0'
p1359
I0
sS'category_exercise_name_1'
p1360
I0
sS'category_exercise_name_2'
p1361
I1
sS'category_exercise_name_3'
p1362
I0
sS'category_exercise_name_4'
p1363
I0
sS'category_exercise_name_5'
p1364
I0
sS'category_exercise_name_6'
p1365
I0
sS'category_exercise_name_7'
p1366
I0
sS'category_exercise_name_8'
p1367
I0
sS'category_exercise_name_9'
p1368
I0
sg98
I21
sg63
I1
sg99
I0
sS'velocities_arr_11'
p1369
I0
sg67
I0
sg36
F6.0
sa(dp1370
g13
I12
sS'velocities_arr_0'
p1371
F0.0
sS'velocities_arr_2'
p1372
I0
sS'velocities_arr_3'
p1373
I0
sS'velocities_arr_4'
p1374
I0
sS'velocities_arr_5'
p1375
I0
sS'velocities_arr_6'
p1376
I0
sS'velocities_arr_1'
p1377
I0
sS'velocities_arr_8'
p1378
I0
sS'velocities_arr_9'
p1379
I0
sg62
I140
sg80
I445
sS'velocities_arr_7'
p1380
I0
sS'category_exercise_name_12'
p1381
I0
sS'category_exercise_name_13'
p1382
I0
sS'category_exercise_name_10'
p1383
I0
sS'category_exercise_name_11'
p1384
I0
sS'velocities_arr_10'
p1385
I0
sg60
I0
sg87
I6
sS'category_exercise_name_0'
p1386
I0
sS'category_exercise_name_1'
p1387
I0
sS'category_exercise_name_2'
p1388
I1
sS'category_exercise_name_3'
p1389
I0
sS'category_exercise_name_4'
p1390
I0
sS'category_exercise_name_5'
p1391
I0
sS'category_exercise_name_6'
p1392
I0
sS'category_exercise_name_7'
p1393
I0
sS'category_exercise_name_8'
p1394
I0
sS'category_exercise_name_9'
p1395
I0
sg98
I22
sg63
I1
sg99
I0
sS'velocities_arr_11'
p1396
I0
sg67
I0
sg36
F6.0
sa(dp1397
g13
I12
sS'velocities_arr_0'
p1398
F0.0
sS'velocities_arr_2'
p1399
I0
sS'velocities_arr_3'
p1400
I0
sS'velocities_arr_4'
p1401
I0
sS'velocities_arr_5'
p1402
I0
sS'velocities_arr_6'
p1403
I0
sS'velocities_arr_1'
p1404
I0
sS'velocities_arr_8'
p1405
I0
sS'velocities_arr_9'
p1406
I0
sg62
I140
sg80
I395
sS'velocities_arr_7'
p1407
I0
sS'category_exercise_name_12'
p1408
I0
sS'category_exercise_name_13'
p1409
I0
sS'category_exercise_name_10'
p1410
I0
sS'category_exercise_name_11'
p1411
I0
sS'velocities_arr_10'
p1412
I0
sg60
I0
sg87
I6
sS'category_exercise_name_0'
p1413
I0
sS'category_exercise_name_1'
p1414
I0
sS'category_exercise_name_2'
p1415
I1
sS'category_exercise_name_3'
p1416
I0
sS'category_exercise_name_4'
p1417
I0
sS'category_exercise_name_5'
p1418
I0
sS'category_exercise_name_6'
p1419
I0
sS'category_exercise_name_7'
p1420
I0
sS'category_exercise_name_8'
p1421
I0
sS'category_exercise_name_9'
p1422
I0
sg98
I23
sg63
I1
sg99
I0
sS'velocities_arr_11'
p1423
I0
sg67
I0
sg36
F6.0
sa(dp1424
g13
I12
sg71
I0
sg72
I0
sg73
I0
sg74
I0
sg75
I0
sg76
I0
sg77
I0
sg78
I0
sg79
I0
sg62
I-1
sg80
I45
sg81
I0
sg82
I0
sg83
I0
sg84
I0
sg85
I0
sg60
I-1
sg87
I6
sg88
I0
sg89
I0
sg90
I0
sg91
I1
sg92
I0
sg93
I0
sg94
I0
sg95
I0
sg96
I0
sg97
I0
sg98
I24
sg63
I-1
sg86
I0
sg99
I0
sg100
I0
sg67
I-1
sg36
F6.0
sas.