(dp0
S'userx'
p1
(dp2
S'wrist_width_inches'
p3
I7
sS'height_inches'
p4
F70.0
sS'harris_benedict_bmr'
p5
I-1
sS'genetically_gifted'
p6
I0
sS'years_old'
p7
I31
sS'ankle_width_inches'
p8
I9
sS'sex_is_male'
p9
I1
ssS'dayseriesx'
p10
(lp11
(dp12
S'day_number'
p13
I-1
sS'sleeptime_awake_hrs'
p14
I-1
sS'withings_body_water_percent'
p15
I-1
sS'heart_rate_variability_rmssd'
p16
I-1
sS'sleeptime_deep_rem_hrs'
p17
I-1
sS'withings_body_fat_percent'
p18
I-1
sS'withings_weight_lbs'
p19
I-1
sS'sleeptime_efficiency_percent'
p20
I-1
sS'post_day_calories_in'
p21
I-1
sS'post_day_fat_g'
p22
I-1
sS'sleeptime_bed_time_ampm_index'
p23
I-1
sS'withings_muscle_mass_percent'
p24
I-1
sS'days_since_last_recorded_day'
p25
I-1
sS'sleeptime_alarm_ring_ampm_index'
p26
I-1
sS'withings_bone_mass_percent'
p27
I-1
sS'sleeptime_snoozed'
p28
I-1
sS'sleeptime_light_sleep_hrs'
p29
I-1
sS'withings_heart_rate_bpm'
p30
I-1
sS'sleeptime_alarm_set_ampm_index'
p31
I-1
sS'post_day_protein_g'
p32
I-1
sS'post_day_wearable_calories_burned'
p33
I-1
sS'withings_pulse_wave_velocity_m_per_s'
p34
I-1
sS'sleeptime_rise_time_ampm_index'
p35
I-1
sS'days_since_last_workout'
p36
I-1
sS'post_day_carbs_g'
p37
I-1
sag12
ag12
ag12
ag12
ag12
ag12
ag12
ag12
ag12
ag12
a(dp38
g13
I0
sg14
F2.05
sg15
F56.3
sg16
I-1
sg17
F2.6666666666666665
sg18
F15.0
sg19
F162.7
sg20
F75.0
sg21
I-1
sg22
I-1
sg23
I1382
sg24
F81.0
sg25
F0.0
sg26
I423
sg27
F4.0
sg28
I3
sg29
F3.5666666666666664
sg30
F81.0
sg31
I425
sg32
I-1
sg33
I-1
sg34
F7.1
sg35
I440
sg36
I0
sg37
I-1
sa(dp39
g13
I1
sg14
F0.7833333333333333
sg15
F56.2
sg16
I-1
sg17
F1.8166666666666667
sg18
F15.1
sg19
F162.3
sg20
F90.0
sg21
I-1
sg22
I-1
sg23
I1397
sg24
F80.8
sg25
F1.0
sg26
I422
sg27
F4.0
sg28
I2
sg29
F5.383333333333334
sg30
F84.0
sg31
I425
sg32
I-1
sg33
I-1
sg34
F7.3
sg35
I438
sg36
F1.0
sg37
I-1
sa(dp40
g13
I2
sg14
F0.38333333333333336
sg15
F55.1
sg16
I-1
sg17
F3.6166666666666667
sg18
F17.1
sg19
F162.0
sg20
F94.0
sg21
I-1
sg22
I-1
sg23
I92
sg24
F78.9
sg25
F1.0
sg26
I1440
sg27
F3.9
sg28
I0
sg29
F3.2333333333333334
sg30
I-1
sg31
I600
sg32
I-1
sg33
I-1
sg34
I-1
sg35
I527
sg36
F2.0
sg37
I-1
sa(dp41
g13
I3
sg14
F0.3333333333333333
sg15
I-1
sg16
I-1
sg17
F2.4333333333333336
sg18
I-1
sg19
I-1
sg20
F96.0
sg21
I-1
sg22
I-1
sg23
I2
sg24
I-1
sg25
F1.0
sg26
I1440
sg27
I-1
sg28
I0
sg29
F5.883333333333333
sg30
I-1
sg31
I600
sg32
I-1
sg33
I-1
sg34
I-1
sg35
I524
sg36
F3.0
sg37
I-1
sa(dp42
g13
I4
sg14
I-1
sg15
F55.3
sg16
I-1
sg17
I-1
sg18
F16.8
sg19
F161.2
sg20
I-1
sg21
I-1
sg22
I-1
sg23
I1440
sg24
F79.2
sg25
F1.0
sg26
I1440
sg27
F4.0
sg28
I-1
sg29
I-1
sg30
F94.0
sg31
I1440
sg32
I-1
sg33
I-1
sg34
F7.3
sg35
I1440
sg36
F4.0
sg37
I-1
sa(dp43
g13
I5
sg14
F0.31666666666666665
sg15
F56.2
sg16
I-1
sg17
F4.833333333333333
sg18
F15.1
sg19
F161.4
sg20
F96.0
sg21
I-1
sg22
I-1
sg23
I1390
sg24
F80.9
sg25
F1.0
sg26
I414
sg27
F4.0
sg28
I4
sg29
F3.0
sg30
F86.0
sg31
I425
sg32
I-1
sg33
I-1
sg34
F7.2
sg35
I440
sg36
F0.0
sg37
I-1
sa(dp44
g13
I6
sg14
F2.283333333333333
sg15
F55.9
sg16
I-1
sg17
F2.45
sg18
F15.7
sg19
F162.2
sg20
F74.0
sg21
I-1
sg22
I-1
sg23
I1344
sg24
F80.3
sg25
F1.0
sg26
I416
sg27
F4.0
sg28
I3
sg29
F4.133333333333334
sg30
F84.0
sg31
I425
sg32
I-1
sg33
I-1
sg34
F7.2
sg35
I437
sg36
F1.0
sg37
I-1
sa(dp45
g13
I7
sg14
F0.2833333333333333
sg15
F56.3
sg16
I-1
sg17
F3.4166666666666665
sg18
F14.9
sg19
F162.2
sg20
F96.0
sg21
I-1
sg22
I-1
sg23
I1322
sg24
F81.1
sg25
F1.0
sg26
I401
sg27
F4.0
sg28
I4
sg29
F5.533333333333333
sg30
F82.0
sg31
I425
sg32
I-1
sg33
I-1
sg34
F7.5
sg35
I437
sg36
F2.0
sg37
I-1
sa(dp46
g13
I8
sg14
F0.9833333333333333
sg15
I-1
sg16
I-1
sg17
F4.433333333333334
sg18
I-1
sg19
I-1
sg20
F88.0
sg21
I-1
sg22
I-1
sg23
I1376
sg24
I-1
sg25
F1.0
sg26
I406
sg27
I-1
sg28
I4
sg29
F2.9166666666666665
sg30
I-1
sg31
I425
sg32
I-1
sg33
I-1
sg34
I-1
sg35
I437
sg36
F3.0
sg37
I-1
sa(dp47
g13
I9
sg14
F1.3
sg15
F55.0
sg16
I-1
sg17
F5.033333333333333
sg18
F17.4
sg19
F162.3
sg20
F85.0
sg21
I-1
sg22
I-1
sg23
I1397
sg24
F78.7
sg25
F1.0
sg26
I1440
sg27
F3.9
sg28
I0
sg29
F2.6333333333333333
sg30
I82
sg31
I610
sg32
I-1
sg33
I-1
sg34
I-1
sg35
I495
sg36
F4.0
sg37
I-1
sa(dp48
g13
I10
sg14
F1.5
sg15
I-1
sg16
I-1
sg17
F3.45
sg18
I-1
sg19
I-1
sg20
F80.0
sg21
I-1
sg22
I-1
sg23
I111
sg24
I-1
sg25
F1.0
sg26
I583
sg27
I-1
sg28
I0
sg29
F2.8833333333333333
sg30
I-1
sg31
I610
sg32
I-1
sg33
I-1
sg34
I-1
sg35
I583
sg36
F5.0
sg37
I-1
sa(dp49
g13
I11
sg14
F1.0666666666666667
sg15
F55.0
sg16
I-1
sg17
F3.75
sg18
F14.6
sg19
F161.8
sg20
F86.0
sg21
I-1
sg22
I-1
sg23
I1396
sg24
F78.7
sg25
F1.0
sg26
I400
sg27
F3.9
sg28
I3
sg29
F3.183333333333333
sg30
I86
sg31
I425
sg32
I-1
sg33
I-1
sg34
F7.7
sg35
I437
sg36
F6.0
sg37
I-1
sa(dp50
g13
I12
sg14
F1.15
sg15
F57.1
sg16
I-1
sg17
F2.3666666666666667
sg18
F13.5
sg19
F161.1
sg20
F82.0
sg21
I-1
sg22
I-1
sg23
I30
sg24
F82.4
sg25
F1.0
sg26
I399
sg27
F4.0
sg28
I3
sg29
F3.25
sg30
I-1
sg31
I425
sg32
I-1
sg33
I-1
sg34
I-1
sg35
I437
sg36
F7.0
sg37
I-1
sasS'workouty'
p51
(dp52
S'velocities_arr_0'
p53
F0.51
sS'velocities_arr_1'
p54
F0.6
sS'velocities_arr_2'
p55
F0.71
sS'velocities_arr_3'
p56
F0.92
sS'velocities_arr_4'
p57
I0
sS'velocities_arr_5'
p58
I0
sS'velocities_arr_6'
p59
I0
sS'velocities_arr_7'
p60
I0
sS'reps_completed'
p61
I4
sS'velocities_arr_9'
p62
I0
sS'postset_heartrate'
p63
I100
sS'went_to_failure'
p64
I0
sS'velocities_arr_8'
p65
I0
sS'velocities_arr_10'
p66
I0
sS'velocities_arr_11'
p67
I0
sS'did_pull_muscle'
p68
I0
ssS'workoutxseries'
p69
(lp70
(dp71
g13
I13
sS'velocities_arr_0'
p72
I0
sS'velocities_arr_2'
p73
I0
sS'velocities_arr_3'
p74
I0
sS'velocities_arr_4'
p75
I0
sS'velocities_arr_5'
p76
I0
sS'velocities_arr_6'
p77
I0
sS'velocities_arr_1'
p78
I0
sS'velocities_arr_8'
p79
I0
sS'velocities_arr_9'
p80
I0
sg63
I-1
sS'weight_lbs'
p81
I-1
sS'velocities_arr_7'
p82
I0
sS'category_exercise_name_12'
p83
I0
sS'category_exercise_name_13'
p84
I0
sS'category_exercise_name_10'
p85
I0
sS'category_exercise_name_11'
p86
I0
sS'category_exercise_name_2'
p87
I0
sg61
I-1
sS'reps_planned'
p88
I-1
sS'category_exercise_name_0'
p89
I0
sS'category_exercise_name_1'
p90
I0
sS'velocities_arr_10'
p91
I0
sS'category_exercise_name_3'
p92
I0
sS'category_exercise_name_4'
p93
I0
sS'category_exercise_name_5'
p94
I0
sS'category_exercise_name_6'
p95
I0
sS'category_exercise_name_7'
p96
I0
sS'category_exercise_name_8'
p97
I0
sS'category_exercise_name_9'
p98
I0
sS'set_number_of_the_day'
p99
I0
sg64
I0
sS'used_lifting_gear'
p100
I0
sS'velocities_arr_11'
p101
I0
sg68
I0
sg36
I0
sag71
ag71
ag71
ag71
ag71
ag71
ag71
ag71
ag71
ag71
ag71
ag71
ag71
ag71
ag71
ag71
a(dp102
g13
I1
sS'velocities_arr_0'
p103
F1.04
sS'velocities_arr_2'
p104
F0.92
sS'velocities_arr_3'
p105
F0.92
sS'velocities_arr_4'
p106
F0.9
sS'velocities_arr_5'
p107
F0.9
sS'velocities_arr_6'
p108
I0
sS'velocities_arr_1'
p109
F0.96
sS'velocities_arr_8'
p110
I0
sS'velocities_arr_9'
p111
I0
sg63
I100
sg81
I45
sS'velocities_arr_7'
p112
I0
sS'category_exercise_name_12'
p113
I0
sS'category_exercise_name_13'
p114
I0
sS'category_exercise_name_10'
p115
I0
sS'category_exercise_name_11'
p116
I0
sS'velocities_arr_10'
p117
I0
sg61
I6
sg88
I6
sS'category_exercise_name_0'
p118
I0
sS'category_exercise_name_1'
p119
I0
sS'category_exercise_name_2'
p120
I1
sS'category_exercise_name_3'
p121
I0
sS'category_exercise_name_4'
p122
I0
sS'category_exercise_name_5'
p123
I0
sS'category_exercise_name_6'
p124
I0
sS'category_exercise_name_7'
p125
I0
sS'category_exercise_name_8'
p126
I0
sS'category_exercise_name_9'
p127
I0
sg99
I0
sg64
I0
sg100
I0
sS'velocities_arr_11'
p128
I0
sg68
I0
sg36
I0
sa(dp129
g13
I1
sS'velocities_arr_0'
p130
F0.78
sS'velocities_arr_2'
p131
F0.78
sS'velocities_arr_3'
p132
F0.83
sS'velocities_arr_4'
p133
F0.76
sS'velocities_arr_5'
p134
F0.73
sS'velocities_arr_6'
p135
I0
sS'velocities_arr_1'
p136
F0.82
sS'velocities_arr_8'
p137
I0
sS'velocities_arr_9'
p138
I0
sg63
I107
sg81
I95
sS'velocities_arr_7'
p139
I0
sS'category_exercise_name_12'
p140
I0
sS'category_exercise_name_13'
p141
I0
sS'category_exercise_name_10'
p142
I0
sS'category_exercise_name_11'
p143
I0
sS'velocities_arr_10'
p144
I0
sg61
I6
sg88
I6
sS'category_exercise_name_0'
p145
I0
sS'category_exercise_name_1'
p146
I0
sS'category_exercise_name_2'
p147
I1
sS'category_exercise_name_3'
p148
I0
sS'category_exercise_name_4'
p149
I0
sS'category_exercise_name_5'
p150
I0
sS'category_exercise_name_6'
p151
I0
sS'category_exercise_name_7'
p152
I0
sS'category_exercise_name_8'
p153
I0
sS'category_exercise_name_9'
p154
I0
sg99
I1
sg64
I0
sg100
I0
sS'velocities_arr_11'
p155
I0
sg68
I0
sg36
I0
sa(dp156
g13
I1
sS'velocities_arr_0'
p157
F0.7
sS'velocities_arr_2'
p158
F0.68
sS'velocities_arr_3'
p159
F0.74
sS'velocities_arr_4'
p160
F0.68
sS'velocities_arr_5'
p161
F0.67
sS'velocities_arr_6'
p162
I0
sS'velocities_arr_1'
p163
F0.74
sS'velocities_arr_8'
p164
I0
sS'velocities_arr_9'
p165
I0
sg63
I116
sg81
I115
sS'velocities_arr_7'
p166
I0
sS'category_exercise_name_12'
p167
I0
sS'category_exercise_name_13'
p168
I0
sS'category_exercise_name_10'
p169
I0
sS'category_exercise_name_11'
p170
I0
sS'velocities_arr_10'
p171
I0
sg61
I6
sg88
I6
sS'category_exercise_name_0'
p172
I0
sS'category_exercise_name_1'
p173
I0
sS'category_exercise_name_2'
p174
I1
sS'category_exercise_name_3'
p175
I0
sS'category_exercise_name_4'
p176
I0
sS'category_exercise_name_5'
p177
I0
sS'category_exercise_name_6'
p178
I0
sS'category_exercise_name_7'
p179
I0
sS'category_exercise_name_8'
p180
I0
sS'category_exercise_name_9'
p181
I0
sg99
I2
sg64
I0
sg100
I0
sS'velocities_arr_11'
p182
I0
sg68
I0
sg36
I0
sa(dp183
g13
I1
sS'velocities_arr_0'
p184
F0.74
sS'velocities_arr_2'
p185
F0.72
sS'velocities_arr_3'
p186
F0.65
sS'velocities_arr_4'
p187
F0.58
sS'velocities_arr_5'
p188
F0.58
sS'velocities_arr_6'
p189
I0
sS'velocities_arr_1'
p190
F0.73
sS'velocities_arr_8'
p191
I0
sS'velocities_arr_9'
p192
I0
sg63
I116
sg81
I115
sS'velocities_arr_7'
p193
I0
sS'category_exercise_name_12'
p194
I0
sS'category_exercise_name_13'
p195
I0
sS'category_exercise_name_10'
p196
I0
sS'category_exercise_name_11'
p197
I0
sS'velocities_arr_10'
p198
I0
sg61
I6
sg88
I6
sS'category_exercise_name_0'
p199
I0
sS'category_exercise_name_1'
p200
I0
sS'category_exercise_name_2'
p201
I1
sS'category_exercise_name_3'
p202
I0
sS'category_exercise_name_4'
p203
I0
sS'category_exercise_name_5'
p204
I0
sS'category_exercise_name_6'
p205
I0
sS'category_exercise_name_7'
p206
I0
sS'category_exercise_name_8'
p207
I0
sS'category_exercise_name_9'
p208
I0
sg99
I3
sg64
I0
sg100
I0
sS'velocities_arr_11'
p209
I0
sg68
I0
sg36
I0
sa(dp210
g13
I1
sS'velocities_arr_0'
p211
F2.46
sS'velocities_arr_2'
p212
F2.04
sS'velocities_arr_3'
p213
F0.77
sS'velocities_arr_4'
p214
F1.92
sS'velocities_arr_5'
p215
F1.68
sS'velocities_arr_6'
p216
I0
sS'velocities_arr_1'
p217
F1.86
sS'velocities_arr_8'
p218
I0
sS'velocities_arr_9'
p219
I0
sg63
I110
sg81
I45
sS'velocities_arr_7'
p220
I0
sS'category_exercise_name_12'
p221
I0
sS'category_exercise_name_13'
p222
I0
sS'category_exercise_name_10'
p223
I0
sS'category_exercise_name_11'
p224
I0
sS'velocities_arr_10'
p225
I0
sg61
I6
sg88
I6
sS'category_exercise_name_0'
p226
I0
sS'category_exercise_name_1'
p227
I0
sS'category_exercise_name_2'
p228
I0
sS'category_exercise_name_3'
p229
I1
sS'category_exercise_name_4'
p230
I0
sS'category_exercise_name_5'
p231
I0
sS'category_exercise_name_6'
p232
I0
sS'category_exercise_name_7'
p233
I0
sS'category_exercise_name_8'
p234
I0
sS'category_exercise_name_9'
p235
I0
sg99
I4
sg64
I0
sg100
I0
sS'velocities_arr_11'
p236
I0
sg68
I0
sg36
I0
sa(dp237
g13
I1
sS'velocities_arr_0'
p238
F0.89
sS'velocities_arr_2'
p239
F0.73
sS'velocities_arr_3'
p240
F0.78
sS'velocities_arr_4'
p241
F0.75
sS'velocities_arr_5'
p242
F0.75
sS'velocities_arr_6'
p243
I0
sS'velocities_arr_1'
p244
F0.79
sS'velocities_arr_8'
p245
I0
sS'velocities_arr_9'
p246
I0
sg63
I112
sg81
I95
sS'velocities_arr_7'
p247
I0
sS'category_exercise_name_12'
p248
I0
sS'category_exercise_name_13'
p249
I0
sS'category_exercise_name_10'
p250
I0
sS'category_exercise_name_11'
p251
I0
sS'velocities_arr_10'
p252
I0
sg61
I6
sg88
I6
sS'category_exercise_name_0'
p253
I0
sS'category_exercise_name_1'
p254
I0
sS'category_exercise_name_2'
p255
I0
sS'category_exercise_name_3'
p256
I1
sS'category_exercise_name_4'
p257
I0
sS'category_exercise_name_5'
p258
I0
sS'category_exercise_name_6'
p259
I0
sS'category_exercise_name_7'
p260
I0
sS'category_exercise_name_8'
p261
I0
sS'category_exercise_name_9'
p262
I0
sg99
I5
sg64
I0
sg100
I0
sS'velocities_arr_11'
p263
I0
sg68
I0
sg36
I0
sa(dp264
g13
I1
sS'velocities_arr_0'
p265
F0.73
sS'velocities_arr_2'
p266
F0.72
sS'velocities_arr_3'
p267
F0.73
sS'velocities_arr_4'
p268
F0.7
sS'velocities_arr_5'
p269
F0.65
sS'velocities_arr_6'
p270
I0
sS'velocities_arr_1'
p271
F0.75
sS'velocities_arr_8'
p272
I0
sS'velocities_arr_9'
p273
I0
sg63
I108
sg81
I105
sS'velocities_arr_7'
p274
I0
sS'category_exercise_name_12'
p275
I0
sS'category_exercise_name_13'
p276
I0
sS'category_exercise_name_10'
p277
I0
sS'category_exercise_name_11'
p278
I0
sS'velocities_arr_10'
p279
I0
sg61
I6
sg88
I6
sS'category_exercise_name_0'
p280
I0
sS'category_exercise_name_1'
p281
I0
sS'category_exercise_name_2'
p282
I0
sS'category_exercise_name_3'
p283
I1
sS'category_exercise_name_4'
p284
I0
sS'category_exercise_name_5'
p285
I0
sS'category_exercise_name_6'
p286
I0
sS'category_exercise_name_7'
p287
I0
sS'category_exercise_name_8'
p288
I0
sS'category_exercise_name_9'
p289
I0
sg99
I6
sg64
I0
sg100
I0
sS'velocities_arr_11'
p290
I0
sg68
I0
sg36
I0
sa(dp291
g13
I1
sS'velocities_arr_0'
p292
F0.64
sS'velocities_arr_2'
p293
F0.63
sS'velocities_arr_3'
p294
F0.64
sS'velocities_arr_4'
p295
F0.61
sS'velocities_arr_5'
p296
F0.57
sS'velocities_arr_6'
p297
I0
sS'velocities_arr_1'
p298
F0.7
sS'velocities_arr_8'
p299
I0
sS'velocities_arr_9'
p300
I0
sg63
I108
sg81
I105
sS'velocities_arr_7'
p301
I0
sS'category_exercise_name_12'
p302
I0
sS'category_exercise_name_13'
p303
I0
sS'category_exercise_name_10'
p304
I0
sS'category_exercise_name_11'
p305
I0
sS'velocities_arr_10'
p306
I0
sg61
I6
sg88
I6
sS'category_exercise_name_0'
p307
I0
sS'category_exercise_name_1'
p308
I0
sS'category_exercise_name_2'
p309
I0
sS'category_exercise_name_3'
p310
I1
sS'category_exercise_name_4'
p311
I0
sS'category_exercise_name_5'
p312
I0
sS'category_exercise_name_6'
p313
I0
sS'category_exercise_name_7'
p314
I0
sS'category_exercise_name_8'
p315
I0
sS'category_exercise_name_9'
p316
I0
sg99
I7
sg64
I0
sg100
I0
sS'velocities_arr_11'
p317
I0
sg68
I0
sg36
I0
sa(dp318
g13
I6
sS'velocities_arr_0'
p319
F1.07
sS'velocities_arr_2'
p320
F1.1
sS'velocities_arr_3'
p321
F0.96
sS'velocities_arr_4'
p322
F1.05
sS'velocities_arr_5'
p323
I0
sS'velocities_arr_6'
p324
I0
sS'velocities_arr_1'
p325
F0.89
sS'velocities_arr_8'
p326
I0
sS'velocities_arr_9'
p327
I0
sg63
I88
sg81
I45
sS'velocities_arr_7'
p328
I0
sS'category_exercise_name_12'
p329
I0
sS'category_exercise_name_13'
p330
I0
sS'category_exercise_name_10'
p331
I0
sS'category_exercise_name_11'
p332
I0
sS'velocities_arr_10'
p333
I0
sg61
I5
sg88
I5
sS'category_exercise_name_0'
p334
I0
sS'category_exercise_name_1'
p335
I0
sS'category_exercise_name_2'
p336
I1
sS'category_exercise_name_3'
p337
I0
sS'category_exercise_name_4'
p338
I0
sS'category_exercise_name_5'
p339
I0
sS'category_exercise_name_6'
p340
I0
sS'category_exercise_name_7'
p341
I0
sS'category_exercise_name_8'
p342
I0
sS'category_exercise_name_9'
p343
I0
sg99
I0
sg64
I0
sg100
I0
sS'velocities_arr_11'
p344
I0
sg68
I0
sg36
F0.0
sa(dp345
g13
I6
sS'velocities_arr_0'
p346
F0.87
sS'velocities_arr_2'
p347
F0.84
sS'velocities_arr_3'
p348
F0.85
sS'velocities_arr_4'
p349
F0.86
sS'velocities_arr_5'
p350
I0
sS'velocities_arr_6'
p351
I0
sS'velocities_arr_1'
p352
F0.91
sS'velocities_arr_8'
p353
I0
sS'velocities_arr_9'
p354
I0
sg63
I103
sg81
I115
sS'velocities_arr_7'
p355
I0
sS'category_exercise_name_12'
p356
I0
sS'category_exercise_name_13'
p357
I0
sS'category_exercise_name_10'
p358
I0
sS'category_exercise_name_11'
p359
I0
sS'velocities_arr_10'
p360
I0
sg61
I5
sg88
I5
sS'category_exercise_name_0'
p361
I0
sS'category_exercise_name_1'
p362
I0
sS'category_exercise_name_2'
p363
I1
sS'category_exercise_name_3'
p364
I0
sS'category_exercise_name_4'
p365
I0
sS'category_exercise_name_5'
p366
I0
sS'category_exercise_name_6'
p367
I0
sS'category_exercise_name_7'
p368
I0
sS'category_exercise_name_8'
p369
I0
sS'category_exercise_name_9'
p370
I0
sg99
I1
sg64
I0
sg100
I0
sS'velocities_arr_11'
p371
I0
sg68
I0
sg36
F0.0
sa(dp372
g13
I6
sS'velocities_arr_0'
p373
F0.81
sS'velocities_arr_2'
p374
F0.77
sS'velocities_arr_3'
p375
F0.76
sS'velocities_arr_4'
p376
F0.72
sS'velocities_arr_5'
p377
I0
sS'velocities_arr_6'
p378
I0
sS'velocities_arr_1'
p379
F0.77
sS'velocities_arr_8'
p380
I0
sS'velocities_arr_9'
p381
I0
sg63
I112
sg81
I135
sS'velocities_arr_7'
p382
I0
sS'category_exercise_name_12'
p383
I0
sS'category_exercise_name_13'
p384
I0
sS'category_exercise_name_10'
p385
I0
sS'category_exercise_name_11'
p386
I0
sS'velocities_arr_10'
p387
I0
sg61
I5
sg88
I5
sS'category_exercise_name_0'
p388
I0
sS'category_exercise_name_1'
p389
I0
sS'category_exercise_name_2'
p390
I1
sS'category_exercise_name_3'
p391
I0
sS'category_exercise_name_4'
p392
I0
sS'category_exercise_name_5'
p393
I0
sS'category_exercise_name_6'
p394
I0
sS'category_exercise_name_7'
p395
I0
sS'category_exercise_name_8'
p396
I0
sS'category_exercise_name_9'
p397
I0
sg99
I2
sg64
I0
sg100
I0
sS'velocities_arr_11'
p398
I0
sg68
I0
sg36
F0.0
sa(dp399
g13
I6
sS'velocities_arr_0'
p400
F0.88
sS'velocities_arr_2'
p401
F0.77
sS'velocities_arr_3'
p402
F0.77
sS'velocities_arr_4'
p403
F0.74
sS'velocities_arr_5'
p404
I0
sS'velocities_arr_6'
p405
I0
sS'velocities_arr_1'
p406
F0.84
sS'velocities_arr_8'
p407
I0
sS'velocities_arr_9'
p408
I0
sg63
I111
sg81
I135
sS'velocities_arr_7'
p409
I0
sS'category_exercise_name_12'
p410
I0
sS'category_exercise_name_13'
p411
I0
sS'category_exercise_name_10'
p412
I0
sS'category_exercise_name_11'
p413
I0
sS'velocities_arr_10'
p414
I0
sg61
I5
sg88
I5
sS'category_exercise_name_0'
p415
I0
sS'category_exercise_name_1'
p416
I0
sS'category_exercise_name_2'
p417
I1
sS'category_exercise_name_3'
p418
I0
sS'category_exercise_name_4'
p419
I0
sS'category_exercise_name_5'
p420
I0
sS'category_exercise_name_6'
p421
I0
sS'category_exercise_name_7'
p422
I0
sS'category_exercise_name_8'
p423
I0
sS'category_exercise_name_9'
p424
I0
sg99
I3
sg64
I0
sg100
I0
sS'velocities_arr_11'
p425
I0
sg68
I0
sg36
F0.0
sa(dp426
g13
I6
sS'velocities_arr_0'
p427
F0.82
sS'velocities_arr_2'
p428
F0.81
sS'velocities_arr_3'
p429
F0.75
sS'velocities_arr_4'
p430
F0.73
sS'velocities_arr_5'
p431
I0
sS'velocities_arr_6'
p432
I0
sS'velocities_arr_1'
p433
F0.82
sS'velocities_arr_8'
p434
I0
sS'velocities_arr_9'
p435
I0
sg63
I115
sg81
I135
sS'velocities_arr_7'
p436
I0
sS'category_exercise_name_12'
p437
I0
sS'category_exercise_name_13'
p438
I0
sS'category_exercise_name_10'
p439
I0
sS'category_exercise_name_11'
p440
I0
sS'velocities_arr_10'
p441
I0
sg61
I5
sg88
I5
sS'category_exercise_name_0'
p442
I0
sS'category_exercise_name_1'
p443
I0
sS'category_exercise_name_2'
p444
I1
sS'category_exercise_name_3'
p445
I0
sS'category_exercise_name_4'
p446
I0
sS'category_exercise_name_5'
p447
I0
sS'category_exercise_name_6'
p448
I0
sS'category_exercise_name_7'
p449
I0
sS'category_exercise_name_8'
p450
I0
sS'category_exercise_name_9'
p451
I0
sg99
I4
sg64
I0
sg100
I0
sS'velocities_arr_11'
p452
I0
sg68
I0
sg36
F0.0
sa(dp453
g13
I6
sS'velocities_arr_0'
p454
F0.87
sS'velocities_arr_2'
p455
F0.83
sS'velocities_arr_3'
p456
F0.8
sS'velocities_arr_4'
p457
F0.69
sS'velocities_arr_5'
p458
I0
sS'velocities_arr_6'
p459
I0
sS'velocities_arr_1'
p460
F0.83
sS'velocities_arr_8'
p461
I0
sS'velocities_arr_9'
p462
I0
sg63
I119
sg81
I135
sS'velocities_arr_7'
p463
I0
sS'category_exercise_name_12'
p464
I0
sS'category_exercise_name_13'
p465
I0
sS'category_exercise_name_10'
p466
I0
sS'category_exercise_name_11'
p467
I0
sS'velocities_arr_10'
p468
I0
sg61
I5
sg88
I5
sS'category_exercise_name_0'
p469
I0
sS'category_exercise_name_1'
p470
I0
sS'category_exercise_name_2'
p471
I1
sS'category_exercise_name_3'
p472
I0
sS'category_exercise_name_4'
p473
I0
sS'category_exercise_name_5'
p474
I0
sS'category_exercise_name_6'
p475
I0
sS'category_exercise_name_7'
p476
I0
sS'category_exercise_name_8'
p477
I0
sS'category_exercise_name_9'
p478
I0
sg99
I5
sg64
I0
sg100
I0
sS'velocities_arr_11'
p479
I0
sg68
I0
sg36
F0.0
sa(dp480
g13
I6
sS'velocities_arr_0'
p481
F2.65
sS'velocities_arr_2'
p482
F1.68
sS'velocities_arr_3'
p483
F2.52
sS'velocities_arr_4'
p484
F2.41
sS'velocities_arr_5'
p485
F0.96
sS'velocities_arr_6'
p486
I0
sS'velocities_arr_1'
p487
F2.58
sS'velocities_arr_8'
p488
I0
sS'velocities_arr_9'
p489
I0
sg63
I100
sg81
I45
sS'velocities_arr_7'
p490
I0
sS'category_exercise_name_12'
p491
I0
sS'category_exercise_name_13'
p492
I0
sS'category_exercise_name_10'
p493
I0
sS'category_exercise_name_11'
p494
I0
sS'velocities_arr_10'
p495
I0
sg61
I6
sg88
I6
sS'category_exercise_name_0'
p496
I0
sS'category_exercise_name_1'
p497
I0
sS'category_exercise_name_2'
p498
I0
sS'category_exercise_name_3'
p499
I1
sS'category_exercise_name_4'
p500
I0
sS'category_exercise_name_5'
p501
I0
sS'category_exercise_name_6'
p502
I0
sS'category_exercise_name_7'
p503
I0
sS'category_exercise_name_8'
p504
I0
sS'category_exercise_name_9'
p505
I0
sg99
I6
sg64
I0
sg100
I0
sS'velocities_arr_11'
p506
I0
sg68
I0
sg36
F0.0
sa(dp507
g13
I6
sS'velocities_arr_0'
p508
F0.98
sS'velocities_arr_2'
p509
F0.97
sS'velocities_arr_3'
p510
F0.83
sS'velocities_arr_4'
p511
F0.84
sS'velocities_arr_5'
p512
I0
sS'velocities_arr_6'
p513
I0
sS'velocities_arr_1'
p514
F0.87
sS'velocities_arr_8'
p515
I0
sS'velocities_arr_9'
p516
I0
sg63
I105
sg81
I95
sS'velocities_arr_7'
p517
I0
sS'category_exercise_name_12'
p518
I0
sS'category_exercise_name_13'
p519
I0
sS'category_exercise_name_10'
p520
I0
sS'category_exercise_name_11'
p521
I0
sS'velocities_arr_10'
p522
I0
sg61
I5
sg88
I5
sS'category_exercise_name_0'
p523
I0
sS'category_exercise_name_1'
p524
I0
sS'category_exercise_name_2'
p525
I0
sS'category_exercise_name_3'
p526
I1
sS'category_exercise_name_4'
p527
I0
sS'category_exercise_name_5'
p528
I0
sS'category_exercise_name_6'
p529
I0
sS'category_exercise_name_7'
p530
I0
sS'category_exercise_name_8'
p531
I0
sS'category_exercise_name_9'
p532
I0
sg99
I7
sg64
I0
sg100
I0
sS'velocities_arr_11'
p533
I0
sg68
I0
sg36
F0.0
sa(dp534
g13
I6
sS'velocities_arr_0'
p535
F0.83
sS'velocities_arr_2'
p536
F0.72
sS'velocities_arr_3'
p537
F0.7
sS'velocities_arr_4'
p538
F0.72
sS'velocities_arr_5'
p539
I0
sS'velocities_arr_6'
p540
I0
sS'velocities_arr_1'
p541
F0.78
sS'velocities_arr_8'
p542
I0
sS'velocities_arr_9'
p543
I0
sg63
I108
sg81
I105
sS'velocities_arr_7'
p544
I0
sS'category_exercise_name_12'
p545
I0
sS'category_exercise_name_13'
p546
I0
sS'category_exercise_name_10'
p547
I0
sS'category_exercise_name_11'
p548
I0
sS'velocities_arr_10'
p549
I0
sg61
I5
sg88
I5
sS'category_exercise_name_0'
p550
I0
sS'category_exercise_name_1'
p551
I0
sS'category_exercise_name_2'
p552
I0
sS'category_exercise_name_3'
p553
I1
sS'category_exercise_name_4'
p554
I0
sS'category_exercise_name_5'
p555
I0
sS'category_exercise_name_6'
p556
I0
sS'category_exercise_name_7'
p557
I0
sS'category_exercise_name_8'
p558
I0
sS'category_exercise_name_9'
p559
I0
sg99
I8
sg64
I0
sg100
I0
sS'velocities_arr_11'
p560
I0
sg68
I0
sg36
F0.0
sa(dp561
g13
I6
sS'velocities_arr_0'
p562
F0.81
sS'velocities_arr_2'
p563
F0.71
sS'velocities_arr_3'
p564
F0.72
sS'velocities_arr_4'
p565
F0.63
sS'velocities_arr_5'
p566
I0
sS'velocities_arr_6'
p567
I0
sS'velocities_arr_1'
p568
F0.77
sS'velocities_arr_8'
p569
I0
sS'velocities_arr_9'
p570
I0
sg63
I108
sg81
I105
sS'velocities_arr_7'
p571
I0
sS'category_exercise_name_12'
p572
I0
sS'category_exercise_name_13'
p573
I0
sS'category_exercise_name_10'
p574
I0
sS'category_exercise_name_11'
p575
I0
sS'velocities_arr_10'
p576
I0
sg61
I5
sg88
I5
sS'category_exercise_name_0'
p577
I0
sS'category_exercise_name_1'
p578
I0
sS'category_exercise_name_2'
p579
I0
sS'category_exercise_name_3'
p580
I1
sS'category_exercise_name_4'
p581
I0
sS'category_exercise_name_5'
p582
I0
sS'category_exercise_name_6'
p583
I0
sS'category_exercise_name_7'
p584
I0
sS'category_exercise_name_8'
p585
I0
sS'category_exercise_name_9'
p586
I0
sg99
I9
sg64
I0
sg100
I0
sS'velocities_arr_11'
p587
I0
sg68
I0
sg36
F0.0
sa(dp588
g13
I6
sS'velocities_arr_0'
p589
F0.77
sS'velocities_arr_2'
p590
F0.77
sS'velocities_arr_3'
p591
F0.76
sS'velocities_arr_4'
p592
F0.7
sS'velocities_arr_5'
p593
I0
sS'velocities_arr_6'
p594
I0
sS'velocities_arr_1'
p595
F0.76
sS'velocities_arr_8'
p596
I0
sS'velocities_arr_9'
p597
I0
sg63
I112
sg81
I105
sS'velocities_arr_7'
p598
I0
sS'category_exercise_name_12'
p599
I0
sS'category_exercise_name_13'
p600
I0
sS'category_exercise_name_10'
p601
I0
sS'category_exercise_name_11'
p602
I0
sS'velocities_arr_10'
p603
I0
sg61
I5
sg88
I5
sS'category_exercise_name_0'
p604
I0
sS'category_exercise_name_1'
p605
I0
sS'category_exercise_name_2'
p606
I0
sS'category_exercise_name_3'
p607
I1
sS'category_exercise_name_4'
p608
I0
sS'category_exercise_name_5'
p609
I0
sS'category_exercise_name_6'
p610
I0
sS'category_exercise_name_7'
p611
I0
sS'category_exercise_name_8'
p612
I0
sS'category_exercise_name_9'
p613
I0
sg99
I10
sg64
I0
sg100
I0
sS'velocities_arr_11'
p614
I0
sg68
I0
sg36
F0.0
sa(dp615
g13
I6
sS'velocities_arr_0'
p616
F0.8
sS'velocities_arr_2'
p617
F0.77
sS'velocities_arr_3'
p618
F0.73
sS'velocities_arr_4'
p619
F0.7
sS'velocities_arr_5'
p620
I0
sS'velocities_arr_6'
p621
I0
sS'velocities_arr_1'
p622
F0.77
sS'velocities_arr_8'
p623
I0
sS'velocities_arr_9'
p624
I0
sg63
I115
sg81
I105
sS'velocities_arr_7'
p625
I0
sS'category_exercise_name_12'
p626
I0
sS'category_exercise_name_13'
p627
I0
sS'category_exercise_name_10'
p628
I0
sS'category_exercise_name_11'
p629
I0
sS'velocities_arr_10'
p630
I0
sg61
I5
sg88
I5
sS'category_exercise_name_0'
p631
I0
sS'category_exercise_name_1'
p632
I0
sS'category_exercise_name_2'
p633
I0
sS'category_exercise_name_3'
p634
I1
sS'category_exercise_name_4'
p635
I0
sS'category_exercise_name_5'
p636
I0
sS'category_exercise_name_6'
p637
I0
sS'category_exercise_name_7'
p638
I0
sS'category_exercise_name_8'
p639
I0
sS'category_exercise_name_9'
p640
I0
sg99
I11
sg64
I0
sg100
I0
sS'velocities_arr_11'
p641
I0
sg68
I0
sg36
F0.0
sa(dp642
g13
I6
sS'velocities_arr_0'
p643
F0.81
sS'velocities_arr_2'
p644
F0.77
sS'velocities_arr_3'
p645
F0.69
sS'velocities_arr_4'
p646
F0.7
sS'velocities_arr_5'
p647
I0
sS'velocities_arr_6'
p648
I0
sS'velocities_arr_1'
p649
F0.87
sS'velocities_arr_8'
p650
I0
sS'velocities_arr_9'
p651
I0
sg63
I112
sg81
I105
sS'velocities_arr_7'
p652
I0
sS'category_exercise_name_12'
p653
I0
sS'category_exercise_name_13'
p654
I0
sS'category_exercise_name_10'
p655
I0
sS'category_exercise_name_11'
p656
I0
sS'velocities_arr_10'
p657
I0
sg61
I5
sg88
I5
sS'category_exercise_name_0'
p658
I0
sS'category_exercise_name_1'
p659
I0
sS'category_exercise_name_2'
p660
I0
sS'category_exercise_name_3'
p661
I1
sS'category_exercise_name_4'
p662
I0
sS'category_exercise_name_5'
p663
I0
sS'category_exercise_name_6'
p664
I0
sS'category_exercise_name_7'
p665
I0
sS'category_exercise_name_8'
p666
I0
sS'category_exercise_name_9'
p667
I0
sg99
I12
sg64
I0
sg100
I0
sS'velocities_arr_11'
p668
I0
sg68
I0
sg36
F0.0
sa(dp669
g13
I6
sS'velocities_arr_0'
p670
I0
sS'velocities_arr_2'
p671
I0
sS'velocities_arr_3'
p672
I0
sS'velocities_arr_4'
p673
I0
sS'velocities_arr_5'
p674
I0
sS'velocities_arr_6'
p675
I0
sS'velocities_arr_1'
p676
I0
sS'velocities_arr_8'
p677
I0
sS'velocities_arr_9'
p678
I0
sg63
I122
sg81
F161.4
sS'velocities_arr_7'
p679
I0
sS'category_exercise_name_12'
p680
I0
sS'category_exercise_name_13'
p681
I0
sS'category_exercise_name_10'
p682
I0
sS'category_exercise_name_11'
p683
I1
sS'velocities_arr_10'
p684
I0
sg61
I4
sg88
I4
sS'category_exercise_name_0'
p685
I0
sS'category_exercise_name_1'
p686
I0
sS'category_exercise_name_2'
p687
I0
sS'category_exercise_name_3'
p688
I0
sS'category_exercise_name_4'
p689
I0
sS'category_exercise_name_5'
p690
I0
sS'category_exercise_name_6'
p691
I0
sS'category_exercise_name_7'
p692
I0
sS'category_exercise_name_8'
p693
I0
sS'category_exercise_name_9'
p694
I0
sg99
I13
sg64
I0
sg100
I0
sS'velocities_arr_11'
p695
I0
sg68
I0
sg36
F0.0
sa(dp696
g13
I13
sg72
I0
sg73
I0
sg74
I0
sg75
I0
sg76
I0
sg77
I0
sg78
I0
sg79
I0
sg80
I0
sg63
I-1
sg81
I45
sg82
I0
sg83
I0
sg84
I0
sg85
I0
sg86
I0
sg61
I-1
sg88
I4
sg89
I0
sg90
I0
sg91
I0
sg92
I0
sg93
I0
sg94
I0
sg95
I0
sg96
I0
sg97
I0
sg98
I0
sg99
I0
sg64
I-1
sg87
I1
sg100
I0
sg101
I0
sg68
I-1
sg36
F7.0
sas.