(dp0
S'userx'
p1
(dp2
S'wrist_width_inches'
p3
I7
sS'height_inches'
p4
F70.0
sS'harris_benedict_bmr'
p5
I-1
sS'genetically_gifted'
p6
I0
sS'years_old'
p7
I31
sS'ankle_width_inches'
p8
I9
sS'sex_is_male'
p9
I1
ssS'dayseriesx'
p10
(lp11
(dp12
S'day_number'
p13
I-1
sS'sleeptime_awake_hrs'
p14
I-1
sS'withings_body_water_percent'
p15
I-1
sS'heart_rate_variability_rmssd'
p16
I-1
sS'sleeptime_deep_rem_hrs'
p17
I-1
sS'withings_body_fat_percent'
p18
I-1
sS'withings_weight_lbs'
p19
I-1
sS'sleeptime_efficiency_percent'
p20
I-1
sS'post_day_calories_in'
p21
I-1
sS'post_day_fat_g'
p22
I-1
sS'sleeptime_bed_time_ampm_index'
p23
I-1
sS'withings_muscle_mass_percent'
p24
I-1
sS'days_since_last_recorded_day'
p25
I-1
sS'sleeptime_alarm_ring_ampm_index'
p26
I-1
sS'withings_bone_mass_percent'
p27
I-1
sS'sleeptime_snoozed'
p28
I-1
sS'sleeptime_light_sleep_hrs'
p29
I-1
sS'withings_heart_rate_bpm'
p30
I-1
sS'sleeptime_alarm_set_ampm_index'
p31
I-1
sS'post_day_protein_g'
p32
I-1
sS'post_day_wearable_calories_burned'
p33
I-1
sS'withings_pulse_wave_velocity_m_per_s'
p34
I-1
sS'sleeptime_rise_time_ampm_index'
p35
I-1
sS'days_since_last_workout'
p36
I-1
sS'post_day_carbs_g'
p37
I-1
sag12
ag12
ag12
ag12
ag12
ag12
ag12
a(dp38
g13
I0
sg14
F1.7166666666666668
sg15
F57.1
sg16
I-1
sg17
F2.5
sg18
F13.6
sg19
F163.6
sg20
F70.0
sg21
I-1
sg22
I-1
sg23
I85
sg24
F82.4
sg25
F0.0
sg26
I406
sg27
F4.0
sg28
I4
sg29
F1.6666666666666665
sg30
F104.0
sg31
I425
sg32
I-1
sg33
I-1
sg34
F7.7
sg35
I440
sg36
I0
sg37
I-1
sa(dp39
g13
I1
sg14
F1.5
sg15
F56.3
sg16
I-1
sg17
F4.25
sg18
F15.0
sg19
F163.2
sg20
F81.0
sg21
I-1
sg22
I-1
sg23
I1400
sg24
F81.0
sg25
F1.0
sg26
I406
sg27
F4.0
sg28
I5
sg29
F2.3
sg30
F85.0
sg31
I426
sg32
I-1
sg33
I-1
sg34
F7.7
sg35
I444
sg36
F1.0
sg37
I-1
sa(dp40
g13
I2
sg14
F0.7166666666666667
sg15
F56.3
sg16
I-1
sg17
F3.9166666666666665
sg18
F15.0
sg19
F162.2
sg20
F89.0
sg21
I-1
sg22
I-1
sg23
I1
sg24
F81.0
sg25
F1.0
sg26
I418
sg27
F4.0
sg28
I1
sg29
F2.3
sg30
F97.0
sg31
I426
sg32
I-1
sg33
I-1
sg34
F7.7
sg35
I418
sg36
F0.0
sg37
I-1
sa(dp41
g13
I3
sg14
F0.2833333333333333
sg15
F56.6
sg16
I-1
sg17
F2.8166666666666664
sg18
F14.4
sg19
F162.7
sg20
F96.0
sg21
I-1
sg22
I-1
sg23
I192
sg24
F81.6
sg25
F1.0
sg26
I1440
sg27
F4.0
sg28
I0
sg29
F4.5
sg30
F93.0
sg31
I719
sg32
I-1
sg33
I-1
sg34
F7.7
sg35
I649
sg36
F1.0
sg37
I-1
sa(dp42
g13
I4
sg14
F0.7666666666666667
sg15
F55.2
sg16
I-1
sg17
F3.6166666666666667
sg18
F17.1
sg19
F162.0
sg20
F89.0
sg21
I-1
sg22
I-1
sg23
I68
sg24
F78.9
sg25
F1.0
sg26
I1440
sg27
F3.9
sg28
I0
sg29
F3.0166666666666666
sg30
F64.0
sg31
I663
sg32
I-1
sg33
I-1
sg34
F7.6
sg35
I513
sg36
F0.0
sg37
I-1
sasS'workouty'
p43
(dp44
S'velocities_arr_0'
p45
F0.66
sS'velocities_arr_1'
p46
F0.69
sS'velocities_arr_2'
p47
F0.63
sS'velocities_arr_3'
p48
F0.68
sS'velocities_arr_4'
p49
F0.65
sS'velocities_arr_5'
p50
F0.58
sS'velocities_arr_6'
p51
I0
sS'velocities_arr_7'
p52
I0
sS'reps_completed'
p53
I6
sS'velocities_arr_9'
p54
I0
sS'postset_heartrate'
p55
I151
sS'went_to_failure'
p56
I0
sS'velocities_arr_8'
p57
I0
sS'velocities_arr_10'
p58
I0
sS'velocities_arr_11'
p59
I0
sS'did_pull_muscle'
p60
I1
ssS'workoutxseries'
p61
(lp62
(dp63
g13
I5
sS'velocities_arr_0'
p64
I0
sS'velocities_arr_2'
p65
I0
sS'velocities_arr_3'
p66
I0
sS'velocities_arr_4'
p67
I0
sS'velocities_arr_5'
p68
I0
sS'velocities_arr_6'
p69
I0
sS'velocities_arr_1'
p70
I0
sS'velocities_arr_8'
p71
I0
sS'velocities_arr_9'
p72
I0
sg55
I-1
sS'weight_lbs'
p73
I-1
sS'velocities_arr_7'
p74
I0
sS'category_exercise_name_12'
p75
I0
sS'category_exercise_name_13'
p76
I0
sS'category_exercise_name_10'
p77
I0
sS'category_exercise_name_11'
p78
I0
sS'category_exercise_name_2'
p79
I0
sg53
I-1
sS'reps_planned'
p80
I-1
sS'category_exercise_name_0'
p81
I0
sS'category_exercise_name_1'
p82
I0
sS'velocities_arr_10'
p83
I0
sS'category_exercise_name_3'
p84
I0
sS'category_exercise_name_4'
p85
I0
sS'category_exercise_name_5'
p86
I0
sS'category_exercise_name_6'
p87
I0
sS'category_exercise_name_7'
p88
I0
sS'category_exercise_name_8'
p89
I0
sS'category_exercise_name_9'
p90
I0
sS'set_number_of_the_day'
p91
I7
sg56
I0
sS'used_lifting_gear'
p92
I0
sS'velocities_arr_11'
p93
I0
sg60
I0
sg36
I0
sag63
ag63
ag63
ag63
ag63
ag63
ag63
ag63
ag63
ag63
ag63
ag63
ag63
ag63
a(dp94
g13
I1
sS'velocities_arr_0'
p95
F1.29
sS'velocities_arr_2'
p96
F1.15
sS'velocities_arr_3'
p97
F1.09
sS'velocities_arr_4'
p98
F1.16
sS'velocities_arr_5'
p99
F1.0
sS'velocities_arr_6'
p100
I0
sS'velocities_arr_1'
p101
F1.1
sS'velocities_arr_8'
p102
I0
sS'velocities_arr_9'
p103
I0
sg55
I116
sg73
I45
sS'velocities_arr_7'
p104
I0
sS'category_exercise_name_12'
p105
I0
sS'category_exercise_name_13'
p106
I0
sS'category_exercise_name_10'
p107
I0
sS'category_exercise_name_11'
p108
I0
sS'velocities_arr_10'
p109
I0
sg53
I6
sg80
I6
sS'category_exercise_name_0'
p110
I0
sS'category_exercise_name_1'
p111
I0
sS'category_exercise_name_2'
p112
I1
sS'category_exercise_name_3'
p113
I0
sS'category_exercise_name_4'
p114
I0
sS'category_exercise_name_5'
p115
I0
sS'category_exercise_name_6'
p116
I0
sS'category_exercise_name_7'
p117
I0
sS'category_exercise_name_8'
p118
I0
sS'category_exercise_name_9'
p119
I0
sg91
I0
sg56
I0
sg92
I0
sS'velocities_arr_11'
p120
I0
sg60
I0
sg36
I0
sa(dp121
g13
I1
sS'velocities_arr_0'
p122
F0.85
sS'velocities_arr_2'
p123
F0.82
sS'velocities_arr_3'
p124
F0.82
sS'velocities_arr_4'
p125
F0.77
sS'velocities_arr_5'
p126
F0.77
sS'velocities_arr_6'
p127
I0
sS'velocities_arr_1'
p128
F0.88
sS'velocities_arr_8'
p129
I0
sS'velocities_arr_9'
p130
I0
sg55
I140
sg73
I135
sS'velocities_arr_7'
p131
I0
sS'category_exercise_name_12'
p132
I0
sS'category_exercise_name_13'
p133
I0
sS'category_exercise_name_10'
p134
I0
sS'category_exercise_name_11'
p135
I0
sS'velocities_arr_10'
p136
I0
sg53
I6
sg80
I6
sS'category_exercise_name_0'
p137
I0
sS'category_exercise_name_1'
p138
I0
sS'category_exercise_name_2'
p139
I1
sS'category_exercise_name_3'
p140
I0
sS'category_exercise_name_4'
p141
I0
sS'category_exercise_name_5'
p142
I0
sS'category_exercise_name_6'
p143
I0
sS'category_exercise_name_7'
p144
I0
sS'category_exercise_name_8'
p145
I0
sS'category_exercise_name_9'
p146
I0
sg91
I1
sg56
I0
sg92
I0
sS'velocities_arr_11'
p147
I0
sg60
I0
sg36
I0
sa(dp148
g13
I1
sS'velocities_arr_0'
p149
F0.67
sS'velocities_arr_2'
p150
F0.64
sS'velocities_arr_3'
p151
F0.62
sS'velocities_arr_4'
p152
F0.55
sS'velocities_arr_5'
p153
F0.55
sS'velocities_arr_6'
p154
I0
sS'velocities_arr_1'
p155
F0.66
sS'velocities_arr_8'
p156
I0
sS'velocities_arr_9'
p157
I0
sg55
I151
sg73
I185
sS'velocities_arr_7'
p158
I0
sS'category_exercise_name_12'
p159
I0
sS'category_exercise_name_13'
p160
I0
sS'category_exercise_name_10'
p161
I0
sS'category_exercise_name_11'
p162
I0
sS'velocities_arr_10'
p163
I0
sg53
I6
sg80
I6
sS'category_exercise_name_0'
p164
I0
sS'category_exercise_name_1'
p165
I0
sS'category_exercise_name_2'
p166
I1
sS'category_exercise_name_3'
p167
I0
sS'category_exercise_name_4'
p168
I0
sS'category_exercise_name_5'
p169
I0
sS'category_exercise_name_6'
p170
I0
sS'category_exercise_name_7'
p171
I0
sS'category_exercise_name_8'
p172
I0
sS'category_exercise_name_9'
p173
I0
sg91
I2
sg56
I0
sg92
I0
sS'velocities_arr_11'
p174
I0
sg60
I0
sg36
I0
sa(dp175
g13
I1
sS'velocities_arr_0'
p176
F0.67
sS'velocities_arr_2'
p177
F0.6
sS'velocities_arr_3'
p178
F0.52
sS'velocities_arr_4'
p179
F0.52
sS'velocities_arr_5'
p180
F0.49
sS'velocities_arr_6'
p181
I0
sS'velocities_arr_1'
p182
F0.64
sS'velocities_arr_8'
p183
I0
sS'velocities_arr_9'
p184
I0
sg55
I162
sg73
I185
sS'velocities_arr_7'
p185
I0
sS'category_exercise_name_12'
p186
I0
sS'category_exercise_name_13'
p187
I0
sS'category_exercise_name_10'
p188
I0
sS'category_exercise_name_11'
p189
I0
sS'velocities_arr_10'
p190
I0
sg53
I6
sg80
I6
sS'category_exercise_name_0'
p191
I0
sS'category_exercise_name_1'
p192
I0
sS'category_exercise_name_2'
p193
I1
sS'category_exercise_name_3'
p194
I0
sS'category_exercise_name_4'
p195
I0
sS'category_exercise_name_5'
p196
I0
sS'category_exercise_name_6'
p197
I0
sS'category_exercise_name_7'
p198
I0
sS'category_exercise_name_8'
p199
I0
sS'category_exercise_name_9'
p200
I0
sg91
I3
sg56
I0
sg92
I0
sS'velocities_arr_11'
p201
I0
sg60
I0
sg36
I0
sa(dp202
g13
I1
sS'velocities_arr_0'
p203
F0.81
sS'velocities_arr_2'
p204
F0.83
sS'velocities_arr_3'
p205
F0.77
sS'velocities_arr_4'
p206
F0.71
sS'velocities_arr_5'
p207
F0.49
sS'velocities_arr_6'
p208
I0
sS'velocities_arr_1'
p209
F0.81
sS'velocities_arr_8'
p210
I0
sS'velocities_arr_9'
p211
I0
sg55
I157
sg73
I135
sS'velocities_arr_7'
p212
I0
sS'category_exercise_name_12'
p213
I0
sS'category_exercise_name_13'
p214
I0
sS'category_exercise_name_10'
p215
I0
sS'category_exercise_name_11'
p216
I0
sS'velocities_arr_10'
p217
I0
sg53
I6
sg80
I6
sS'category_exercise_name_0'
p218
I0
sS'category_exercise_name_1'
p219
I0
sS'category_exercise_name_2'
p220
I1
sS'category_exercise_name_3'
p221
I0
sS'category_exercise_name_4'
p222
I0
sS'category_exercise_name_5'
p223
I0
sS'category_exercise_name_6'
p224
I0
sS'category_exercise_name_7'
p225
I0
sS'category_exercise_name_8'
p226
I0
sS'category_exercise_name_9'
p227
I0
sg91
I4
sg56
I0
sg92
I0
sS'velocities_arr_11'
p228
I0
sg60
I0
sg36
I0
sa(dp229
g13
I1
sS'velocities_arr_0'
p230
F0.73
sS'velocities_arr_2'
p231
F0.77
sS'velocities_arr_3'
p232
F0.77
sS'velocities_arr_4'
p233
F0.74
sS'velocities_arr_5'
p234
F0.68
sS'velocities_arr_6'
p235
I0
sS'velocities_arr_1'
p236
F0.79
sS'velocities_arr_8'
p237
I0
sS'velocities_arr_9'
p238
I0
sg55
I138
sg73
I135
sS'velocities_arr_7'
p239
I0
sS'category_exercise_name_12'
p240
I0
sS'category_exercise_name_13'
p241
I0
sS'category_exercise_name_10'
p242
I0
sS'category_exercise_name_11'
p243
I0
sS'velocities_arr_10'
p244
I0
sg53
I6
sg80
I6
sS'category_exercise_name_0'
p245
I0
sS'category_exercise_name_1'
p246
I0
sS'category_exercise_name_2'
p247
I1
sS'category_exercise_name_3'
p248
I0
sS'category_exercise_name_4'
p249
I0
sS'category_exercise_name_5'
p250
I0
sS'category_exercise_name_6'
p251
I0
sS'category_exercise_name_7'
p252
I0
sS'category_exercise_name_8'
p253
I0
sS'category_exercise_name_9'
p254
I0
sg91
I5
sg56
I0
sg92
I0
sS'velocities_arr_11'
p255
I0
sg60
I0
sg36
I0
sa(dp256
g13
I1
sS'velocities_arr_0'
p257
F0.59
sS'velocities_arr_2'
p258
F0.66
sS'velocities_arr_3'
p259
F0.54
sS'velocities_arr_4'
p260
F0.54
sS'velocities_arr_5'
p261
F0.56
sS'velocities_arr_6'
p262
I0
sS'velocities_arr_1'
p263
F0.7
sS'velocities_arr_8'
p264
I0
sS'velocities_arr_9'
p265
I0
sg55
I158
sg73
I155
sS'velocities_arr_7'
p266
I0
sS'category_exercise_name_12'
p267
I0
sS'category_exercise_name_13'
p268
I0
sS'category_exercise_name_10'
p269
I0
sS'category_exercise_name_11'
p270
I0
sS'velocities_arr_10'
p271
I0
sg53
I6
sg80
I6
sS'category_exercise_name_0'
p272
I0
sS'category_exercise_name_1'
p273
I0
sS'category_exercise_name_2'
p274
I1
sS'category_exercise_name_3'
p275
I0
sS'category_exercise_name_4'
p276
I0
sS'category_exercise_name_5'
p277
I0
sS'category_exercise_name_6'
p278
I0
sS'category_exercise_name_7'
p279
I0
sS'category_exercise_name_8'
p280
I0
sS'category_exercise_name_9'
p281
I0
sg91
I6
sg56
I0
sg92
I0
sS'velocities_arr_11'
p282
I0
sg60
I0
sg36
I0
sa(dp283
g13
I3
sS'velocities_arr_0'
p284
F1.37
sS'velocities_arr_2'
p285
F1.37
sS'velocities_arr_3'
p286
F1.37
sS'velocities_arr_4'
p287
F1.37
sS'velocities_arr_5'
p288
F1.37
sS'velocities_arr_6'
p289
I0
sS'velocities_arr_1'
p290
F1.37
sS'velocities_arr_8'
p291
I0
sS'velocities_arr_9'
p292
I0
sg55
I88
sg73
I45
sS'velocities_arr_7'
p293
I0
sS'category_exercise_name_12'
p294
I0
sS'category_exercise_name_13'
p295
I0
sS'category_exercise_name_10'
p296
I0
sS'category_exercise_name_11'
p297
I0
sS'velocities_arr_10'
p298
I0
sg53
I6
sg80
I6
sS'category_exercise_name_0'
p299
I0
sS'category_exercise_name_1'
p300
I0
sS'category_exercise_name_2'
p301
I1
sS'category_exercise_name_3'
p302
I0
sS'category_exercise_name_4'
p303
I0
sS'category_exercise_name_5'
p304
I0
sS'category_exercise_name_6'
p305
I0
sS'category_exercise_name_7'
p306
I0
sS'category_exercise_name_8'
p307
I0
sS'category_exercise_name_9'
p308
I0
sg91
I0
sg56
I0
sg92
I0
sS'velocities_arr_11'
p309
I0
sg60
I0
sg36
F0.0
sa(dp310
g13
I3
sS'velocities_arr_0'
p311
F0.69
sS'velocities_arr_2'
p312
F0.7
sS'velocities_arr_3'
p313
F0.72
sS'velocities_arr_4'
p314
F0.76
sS'velocities_arr_5'
p315
F0.76
sS'velocities_arr_6'
p316
I0
sS'velocities_arr_1'
p317
F0.78
sS'velocities_arr_8'
p318
I0
sS'velocities_arr_9'
p319
I0
sg55
I92
sg73
I95
sS'velocities_arr_7'
p320
I0
sS'category_exercise_name_12'
p321
I0
sS'category_exercise_name_13'
p322
I0
sS'category_exercise_name_10'
p323
I0
sS'category_exercise_name_11'
p324
I0
sS'velocities_arr_10'
p325
I0
sg53
I6
sg80
I6
sS'category_exercise_name_0'
p326
I0
sS'category_exercise_name_1'
p327
I0
sS'category_exercise_name_2'
p328
I1
sS'category_exercise_name_3'
p329
I0
sS'category_exercise_name_4'
p330
I0
sS'category_exercise_name_5'
p331
I0
sS'category_exercise_name_6'
p332
I0
sS'category_exercise_name_7'
p333
I0
sS'category_exercise_name_8'
p334
I0
sS'category_exercise_name_9'
p335
I0
sg91
I1
sg56
I0
sg92
I0
sS'velocities_arr_11'
p336
I0
sg60
I0
sg36
F0.0
sa(dp337
g13
I3
sS'velocities_arr_0'
p338
F0.77
sS'velocities_arr_2'
p339
F0.82
sS'velocities_arr_3'
p340
F0.82
sS'velocities_arr_4'
p341
F0.68
sS'velocities_arr_5'
p342
F0.68
sS'velocities_arr_6'
p343
I0
sS'velocities_arr_1'
p344
F0.77
sS'velocities_arr_8'
p345
I0
sS'velocities_arr_9'
p346
I0
sg55
I97
sg73
I95
sS'velocities_arr_7'
p347
I0
sS'category_exercise_name_12'
p348
I0
sS'category_exercise_name_13'
p349
I0
sS'category_exercise_name_10'
p350
I0
sS'category_exercise_name_11'
p351
I0
sS'velocities_arr_10'
p352
I0
sg53
I6
sg80
I6
sS'category_exercise_name_0'
p353
I0
sS'category_exercise_name_1'
p354
I0
sS'category_exercise_name_2'
p355
I1
sS'category_exercise_name_3'
p356
I0
sS'category_exercise_name_4'
p357
I0
sS'category_exercise_name_5'
p358
I0
sS'category_exercise_name_6'
p359
I0
sS'category_exercise_name_7'
p360
I0
sS'category_exercise_name_8'
p361
I0
sS'category_exercise_name_9'
p362
I0
sg91
I2
sg56
I0
sg92
I0
sS'velocities_arr_11'
p363
I0
sg60
I0
sg36
F0.0
sa(dp364
g13
I3
sS'velocities_arr_0'
p365
F1.0
sS'velocities_arr_2'
p366
F1.0
sS'velocities_arr_3'
p367
F1.0
sS'velocities_arr_4'
p368
F1.0
sS'velocities_arr_5'
p369
F1.0
sS'velocities_arr_6'
p370
I0
sS'velocities_arr_1'
p371
F1.0
sS'velocities_arr_8'
p372
I0
sS'velocities_arr_9'
p373
I0
sg55
I104
sg73
I95
sS'velocities_arr_7'
p374
I0
sS'category_exercise_name_12'
p375
I0
sS'category_exercise_name_13'
p376
I0
sS'category_exercise_name_10'
p377
I0
sS'category_exercise_name_11'
p378
I0
sS'velocities_arr_10'
p379
I0
sg53
I6
sg80
I6
sS'category_exercise_name_0'
p380
I0
sS'category_exercise_name_1'
p381
I0
sS'category_exercise_name_2'
p382
I1
sS'category_exercise_name_3'
p383
I0
sS'category_exercise_name_4'
p384
I0
sS'category_exercise_name_5'
p385
I0
sS'category_exercise_name_6'
p386
I0
sS'category_exercise_name_7'
p387
I0
sS'category_exercise_name_8'
p388
I0
sS'category_exercise_name_9'
p389
I0
sg91
I3
sg56
I0
sg92
I0
sS'velocities_arr_11'
p390
I0
sg60
I0
sg36
F0.0
sa(dp391
g13
I3
sS'velocities_arr_0'
p392
F0.78
sS'velocities_arr_2'
p393
F0.75
sS'velocities_arr_3'
p394
F0.76
sS'velocities_arr_4'
p395
F0.68
sS'velocities_arr_5'
p396
F0.67
sS'velocities_arr_6'
p397
I0
sS'velocities_arr_1'
p398
F0.76
sS'velocities_arr_8'
p399
I0
sS'velocities_arr_9'
p400
I0
sg55
I102
sg73
I105
sS'velocities_arr_7'
p401
I0
sS'category_exercise_name_12'
p402
I0
sS'category_exercise_name_13'
p403
I0
sS'category_exercise_name_10'
p404
I0
sS'category_exercise_name_11'
p405
I0
sS'velocities_arr_10'
p406
I0
sg53
I6
sg80
I6
sS'category_exercise_name_0'
p407
I0
sS'category_exercise_name_1'
p408
I0
sS'category_exercise_name_2'
p409
I1
sS'category_exercise_name_3'
p410
I0
sS'category_exercise_name_4'
p411
I0
sS'category_exercise_name_5'
p412
I0
sS'category_exercise_name_6'
p413
I0
sS'category_exercise_name_7'
p414
I0
sS'category_exercise_name_8'
p415
I0
sS'category_exercise_name_9'
p416
I0
sg91
I4
sg56
I0
sg92
I0
sS'velocities_arr_11'
p417
I0
sg60
I0
sg36
F0.0
sa(dp418
g13
I3
sS'velocities_arr_0'
p419
F0.77
sS'velocities_arr_2'
p420
F0.69
sS'velocities_arr_3'
p421
F0.69
sS'velocities_arr_4'
p422
F0.69
sS'velocities_arr_5'
p423
F0.69
sS'velocities_arr_6'
p424
I0
sS'velocities_arr_1'
p425
F0.71
sS'velocities_arr_8'
p426
I0
sS'velocities_arr_9'
p427
I0
sg55
I104
sg73
I105
sS'velocities_arr_7'
p428
I0
sS'category_exercise_name_12'
p429
I0
sS'category_exercise_name_13'
p430
I0
sS'category_exercise_name_10'
p431
I0
sS'category_exercise_name_11'
p432
I0
sS'velocities_arr_10'
p433
I0
sg53
I6
sg80
I6
sS'category_exercise_name_0'
p434
I0
sS'category_exercise_name_1'
p435
I0
sS'category_exercise_name_2'
p436
I1
sS'category_exercise_name_3'
p437
I0
sS'category_exercise_name_4'
p438
I0
sS'category_exercise_name_5'
p439
I0
sS'category_exercise_name_6'
p440
I0
sS'category_exercise_name_7'
p441
I0
sS'category_exercise_name_8'
p442
I0
sS'category_exercise_name_9'
p443
I0
sg91
I5
sg56
I0
sg92
I0
sS'velocities_arr_11'
p444
I0
sg60
I0
sg36
F0.0
sa(dp445
g13
I3
sS'velocities_arr_0'
p446
F0.75
sS'velocities_arr_2'
p447
F0.71
sS'velocities_arr_3'
p448
F0.73
sS'velocities_arr_4'
p449
F0.66
sS'velocities_arr_5'
p450
F0.66
sS'velocities_arr_6'
p451
I0
sS'velocities_arr_1'
p452
F0.84
sS'velocities_arr_8'
p453
I0
sS'velocities_arr_9'
p454
I0
sg55
I104
sg73
I105
sS'velocities_arr_7'
p455
I0
sS'category_exercise_name_12'
p456
I0
sS'category_exercise_name_13'
p457
I0
sS'category_exercise_name_10'
p458
I0
sS'category_exercise_name_11'
p459
I0
sS'velocities_arr_10'
p460
I0
sg53
I6
sg80
I6
sS'category_exercise_name_0'
p461
I0
sS'category_exercise_name_1'
p462
I0
sS'category_exercise_name_2'
p463
I1
sS'category_exercise_name_3'
p464
I0
sS'category_exercise_name_4'
p465
I0
sS'category_exercise_name_5'
p466
I0
sS'category_exercise_name_6'
p467
I0
sS'category_exercise_name_7'
p468
I0
sS'category_exercise_name_8'
p469
I0
sS'category_exercise_name_9'
p470
I0
sg91
I6
sg56
I0
sg92
I0
sS'velocities_arr_11'
p471
I0
sg60
I0
sg36
F0.0
sa(dp472
g13
I3
sS'velocities_arr_0'
p473
F0.7
sS'velocities_arr_2'
p474
F0.67
sS'velocities_arr_3'
p475
F0.6
sS'velocities_arr_4'
p476
F0.67
sS'velocities_arr_5'
p477
F0.58
sS'velocities_arr_6'
p478
I0
sS'velocities_arr_1'
p479
F0.73
sS'velocities_arr_8'
p480
I0
sS'velocities_arr_9'
p481
I0
sg55
I102
sg73
I105
sS'velocities_arr_7'
p482
I0
sS'category_exercise_name_12'
p483
I0
sS'category_exercise_name_13'
p484
I0
sS'category_exercise_name_10'
p485
I0
sS'category_exercise_name_11'
p486
I0
sS'velocities_arr_10'
p487
I0
sg53
I6
sg80
I6
sS'category_exercise_name_0'
p488
I0
sS'category_exercise_name_1'
p489
I0
sS'category_exercise_name_2'
p490
I1
sS'category_exercise_name_3'
p491
I0
sS'category_exercise_name_4'
p492
I0
sS'category_exercise_name_5'
p493
I0
sS'category_exercise_name_6'
p494
I0
sS'category_exercise_name_7'
p495
I0
sS'category_exercise_name_8'
p496
I0
sS'category_exercise_name_9'
p497
I0
sg91
I7
sg56
I0
sg92
I0
sS'velocities_arr_11'
p498
I0
sg60
I0
sg36
F0.0
sa(dp499
g13
I3
sS'velocities_arr_0'
p500
F0.78
sS'velocities_arr_2'
p501
F0.66
sS'velocities_arr_3'
p502
F0.72
sS'velocities_arr_4'
p503
F0.65
sS'velocities_arr_5'
p504
F0.65
sS'velocities_arr_6'
p505
I0
sS'velocities_arr_1'
p506
F0.72
sS'velocities_arr_8'
p507
I0
sS'velocities_arr_9'
p508
I0
sg55
I107
sg73
I100
sS'velocities_arr_7'
p509
I0
sS'category_exercise_name_12'
p510
I0
sS'category_exercise_name_13'
p511
I0
sS'category_exercise_name_10'
p512
I0
sS'category_exercise_name_11'
p513
I0
sS'velocities_arr_10'
p514
I0
sg53
I6
sg80
I6
sS'category_exercise_name_0'
p515
I0
sS'category_exercise_name_1'
p516
I0
sS'category_exercise_name_2'
p517
I1
sS'category_exercise_name_3'
p518
I0
sS'category_exercise_name_4'
p519
I0
sS'category_exercise_name_5'
p520
I0
sS'category_exercise_name_6'
p521
I0
sS'category_exercise_name_7'
p522
I0
sS'category_exercise_name_8'
p523
I0
sS'category_exercise_name_9'
p524
I0
sg91
I8
sg56
I0
sg92
I0
sS'velocities_arr_11'
p525
I0
sg60
I0
sg36
F0.0
sa(dp526
g13
I3
sS'velocities_arr_0'
p527
F0.73
sS'velocities_arr_2'
p528
F0.81
sS'velocities_arr_3'
p529
F0.71
sS'velocities_arr_4'
p530
F0.78
sS'velocities_arr_5'
p531
F0.78
sS'velocities_arr_6'
p532
I0
sS'velocities_arr_1'
p533
F0.81
sS'velocities_arr_8'
p534
I0
sS'velocities_arr_9'
p535
I0
sg55
I101
sg73
I95
sS'velocities_arr_7'
p536
I0
sS'category_exercise_name_12'
p537
I0
sS'category_exercise_name_13'
p538
I0
sS'category_exercise_name_10'
p539
I0
sS'category_exercise_name_11'
p540
I0
sS'velocities_arr_10'
p541
I0
sg53
I6
sg80
I6
sS'category_exercise_name_0'
p542
I0
sS'category_exercise_name_1'
p543
I0
sS'category_exercise_name_2'
p544
I1
sS'category_exercise_name_3'
p545
I0
sS'category_exercise_name_4'
p546
I0
sS'category_exercise_name_5'
p547
I0
sS'category_exercise_name_6'
p548
I0
sS'category_exercise_name_7'
p549
I0
sS'category_exercise_name_8'
p550
I0
sS'category_exercise_name_9'
p551
I0
sg91
I9
sg56
I0
sg92
I0
sS'velocities_arr_11'
p552
I0
sg60
I0
sg36
F0.0
sa(dp553
g13
I5
sS'velocities_arr_0'
p554
F0.62
sS'velocities_arr_2'
p555
F0.87
sS'velocities_arr_3'
p556
F0.74
sS'velocities_arr_4'
p557
F0.71
sS'velocities_arr_5'
p558
F0.77
sS'velocities_arr_6'
p559
I0
sS'velocities_arr_1'
p560
F0.65
sS'velocities_arr_8'
p561
I0
sS'velocities_arr_9'
p562
I0
sg55
I99
sg73
I135
sS'velocities_arr_7'
p563
I0
sS'category_exercise_name_12'
p564
I0
sS'category_exercise_name_13'
p565
I0
sS'category_exercise_name_10'
p566
I0
sS'category_exercise_name_11'
p567
I0
sS'velocities_arr_10'
p568
I0
sg53
I6
sg80
I6
sS'category_exercise_name_0'
p569
I1
sS'category_exercise_name_1'
p570
I0
sS'category_exercise_name_2'
p571
I0
sS'category_exercise_name_3'
p572
I0
sS'category_exercise_name_4'
p573
I0
sS'category_exercise_name_5'
p574
I0
sS'category_exercise_name_6'
p575
I0
sS'category_exercise_name_7'
p576
I0
sS'category_exercise_name_8'
p577
I0
sS'category_exercise_name_9'
p578
I0
sg91
I0
sg56
I0
sg92
I0
sS'velocities_arr_11'
p579
I0
sg60
I0
sg36
F0.0
sa(dp580
g13
I5
sS'velocities_arr_0'
p581
F1.22
sS'velocities_arr_2'
p582
F0.82
sS'velocities_arr_3'
p583
F1.43
sS'velocities_arr_4'
p584
F1.5
sS'velocities_arr_5'
p585
F1.29
sS'velocities_arr_6'
p586
I0
sS'velocities_arr_1'
p587
F1.83
sS'velocities_arr_8'
p588
I0
sS'velocities_arr_9'
p589
I0
sg55
I112
sg73
I135
sS'velocities_arr_7'
p590
I0
sS'category_exercise_name_12'
p591
I0
sS'category_exercise_name_13'
p592
I0
sS'category_exercise_name_10'
p593
I0
sS'category_exercise_name_11'
p594
I0
sS'velocities_arr_10'
p595
I0
sg53
I6
sg80
I6
sS'category_exercise_name_0'
p596
I1
sS'category_exercise_name_1'
p597
I0
sS'category_exercise_name_2'
p598
I0
sS'category_exercise_name_3'
p599
I0
sS'category_exercise_name_4'
p600
I0
sS'category_exercise_name_5'
p601
I0
sS'category_exercise_name_6'
p602
I0
sS'category_exercise_name_7'
p603
I0
sS'category_exercise_name_8'
p604
I0
sS'category_exercise_name_9'
p605
I0
sg91
I1
sg56
I0
sg92
I0
sS'velocities_arr_11'
p606
I0
sg60
I0
sg36
F0.0
sa(dp607
g13
I5
sS'velocities_arr_0'
p608
F1.36
sS'velocities_arr_2'
p609
F0.71
sS'velocities_arr_3'
p610
F1.49
sS'velocities_arr_4'
p611
F0.37
sS'velocities_arr_5'
p612
F0.72
sS'velocities_arr_6'
p613
I0
sS'velocities_arr_1'
p614
F1.71
sS'velocities_arr_8'
p615
I0
sS'velocities_arr_9'
p616
I0
sg55
I120
sg73
I155
sS'velocities_arr_7'
p617
I0
sS'category_exercise_name_12'
p618
I0
sS'category_exercise_name_13'
p619
I0
sS'category_exercise_name_10'
p620
I0
sS'category_exercise_name_11'
p621
I0
sS'velocities_arr_10'
p622
I0
sg53
I6
sg80
I6
sS'category_exercise_name_0'
p623
I1
sS'category_exercise_name_1'
p624
I0
sS'category_exercise_name_2'
p625
I0
sS'category_exercise_name_3'
p626
I0
sS'category_exercise_name_4'
p627
I0
sS'category_exercise_name_5'
p628
I0
sS'category_exercise_name_6'
p629
I0
sS'category_exercise_name_7'
p630
I0
sS'category_exercise_name_8'
p631
I0
sS'category_exercise_name_9'
p632
I0
sg91
I2
sg56
I0
sg92
I0
sS'velocities_arr_11'
p633
I0
sg60
I0
sg36
F0.0
sa(dp634
g13
I5
sS'velocities_arr_0'
p635
F0.65
sS'velocities_arr_2'
p636
F0.66
sS'velocities_arr_3'
p637
F0.62
sS'velocities_arr_4'
p638
F0.8
sS'velocities_arr_5'
p639
F0.69
sS'velocities_arr_6'
p640
I0
sS'velocities_arr_1'
p641
F0.71
sS'velocities_arr_8'
p642
I0
sS'velocities_arr_9'
p643
I0
sg55
I144
sg73
I185
sS'velocities_arr_7'
p644
I0
sS'category_exercise_name_12'
p645
I0
sS'category_exercise_name_13'
p646
I0
sS'category_exercise_name_10'
p647
I0
sS'category_exercise_name_11'
p648
I0
sS'velocities_arr_10'
p649
I0
sg53
I6
sg80
I6
sS'category_exercise_name_0'
p650
I1
sS'category_exercise_name_1'
p651
I0
sS'category_exercise_name_2'
p652
I0
sS'category_exercise_name_3'
p653
I0
sS'category_exercise_name_4'
p654
I0
sS'category_exercise_name_5'
p655
I0
sS'category_exercise_name_6'
p656
I0
sS'category_exercise_name_7'
p657
I0
sS'category_exercise_name_8'
p658
I0
sS'category_exercise_name_9'
p659
I0
sg91
I3
sg56
I0
sg92
I0
sS'velocities_arr_11'
p660
I0
sg60
I0
sg36
F0.0
sa(dp661
g13
I5
sS'velocities_arr_0'
p662
F0.71
sS'velocities_arr_2'
p663
F0.77
sS'velocities_arr_3'
p664
F0.71
sS'velocities_arr_4'
p665
F1.22
sS'velocities_arr_5'
p666
F0.88
sS'velocities_arr_6'
p667
I0
sS'velocities_arr_1'
p668
F0.9
sS'velocities_arr_8'
p669
I0
sS'velocities_arr_9'
p670
I0
sg55
I132
sg73
I165
sS'velocities_arr_7'
p671
I0
sS'category_exercise_name_12'
p672
I0
sS'category_exercise_name_13'
p673
I0
sS'category_exercise_name_10'
p674
I0
sS'category_exercise_name_11'
p675
I0
sS'velocities_arr_10'
p676
I0
sg53
I6
sg80
I6
sS'category_exercise_name_0'
p677
I1
sS'category_exercise_name_1'
p678
I0
sS'category_exercise_name_2'
p679
I0
sS'category_exercise_name_3'
p680
I0
sS'category_exercise_name_4'
p681
I0
sS'category_exercise_name_5'
p682
I0
sS'category_exercise_name_6'
p683
I0
sS'category_exercise_name_7'
p684
I0
sS'category_exercise_name_8'
p685
I0
sS'category_exercise_name_9'
p686
I0
sg91
I4
sg56
I0
sg92
I0
sS'velocities_arr_11'
p687
I0
sg60
I0
sg36
F0.0
sa(dp688
g13
I5
sS'velocities_arr_0'
p689
F0.64
sS'velocities_arr_2'
p690
F0.68
sS'velocities_arr_3'
p691
F0.69
sS'velocities_arr_4'
p692
F0.68
sS'velocities_arr_5'
p693
F0.58
sS'velocities_arr_6'
p694
I0
sS'velocities_arr_1'
p695
F0.91
sS'velocities_arr_8'
p696
I0
sS'velocities_arr_9'
p697
I0
sg55
I149
sg73
I175
sS'velocities_arr_7'
p698
I0
sS'category_exercise_name_12'
p699
I0
sS'category_exercise_name_13'
p700
I0
sS'category_exercise_name_10'
p701
I0
sS'category_exercise_name_11'
p702
I0
sS'velocities_arr_10'
p703
I0
sg53
I6
sg80
I6
sS'category_exercise_name_0'
p704
I1
sS'category_exercise_name_1'
p705
I0
sS'category_exercise_name_2'
p706
I0
sS'category_exercise_name_3'
p707
I0
sS'category_exercise_name_4'
p708
I0
sS'category_exercise_name_5'
p709
I0
sS'category_exercise_name_6'
p710
I0
sS'category_exercise_name_7'
p711
I0
sS'category_exercise_name_8'
p712
I0
sS'category_exercise_name_9'
p713
I0
sg91
I5
sg56
I0
sg92
I0
sS'velocities_arr_11'
p714
I0
sg60
I0
sg36
F0.0
sa(dp715
g13
I5
sS'velocities_arr_0'
p716
F0.72
sS'velocities_arr_2'
p717
F1.15
sS'velocities_arr_3'
p718
F0.31
sS'velocities_arr_4'
p719
F0.72
sS'velocities_arr_5'
p720
F0.63
sS'velocities_arr_6'
p721
I0
sS'velocities_arr_1'
p722
F0.65
sS'velocities_arr_8'
p723
I0
sS'velocities_arr_9'
p724
I0
sg55
I148
sg73
I170
sS'velocities_arr_7'
p725
I0
sS'category_exercise_name_12'
p726
I0
sS'category_exercise_name_13'
p727
I0
sS'category_exercise_name_10'
p728
I0
sS'category_exercise_name_11'
p729
I0
sS'velocities_arr_10'
p730
I0
sg53
I6
sg80
I6
sS'category_exercise_name_0'
p731
I1
sS'category_exercise_name_1'
p732
I0
sS'category_exercise_name_2'
p733
I0
sS'category_exercise_name_3'
p734
I0
sS'category_exercise_name_4'
p735
I0
sS'category_exercise_name_5'
p736
I0
sS'category_exercise_name_6'
p737
I0
sS'category_exercise_name_7'
p738
I0
sS'category_exercise_name_8'
p739
I0
sS'category_exercise_name_9'
p740
I0
sg91
I6
sg56
I0
sg92
I0
sS'velocities_arr_11'
p741
I0
sg60
I1
sg36
F0.0
sa(dp742
g13
I5
sg64
I0
sg65
I0
sg66
I0
sg67
I0
sg68
I0
sg69
I0
sg70
I0
sg71
I0
sg72
I0
sg55
I-1
sg73
I165
sg74
I0
sg75
I0
sg76
I0
sg77
I0
sg78
I0
sg53
I-1
sg80
I6
sg81
I1
sg82
I0
sg83
I0
sg84
I0
sg85
I0
sg86
I0
sg87
I0
sg88
I0
sg89
I0
sg90
I0
sg91
I7
sg56
I-1
sg79
I0
sg92
I0
sg93
I0
sg60
I-1
sg36
F0.0
sas.