(dp0
S'userx'
p1
(dp2
S'wrist_width_inches'
p3
I7
sS'height_inches'
p4
F70.0
sS'harris_benedict_bmr'
p5
I-1
sS'genetically_gifted'
p6
I0
sS'years_old'
p7
I31
sS'ankle_width_inches'
p8
I9
sS'sex_is_male'
p9
I1
ssS'dayseriesx'
p10
(lp11
(dp12
S'day_number'
p13
I-1
sS'sleeptime_awake_hrs'
p14
I-1
sS'withings_body_water_percent'
p15
I-1
sS'heart_rate_variability_rmssd'
p16
I-1
sS'sleeptime_deep_rem_hrs'
p17
I-1
sS'withings_body_fat_percent'
p18
I-1
sS'withings_weight_lbs'
p19
I-1
sS'sleeptime_efficiency_percent'
p20
I-1
sS'post_day_calories_in'
p21
I-1
sS'post_day_fat_g'
p22
I-1
sS'sleeptime_bed_time_ampm_index'
p23
I-1
sS'withings_muscle_mass_percent'
p24
I-1
sS'days_since_last_recorded_day'
p25
I-1
sS'sleeptime_alarm_ring_ampm_index'
p26
I-1
sS'withings_bone_mass_percent'
p27
I-1
sS'sleeptime_snoozed'
p28
I-1
sS'sleeptime_light_sleep_hrs'
p29
I-1
sS'withings_heart_rate_bpm'
p30
I-1
sS'sleeptime_alarm_set_ampm_index'
p31
I-1
sS'post_day_protein_g'
p32
I-1
sS'post_day_wearable_calories_burned'
p33
I-1
sS'withings_pulse_wave_velocity_m_per_s'
p34
I-1
sS'sleeptime_rise_time_ampm_index'
p35
I-1
sS'days_since_last_workout'
p36
I-1
sS'post_day_carbs_g'
p37
I-1
sag12
ag12
ag12
ag12
ag12
ag12
ag12
ag12
ag12
a(dp38
g13
I0
sg14
F2.0166666666666666
sg15
I-1
sg16
I-1
sg17
F5.116666666666666
sg18
I-1
sg19
I-1
sg20
I74
sg21
I-1
sg22
I-1
sg23
I1397
sg24
I-1
sg25
F0.0
sg26
I415
sg27
I-1
sg28
I5
sg29
F0.9166666666666666
sg30
I-1
sg31
I425
sg32
I-1
sg33
I-1
sg34
I-1
sg35
I441
sg36
I0
sg37
I-1
sasS'workouty'
p39
(dp40
S'velocities_arr_0'
p41
F0.73
sS'velocities_arr_1'
p42
F0.68
sS'velocities_arr_2'
p43
F0.63
sS'velocities_arr_3'
p44
F0.82
sS'velocities_arr_4'
p45
F0.82
sS'velocities_arr_5'
p46
I0
sS'velocities_arr_6'
p47
I0
sS'velocities_arr_7'
p48
I0
sS'reps_completed'
p49
I5
sS'velocities_arr_9'
p50
I0
sS'postset_heartrate'
p51
I147
sS'went_to_failure'
p52
I0
sS'velocities_arr_8'
p53
I0
sS'velocities_arr_10'
p54
I0
sS'velocities_arr_11'
p55
I0
sS'did_pull_muscle'
p56
I0
ssS'workoutxseries'
p57
(lp58
(dp59
g13
I1
sS'velocities_arr_0'
p60
I0
sS'velocities_arr_2'
p61
I0
sS'velocities_arr_3'
p62
I0
sS'velocities_arr_4'
p63
I0
sS'velocities_arr_5'
p64
I0
sS'velocities_arr_6'
p65
I0
sS'velocities_arr_1'
p66
I0
sS'velocities_arr_8'
p67
I0
sS'velocities_arr_9'
p68
I0
sg51
I-1
sS'weight_lbs'
p69
I-1
sS'velocities_arr_7'
p70
I0
sS'category_exercise_name_12'
p71
I0
sS'category_exercise_name_10'
p72
I0
sS'category_exercise_name_11'
p73
I0
sS'category_exercise_name_2'
p74
I0
sg49
I-1
sS'reps_planned'
p75
I-1
sS'category_exercise_name_0'
p76
I0
sS'category_exercise_name_1'
p77
I0
sS'velocities_arr_10'
p78
I0
sS'category_exercise_name_3'
p79
I0
sS'category_exercise_name_4'
p80
I0
sS'category_exercise_name_5'
p81
I0
sS'category_exercise_name_6'
p82
I0
sS'category_exercise_name_7'
p83
I0
sS'category_exercise_name_8'
p84
I0
sS'category_exercise_name_9'
p85
I0
sS'set_number_of_the_day'
p86
I11
sg52
I0
sS'used_lifting_gear'
p87
I0
sS'velocities_arr_11'
p88
I0
sg56
I0
sg36
I0
sag59
ag59
ag59
ag59
ag59
ag59
ag59
ag59
ag59
ag59
ag59
ag59
ag59
ag59
ag59
ag59
ag59
ag59
ag59
ag59
ag59
ag59
ag59
ag59
ag59
ag59
a(dp89
g13
I1
sS'velocities_arr_0'
p90
I0
sS'velocities_arr_2'
p91
I0
sS'velocities_arr_3'
p92
I0
sS'velocities_arr_4'
p93
I0
sS'velocities_arr_5'
p94
I0
sS'velocities_arr_6'
p95
I0
sS'velocities_arr_1'
p96
I0
sS'velocities_arr_8'
p97
I0
sS'velocities_arr_9'
p98
I0
sg51
I-1
sg69
I45
sS'velocities_arr_7'
p99
I0
sS'category_exercise_name_12'
p100
I0
sS'category_exercise_name_10'
p101
I0
sS'category_exercise_name_11'
p102
I0
sS'velocities_arr_10'
p103
I0
sg49
I5
sg75
I5
sS'category_exercise_name_0'
p104
I0
sS'category_exercise_name_1'
p105
I0
sS'category_exercise_name_2'
p106
I1
sS'category_exercise_name_3'
p107
I0
sS'category_exercise_name_4'
p108
I0
sS'category_exercise_name_5'
p109
I0
sS'category_exercise_name_6'
p110
I0
sS'category_exercise_name_7'
p111
I0
sS'category_exercise_name_8'
p112
I0
sS'category_exercise_name_9'
p113
I0
sg86
I0
sg52
I0
sg87
I0
sS'velocities_arr_11'
p114
I0
sg56
I0
sg36
I0
sa(dp115
g13
I1
sS'velocities_arr_0'
p116
I0
sS'velocities_arr_2'
p117
I0
sS'velocities_arr_3'
p118
I0
sS'velocities_arr_4'
p119
I0
sS'velocities_arr_5'
p120
I0
sS'velocities_arr_6'
p121
I0
sS'velocities_arr_1'
p122
I0
sS'velocities_arr_8'
p123
I0
sS'velocities_arr_9'
p124
I0
sg51
I112
sg69
I45
sS'velocities_arr_7'
p125
I0
sS'category_exercise_name_12'
p126
I0
sS'category_exercise_name_10'
p127
I0
sS'category_exercise_name_11'
p128
I0
sS'velocities_arr_10'
p129
I0
sg49
I5
sg75
I5
sS'category_exercise_name_0'
p130
I0
sS'category_exercise_name_1'
p131
I0
sS'category_exercise_name_2'
p132
I1
sS'category_exercise_name_3'
p133
I0
sS'category_exercise_name_4'
p134
I0
sS'category_exercise_name_5'
p135
I0
sS'category_exercise_name_6'
p136
I0
sS'category_exercise_name_7'
p137
I0
sS'category_exercise_name_8'
p138
I0
sS'category_exercise_name_9'
p139
I0
sg86
I1
sg52
I0
sg87
I0
sS'velocities_arr_11'
p140
I0
sg56
I0
sg36
I0
sa(dp141
g13
I1
sS'velocities_arr_0'
p142
I0
sS'velocities_arr_2'
p143
I0
sS'velocities_arr_3'
p144
I0
sS'velocities_arr_4'
p145
I0
sS'velocities_arr_5'
p146
I0
sS'velocities_arr_6'
p147
I0
sS'velocities_arr_1'
p148
I0
sS'velocities_arr_8'
p149
I0
sS'velocities_arr_9'
p150
I0
sg51
I101
sg69
I135
sS'velocities_arr_7'
p151
I0
sS'category_exercise_name_12'
p152
I0
sS'category_exercise_name_10'
p153
I0
sS'category_exercise_name_11'
p154
I0
sS'velocities_arr_10'
p155
I0
sg49
I2
sg75
I2
sS'category_exercise_name_0'
p156
I0
sS'category_exercise_name_1'
p157
I0
sS'category_exercise_name_2'
p158
I1
sS'category_exercise_name_3'
p159
I0
sS'category_exercise_name_4'
p160
I0
sS'category_exercise_name_5'
p161
I0
sS'category_exercise_name_6'
p162
I0
sS'category_exercise_name_7'
p163
I0
sS'category_exercise_name_8'
p164
I0
sS'category_exercise_name_9'
p165
I0
sg86
I2
sg52
I0
sg87
I0
sS'velocities_arr_11'
p166
I0
sg56
I0
sg36
I0
sa(dp167
g13
I1
sS'velocities_arr_0'
p168
I0
sS'velocities_arr_2'
p169
I0
sS'velocities_arr_3'
p170
I0
sS'velocities_arr_4'
p171
I0
sS'velocities_arr_5'
p172
I0
sS'velocities_arr_6'
p173
I0
sS'velocities_arr_1'
p174
I0
sS'velocities_arr_8'
p175
I0
sS'velocities_arr_9'
p176
I0
sg51
I111
sg69
I185
sS'velocities_arr_7'
p177
I0
sS'category_exercise_name_12'
p178
I0
sS'category_exercise_name_10'
p179
I0
sS'category_exercise_name_11'
p180
I0
sS'velocities_arr_10'
p181
I0
sg49
I2
sg75
I2
sS'category_exercise_name_0'
p182
I0
sS'category_exercise_name_1'
p183
I0
sS'category_exercise_name_2'
p184
I1
sS'category_exercise_name_3'
p185
I0
sS'category_exercise_name_4'
p186
I0
sS'category_exercise_name_5'
p187
I0
sS'category_exercise_name_6'
p188
I0
sS'category_exercise_name_7'
p189
I0
sS'category_exercise_name_8'
p190
I0
sS'category_exercise_name_9'
p191
I0
sg86
I3
sg52
I0
sg87
I0
sS'velocities_arr_11'
p192
I0
sg56
I0
sg36
I0
sa(dp193
g13
I1
sS'velocities_arr_0'
p194
F0.43
sS'velocities_arr_2'
p195
I0
sS'velocities_arr_3'
p196
I0
sS'velocities_arr_4'
p197
I0
sS'velocities_arr_5'
p198
I0
sS'velocities_arr_6'
p199
I0
sS'velocities_arr_1'
p200
F0.43
sS'velocities_arr_8'
p201
I0
sS'velocities_arr_9'
p202
I0
sg51
I110
sg69
I225
sS'velocities_arr_7'
p203
I0
sS'category_exercise_name_12'
p204
I0
sS'category_exercise_name_10'
p205
I0
sS'category_exercise_name_11'
p206
I0
sS'velocities_arr_10'
p207
I0
sg49
I2
sg75
I2
sS'category_exercise_name_0'
p208
I0
sS'category_exercise_name_1'
p209
I0
sS'category_exercise_name_2'
p210
I1
sS'category_exercise_name_3'
p211
I0
sS'category_exercise_name_4'
p212
I0
sS'category_exercise_name_5'
p213
I0
sS'category_exercise_name_6'
p214
I0
sS'category_exercise_name_7'
p215
I0
sS'category_exercise_name_8'
p216
I0
sS'category_exercise_name_9'
p217
I0
sg86
I4
sg52
I0
sg87
I0
sS'velocities_arr_11'
p218
I0
sg56
I0
sg36
I0
sa(dp219
g13
I1
sS'velocities_arr_0'
p220
F0.43
sS'velocities_arr_2'
p221
F0.43
sS'velocities_arr_3'
p222
I0
sS'velocities_arr_4'
p223
I0
sS'velocities_arr_5'
p224
I0
sS'velocities_arr_6'
p225
I0
sS'velocities_arr_1'
p226
F0.43
sS'velocities_arr_8'
p227
I0
sS'velocities_arr_9'
p228
I0
sg51
I130
sg69
I245
sS'velocities_arr_7'
p229
I0
sS'category_exercise_name_12'
p230
I0
sS'category_exercise_name_10'
p231
I0
sS'category_exercise_name_11'
p232
I0
sS'velocities_arr_10'
p233
I0
sg49
I3
sg75
I3
sS'category_exercise_name_0'
p234
I0
sS'category_exercise_name_1'
p235
I0
sS'category_exercise_name_2'
p236
I1
sS'category_exercise_name_3'
p237
I0
sS'category_exercise_name_4'
p238
I0
sS'category_exercise_name_5'
p239
I0
sS'category_exercise_name_6'
p240
I0
sS'category_exercise_name_7'
p241
I0
sS'category_exercise_name_8'
p242
I0
sS'category_exercise_name_9'
p243
I0
sg86
I5
sg52
I0
sg87
I0
sS'velocities_arr_11'
p244
I0
sg56
I0
sg36
I0
sa(dp245
g13
I1
sS'velocities_arr_0'
p246
F0.38
sS'velocities_arr_2'
p247
I0
sS'velocities_arr_3'
p248
I0
sS'velocities_arr_4'
p249
I0
sS'velocities_arr_5'
p250
I0
sS'velocities_arr_6'
p251
I0
sS'velocities_arr_1'
p252
I0
sS'velocities_arr_8'
p253
I0
sS'velocities_arr_9'
p254
I0
sg51
I111
sg69
I265
sS'velocities_arr_7'
p255
I0
sS'category_exercise_name_12'
p256
I0
sS'category_exercise_name_10'
p257
I0
sS'category_exercise_name_11'
p258
I0
sS'velocities_arr_10'
p259
I0
sg49
I1
sg75
I1
sS'category_exercise_name_0'
p260
I0
sS'category_exercise_name_1'
p261
I0
sS'category_exercise_name_2'
p262
I1
sS'category_exercise_name_3'
p263
I0
sS'category_exercise_name_4'
p264
I0
sS'category_exercise_name_5'
p265
I0
sS'category_exercise_name_6'
p266
I0
sS'category_exercise_name_7'
p267
I0
sS'category_exercise_name_8'
p268
I0
sS'category_exercise_name_9'
p269
I0
sg86
I6
sg52
I0
sg87
I0
sS'velocities_arr_11'
p270
I0
sg56
I0
sg36
I0
sa(dp271
g13
I1
sS'velocities_arr_0'
p272
F0.61
sS'velocities_arr_2'
p273
F0.77
sS'velocities_arr_3'
p274
F0.7
sS'velocities_arr_4'
p275
F0.68
sS'velocities_arr_5'
p276
F0.71
sS'velocities_arr_6'
p277
F0.63
sS'velocities_arr_1'
p278
F0.71
sS'velocities_arr_8'
p279
F0.63
sS'velocities_arr_9'
p280
F0.63
sg51
I109
sg69
I95
sS'velocities_arr_7'
p281
F0.63
sS'category_exercise_name_12'
p282
I0
sS'category_exercise_name_10'
p283
I0
sS'category_exercise_name_11'
p284
I0
sS'velocities_arr_10'
p285
I0
sg49
I10
sg75
I10
sS'category_exercise_name_0'
p286
I0
sS'category_exercise_name_1'
p287
I0
sS'category_exercise_name_2'
p288
I0
sS'category_exercise_name_3'
p289
I1
sS'category_exercise_name_4'
p290
I0
sS'category_exercise_name_5'
p291
I0
sS'category_exercise_name_6'
p292
I0
sS'category_exercise_name_7'
p293
I0
sS'category_exercise_name_8'
p294
I0
sS'category_exercise_name_9'
p295
I0
sg86
I7
sg52
I0
sg87
I0
sS'velocities_arr_11'
p296
I0
sg56
I0
sg36
I0
sa(dp297
g13
I1
sS'velocities_arr_0'
p298
F0.56
sS'velocities_arr_2'
p299
F0.58
sS'velocities_arr_3'
p300
F0.52
sS'velocities_arr_4'
p301
F0.36
sS'velocities_arr_5'
p302
F0.36
sS'velocities_arr_6'
p303
F0.36
sS'velocities_arr_1'
p304
F0.55
sS'velocities_arr_8'
p305
I0
sS'velocities_arr_9'
p306
I0
sg51
I107
sg69
I105
sS'velocities_arr_7'
p307
I0
sS'category_exercise_name_12'
p308
I0
sS'category_exercise_name_10'
p309
I0
sS'category_exercise_name_11'
p310
I0
sS'velocities_arr_10'
p311
I0
sg49
I7
sg75
I7
sS'category_exercise_name_0'
p312
I0
sS'category_exercise_name_1'
p313
I0
sS'category_exercise_name_2'
p314
I0
sS'category_exercise_name_3'
p315
I1
sS'category_exercise_name_4'
p316
I0
sS'category_exercise_name_5'
p317
I0
sS'category_exercise_name_6'
p318
I0
sS'category_exercise_name_7'
p319
I0
sS'category_exercise_name_8'
p320
I0
sS'category_exercise_name_9'
p321
I0
sg86
I8
sg52
I0
sg87
I0
sS'velocities_arr_11'
p322
I0
sg56
I0
sg36
I0
sa(dp323
g13
I1
sS'velocities_arr_0'
p324
F0.55
sS'velocities_arr_2'
p325
F0.48
sS'velocities_arr_3'
p326
F0.38
sS'velocities_arr_4'
p327
F0.38
sS'velocities_arr_5'
p328
I0
sS'velocities_arr_6'
p329
I0
sS'velocities_arr_1'
p330
F0.29
sS'velocities_arr_8'
p331
I0
sS'velocities_arr_9'
p332
I0
sg51
I111
sg69
I115
sS'velocities_arr_7'
p333
I0
sS'category_exercise_name_12'
p334
I0
sS'category_exercise_name_10'
p335
I0
sS'category_exercise_name_11'
p336
I0
sS'velocities_arr_10'
p337
I0
sg49
I5
sg75
I5
sS'category_exercise_name_0'
p338
I0
sS'category_exercise_name_1'
p339
I0
sS'category_exercise_name_2'
p340
I0
sS'category_exercise_name_3'
p341
I1
sS'category_exercise_name_4'
p342
I0
sS'category_exercise_name_5'
p343
I0
sS'category_exercise_name_6'
p344
I0
sS'category_exercise_name_7'
p345
I0
sS'category_exercise_name_8'
p346
I0
sS'category_exercise_name_9'
p347
I0
sg86
I9
sg52
I0
sg87
I0
sS'velocities_arr_11'
p348
I0
sg56
I0
sg36
I0
sa(dp349
g13
I1
sS'velocities_arr_0'
p350
F0.37
sS'velocities_arr_2'
p351
F0.34
sS'velocities_arr_3'
p352
I0
sS'velocities_arr_4'
p353
I0
sS'velocities_arr_5'
p354
I0
sS'velocities_arr_6'
p355
I0
sS'velocities_arr_1'
p356
F0.34
sS'velocities_arr_8'
p357
I0
sS'velocities_arr_9'
p358
I0
sg51
I111
sg69
I125
sS'velocities_arr_7'
p359
I0
sS'category_exercise_name_12'
p360
I0
sS'category_exercise_name_10'
p361
I0
sS'category_exercise_name_11'
p362
I0
sS'velocities_arr_10'
p363
I0
sg49
I3
sg75
I3
sS'category_exercise_name_0'
p364
I0
sS'category_exercise_name_1'
p365
I0
sS'category_exercise_name_2'
p366
I0
sS'category_exercise_name_3'
p367
I1
sS'category_exercise_name_4'
p368
I0
sS'category_exercise_name_5'
p369
I0
sS'category_exercise_name_6'
p370
I0
sS'category_exercise_name_7'
p371
I0
sS'category_exercise_name_8'
p372
I0
sS'category_exercise_name_9'
p373
I0
sg86
I10
sg52
I0
sg87
I0
sS'velocities_arr_11'
p374
I0
sg56
I0
sg36
I0
sa(dp375
g13
I1
sg60
I0
sg61
I0
sg62
I0
sg63
I0
sg64
I0
sg65
I0
sg66
I0
sg67
I0
sg68
I0
sg51
I-1
sg69
I135
sg70
I0
sg71
I0
sg72
I0
sg73
I0
sg49
I-1
sg75
I5
sg76
I1
sg77
I0
sg78
I0
sg79
I0
sg80
I0
sg81
I0
sg82
I0
sg83
I0
sg84
I0
sg85
I0
sg86
I11
sg52
I-1
sg74
I0
sg87
I0
sg88
I0
sg56
I-1
sg36
I0
sas.