(dp0
S'userx'
p1
(dp2
S'wrist_width_inches'
p3
I7
sS'height_inches'
p4
F70.0
sS'harris_benedict_bmr'
p5
I-1
sS'genetically_gifted'
p6
I0
sS'years_old'
p7
I31
sS'ankle_width_inches'
p8
I9
sS'sex_is_male'
p9
I1
ssS'dayseriesx'
p10
(lp11
(dp12
S'day_number'
p13
I-1
sS'sleeptime_awake_hrs'
p14
I-1
sS'withings_body_water_percent'
p15
I-1
sS'heart_rate_variability_rmssd'
p16
I-1
sS'sleeptime_deep_rem_hrs'
p17
I-1
sS'withings_body_fat_percent'
p18
I-1
sS'withings_weight_lbs'
p19
I-1
sS'sleeptime_efficiency_percent'
p20
I-1
sS'post_day_calories_in'
p21
I-1
sS'post_day_fat_g'
p22
I-1
sS'sleeptime_bed_time_ampm_index'
p23
I-1
sS'withings_muscle_mass_percent'
p24
I-1
sS'days_since_last_recorded_day'
p25
I-1
sS'sleeptime_alarm_ring_ampm_index'
p26
I-1
sS'withings_bone_mass_percent'
p27
I-1
sS'sleeptime_snoozed'
p28
I-1
sS'sleeptime_light_sleep_hrs'
p29
I-1
sS'withings_heart_rate_bpm'
p30
I-1
sS'sleeptime_alarm_set_ampm_index'
p31
I-1
sS'post_day_protein_g'
p32
I-1
sS'post_day_wearable_calories_burned'
p33
I-1
sS'withings_pulse_wave_velocity_m_per_s'
p34
I-1
sS'sleeptime_rise_time_ampm_index'
p35
I-1
sS'days_since_last_workout'
p36
I-1
sS'post_day_carbs_g'
p37
I-1
sag12
ag12
ag12
ag12
ag12
ag12
a(dp38
g13
I0
sg14
F0.48333333333333334
sg15
F56.9
sg16
I-1
sg17
F3.55
sg18
F14.0
sg19
F163.7
sg20
F94.0
sg21
I-1
sg22
I-1
sg23
I93
sg24
F82.0
sg25
F0.0
sg26
I1440
sg27
F4.0
sg28
I0
sg29
F4.133333333333334
sg30
I94
sg31
I660
sg32
I-1
sg33
I-1
sg34
F7.4
sg35
I584
sg36
I0
sg37
I-1
sa(dp39
g13
I1
sg14
F0.5
sg15
F56.9
sg16
I-1
sg17
F1.7333333333333334
sg18
F14.9
sg19
F163.7
sg20
F92.0
sg21
I-1
sg22
I-1
sg23
I8
sg24
F82.0
sg25
F1.0
sg26
I424
sg27
F4.0
sg28
I2
sg29
F4.833333333333333
sg30
I97
sg31
I425
sg32
I-1
sg33
I-1
sg34
F7.4
sg35
I433
sg36
F1.0
sg37
I-1
sa(dp40
g13
I2
sg14
F1.6166666666666667
sg15
F55.6
sg16
I-1
sg17
F2.1
sg18
F16.2
sg19
F163.8
sg20
F79.0
sg21
I-1
sg22
I-1
sg23
I664
sg24
F79.8
sg25
F1.0
sg26
I406
sg27
F3.9
sg28
I1
sg29
F4.15
sg30
I92
sg31
I425
sg32
I-1
sg33
I-1
sg34
F7.4
sg35
I417
sg36
F2.0
sg37
I-1
sa(dp41
g13
I3
sg14
F1.8333333333333335
sg15
F55.6
sg16
I-1
sg17
F2.783333333333333
sg18
F14.8
sg19
I164
sg20
F75.0
sg21
I-1
sg22
I-1
sg23
I1423
sg24
F79.8
sg25
F1.0
sg26
I423
sg27
F3.9
sg28
I2
sg29
F2.9
sg30
I93
sg31
I425
sg32
I-1
sg33
I-1
sg34
F7.4
sg35
I436
sg36
F0.0
sg37
I-1
sasS'workouty'
p42
(dp43
S'velocities_arr_0'
p44
F2.71
sS'velocities_arr_1'
p45
F2.52
sS'velocities_arr_2'
p46
F1.89
sS'velocities_arr_3'
p47
F2.03
sS'velocities_arr_4'
p48
F1.41
sS'velocities_arr_5'
p49
F2.16
sS'velocities_arr_6'
p50
F2.25
sS'velocities_arr_7'
p51
F1.86
sS'reps_completed'
p52
I8
sS'velocities_arr_9'
p53
I0
sS'postset_heartrate'
p54
I117
sS'went_to_failure'
p55
I0
sS'velocities_arr_8'
p56
I0
sS'velocities_arr_10'
p57
I0
sS'velocities_arr_11'
p58
I0
sS'did_pull_muscle'
p59
I0
ssS'workoutxseries'
p60
(lp61
(dp62
g13
I4
sS'velocities_arr_0'
p63
I0
sS'velocities_arr_2'
p64
I0
sS'velocities_arr_3'
p65
I0
sS'velocities_arr_4'
p66
I0
sS'velocities_arr_5'
p67
I0
sS'velocities_arr_6'
p68
I0
sS'velocities_arr_1'
p69
I0
sS'velocities_arr_8'
p70
I0
sS'velocities_arr_9'
p71
I0
sg54
I-1
sS'weight_lbs'
p72
I-1
sS'velocities_arr_7'
p73
I0
sS'category_exercise_name_12'
p74
I0
sS'category_exercise_name_13'
p75
I0
sS'category_exercise_name_10'
p76
I0
sS'category_exercise_name_11'
p77
I0
sS'category_exercise_name_2'
p78
I0
sg52
I-1
sS'reps_planned'
p79
I-1
sS'category_exercise_name_0'
p80
I0
sS'category_exercise_name_1'
p81
I0
sS'velocities_arr_10'
p82
I0
sS'category_exercise_name_3'
p83
I0
sS'category_exercise_name_4'
p84
I0
sS'category_exercise_name_5'
p85
I0
sS'category_exercise_name_6'
p86
I0
sS'category_exercise_name_7'
p87
I0
sS'category_exercise_name_8'
p88
I0
sS'category_exercise_name_9'
p89
I0
sS'set_number_of_the_day'
p90
I5
sg55
I0
sS'used_lifting_gear'
p91
I0
sS'velocities_arr_11'
p92
I0
sg59
I0
sg36
I0
sag62
ag62
ag62
ag62
ag62
ag62
ag62
ag62
ag62
ag62
ag62
ag62
ag62
ag62
ag62
ag62
ag62
ag62
ag62
ag62
ag62
ag62
ag62
ag62
ag62
ag62
ag62
a(dp93
g13
I1
sS'velocities_arr_0'
p94
F0.77
sS'velocities_arr_2'
p95
F1.49
sS'velocities_arr_3'
p96
F0.68
sS'velocities_arr_4'
p97
F0.77
sS'velocities_arr_5'
p98
I0
sS'velocities_arr_6'
p99
I0
sS'velocities_arr_1'
p100
F0.61
sS'velocities_arr_8'
p101
I0
sS'velocities_arr_9'
p102
I0
sg54
I115
sg72
I135
sS'velocities_arr_7'
p103
I0
sS'category_exercise_name_12'
p104
I0
sS'category_exercise_name_13'
p105
I0
sS'category_exercise_name_10'
p106
I0
sS'category_exercise_name_11'
p107
I0
sS'velocities_arr_10'
p108
I0
sg52
I5
sg79
I5
sS'category_exercise_name_0'
p109
I1
sS'category_exercise_name_1'
p110
I0
sS'category_exercise_name_2'
p111
I0
sS'category_exercise_name_3'
p112
I0
sS'category_exercise_name_4'
p113
I0
sS'category_exercise_name_5'
p114
I0
sS'category_exercise_name_6'
p115
I0
sS'category_exercise_name_7'
p116
I0
sS'category_exercise_name_8'
p117
I0
sS'category_exercise_name_9'
p118
I0
sg90
I0
sg55
I0
sg91
I0
sS'velocities_arr_11'
p119
I0
sg59
I0
sg36
I0
sa(dp120
g13
I1
sS'velocities_arr_0'
p121
F0.65
sS'velocities_arr_2'
p122
F1.46
sS'velocities_arr_3'
p123
F0.74
sS'velocities_arr_4'
p124
F0.73
sS'velocities_arr_5'
p125
F0.73
sS'velocities_arr_6'
p126
I0
sS'velocities_arr_1'
p127
F0.75
sS'velocities_arr_8'
p128
I0
sS'velocities_arr_9'
p129
I0
sg54
I137
sg72
I155
sS'velocities_arr_7'
p130
I0
sS'category_exercise_name_12'
p131
I0
sS'category_exercise_name_13'
p132
I0
sS'category_exercise_name_10'
p133
I0
sS'category_exercise_name_11'
p134
I0
sS'velocities_arr_10'
p135
I0
sg52
I6
sg79
I6
sS'category_exercise_name_0'
p136
I1
sS'category_exercise_name_1'
p137
I0
sS'category_exercise_name_2'
p138
I0
sS'category_exercise_name_3'
p139
I0
sS'category_exercise_name_4'
p140
I0
sS'category_exercise_name_5'
p141
I0
sS'category_exercise_name_6'
p142
I0
sS'category_exercise_name_7'
p143
I0
sS'category_exercise_name_8'
p144
I0
sS'category_exercise_name_9'
p145
I0
sg90
I1
sg55
I0
sg91
I0
sS'velocities_arr_11'
p146
I0
sg59
I0
sg36
I0
sa(dp147
g13
I1
sS'velocities_arr_0'
p148
F0.59
sS'velocities_arr_2'
p149
F0.67
sS'velocities_arr_3'
p150
F0.66
sS'velocities_arr_4'
p151
F0.67
sS'velocities_arr_5'
p152
F0.67
sS'velocities_arr_6'
p153
I0
sS'velocities_arr_1'
p154
F0.64
sS'velocities_arr_8'
p155
I0
sS'velocities_arr_9'
p156
I0
sg54
I132
sg72
I185
sS'velocities_arr_7'
p157
I0
sS'category_exercise_name_12'
p158
I0
sS'category_exercise_name_13'
p159
I0
sS'category_exercise_name_10'
p160
I0
sS'category_exercise_name_11'
p161
I0
sS'velocities_arr_10'
p162
I0
sg52
I6
sg79
I6
sS'category_exercise_name_0'
p163
I1
sS'category_exercise_name_1'
p164
I0
sS'category_exercise_name_2'
p165
I0
sS'category_exercise_name_3'
p166
I0
sS'category_exercise_name_4'
p167
I0
sS'category_exercise_name_5'
p168
I0
sS'category_exercise_name_6'
p169
I0
sS'category_exercise_name_7'
p170
I0
sS'category_exercise_name_8'
p171
I0
sS'category_exercise_name_9'
p172
I0
sg90
I2
sg55
I0
sg91
I0
sS'velocities_arr_11'
p173
I0
sg59
I0
sg36
I0
sa(dp174
g13
I1
sS'velocities_arr_0'
p175
F0.64
sS'velocities_arr_2'
p176
F0.63
sS'velocities_arr_3'
p177
F0.58
sS'velocities_arr_4'
p178
F0.6
sS'velocities_arr_5'
p179
F0.6
sS'velocities_arr_6'
p180
I0
sS'velocities_arr_1'
p181
F0.71
sS'velocities_arr_8'
p182
I0
sS'velocities_arr_9'
p183
I0
sg54
I150
sg72
I195
sS'velocities_arr_7'
p184
I0
sS'category_exercise_name_12'
p185
I0
sS'category_exercise_name_13'
p186
I0
sS'category_exercise_name_10'
p187
I0
sS'category_exercise_name_11'
p188
I0
sS'velocities_arr_10'
p189
I0
sg52
I6
sg79
I6
sS'category_exercise_name_0'
p190
I1
sS'category_exercise_name_1'
p191
I0
sS'category_exercise_name_2'
p192
I0
sS'category_exercise_name_3'
p193
I0
sS'category_exercise_name_4'
p194
I0
sS'category_exercise_name_5'
p195
I0
sS'category_exercise_name_6'
p196
I0
sS'category_exercise_name_7'
p197
I0
sS'category_exercise_name_8'
p198
I0
sS'category_exercise_name_9'
p199
I0
sg90
I3
sg55
I0
sg91
I0
sS'velocities_arr_11'
p200
I0
sg59
I0
sg36
I0
sa(dp201
g13
I1
sS'velocities_arr_0'
p202
F1.44
sS'velocities_arr_2'
p203
F0.79
sS'velocities_arr_3'
p204
F0.6
sS'velocities_arr_4'
p205
F0.56
sS'velocities_arr_5'
p206
F0.9
sS'velocities_arr_6'
p207
I0
sS'velocities_arr_1'
p208
F0.7
sS'velocities_arr_8'
p209
I0
sS'velocities_arr_9'
p210
I0
sg54
I141
sg72
I205
sS'velocities_arr_7'
p211
I0
sS'category_exercise_name_12'
p212
I0
sS'category_exercise_name_13'
p213
I0
sS'category_exercise_name_10'
p214
I0
sS'category_exercise_name_11'
p215
I0
sS'velocities_arr_10'
p216
I0
sg52
I6
sg79
I6
sS'category_exercise_name_0'
p217
I1
sS'category_exercise_name_1'
p218
I0
sS'category_exercise_name_2'
p219
I0
sS'category_exercise_name_3'
p220
I0
sS'category_exercise_name_4'
p221
I0
sS'category_exercise_name_5'
p222
I0
sS'category_exercise_name_6'
p223
I0
sS'category_exercise_name_7'
p224
I0
sS'category_exercise_name_8'
p225
I0
sS'category_exercise_name_9'
p226
I0
sg90
I4
sg55
I0
sg91
I0
sS'velocities_arr_11'
p227
I0
sg59
I0
sg36
I0
sa(dp228
g13
I1
sS'velocities_arr_0'
p229
F0.77
sS'velocities_arr_2'
p230
F1.02
sS'velocities_arr_3'
p231
F0.58
sS'velocities_arr_4'
p232
F0.6
sS'velocities_arr_5'
p233
I0
sS'velocities_arr_6'
p234
I0
sS'velocities_arr_1'
p235
F0.66
sS'velocities_arr_8'
p236
I0
sS'velocities_arr_9'
p237
I0
sg54
I145
sg72
I225
sS'velocities_arr_7'
p238
I0
sS'category_exercise_name_12'
p239
I0
sS'category_exercise_name_13'
p240
I0
sS'category_exercise_name_10'
p241
I0
sS'category_exercise_name_11'
p242
I0
sS'velocities_arr_10'
p243
I0
sg52
I5
sg79
I6
sS'category_exercise_name_0'
p244
I1
sS'category_exercise_name_1'
p245
I0
sS'category_exercise_name_2'
p246
I0
sS'category_exercise_name_3'
p247
I0
sS'category_exercise_name_4'
p248
I0
sS'category_exercise_name_5'
p249
I0
sS'category_exercise_name_6'
p250
I0
sS'category_exercise_name_7'
p251
I0
sS'category_exercise_name_8'
p252
I0
sS'category_exercise_name_9'
p253
I0
sg90
I5
sg55
I1
sg91
I0
sS'velocities_arr_11'
p254
I0
sg59
I0
sg36
I0
sa(dp255
g13
I4
sS'velocities_arr_0'
p256
F1.07
sS'velocities_arr_2'
p257
F1.16
sS'velocities_arr_3'
p258
F1.1
sS'velocities_arr_4'
p259
F1.11
sS'velocities_arr_5'
p260
F1.05
sS'velocities_arr_6'
p261
I0
sS'velocities_arr_1'
p262
F1.08
sS'velocities_arr_8'
p263
I0
sS'velocities_arr_9'
p264
I0
sg54
I117
sg72
I45
sS'velocities_arr_7'
p265
I0
sS'category_exercise_name_12'
p266
I0
sS'category_exercise_name_13'
p267
I0
sS'category_exercise_name_10'
p268
I0
sS'category_exercise_name_11'
p269
I0
sS'velocities_arr_10'
p270
I0
sg52
I6
sg79
I6
sS'category_exercise_name_0'
p271
I0
sS'category_exercise_name_1'
p272
I0
sS'category_exercise_name_2'
p273
I1
sS'category_exercise_name_3'
p274
I0
sS'category_exercise_name_4'
p275
I0
sS'category_exercise_name_5'
p276
I0
sS'category_exercise_name_6'
p277
I0
sS'category_exercise_name_7'
p278
I0
sS'category_exercise_name_8'
p279
I0
sS'category_exercise_name_9'
p280
I0
sg90
I0
sg55
I0
sg91
I0
sS'velocities_arr_11'
p281
I0
sg59
I0
sg36
F0.0
sa(dp282
g13
I4
sS'velocities_arr_0'
p283
F0.91
sS'velocities_arr_2'
p284
F0.85
sS'velocities_arr_3'
p285
F0.79
sS'velocities_arr_4'
p286
F0.82
sS'velocities_arr_5'
p287
F0.76
sS'velocities_arr_6'
p288
I0
sS'velocities_arr_1'
p289
F0.89
sS'velocities_arr_8'
p290
I0
sS'velocities_arr_9'
p291
I0
sg54
I138
sg72
I135
sS'velocities_arr_7'
p292
I0
sS'category_exercise_name_12'
p293
I0
sS'category_exercise_name_13'
p294
I0
sS'category_exercise_name_10'
p295
I0
sS'category_exercise_name_11'
p296
I0
sS'velocities_arr_10'
p297
I0
sg52
I6
sg79
I6
sS'category_exercise_name_0'
p298
I0
sS'category_exercise_name_1'
p299
I0
sS'category_exercise_name_2'
p300
I1
sS'category_exercise_name_3'
p301
I0
sS'category_exercise_name_4'
p302
I0
sS'category_exercise_name_5'
p303
I0
sS'category_exercise_name_6'
p304
I0
sS'category_exercise_name_7'
p305
I0
sS'category_exercise_name_8'
p306
I0
sS'category_exercise_name_9'
p307
I0
sg90
I1
sg55
I0
sg91
I0
sS'velocities_arr_11'
p308
I0
sg59
I0
sg36
F0.0
sa(dp309
g13
I4
sS'velocities_arr_0'
p310
F0.74
sS'velocities_arr_2'
p311
F0.65
sS'velocities_arr_3'
p312
F0.64
sS'velocities_arr_4'
p313
F0.59
sS'velocities_arr_5'
p314
F0.58
sS'velocities_arr_6'
p315
I0
sS'velocities_arr_1'
p316
F0.7
sS'velocities_arr_8'
p317
I0
sS'velocities_arr_9'
p318
I0
sg54
I145
sg72
I185
sS'velocities_arr_7'
p319
I0
sS'category_exercise_name_12'
p320
I0
sS'category_exercise_name_13'
p321
I0
sS'category_exercise_name_10'
p322
I0
sS'category_exercise_name_11'
p323
I0
sS'velocities_arr_10'
p324
I0
sg52
I6
sg79
I6
sS'category_exercise_name_0'
p325
I0
sS'category_exercise_name_1'
p326
I0
sS'category_exercise_name_2'
p327
I1
sS'category_exercise_name_3'
p328
I0
sS'category_exercise_name_4'
p329
I0
sS'category_exercise_name_5'
p330
I0
sS'category_exercise_name_6'
p331
I0
sS'category_exercise_name_7'
p332
I0
sS'category_exercise_name_8'
p333
I0
sS'category_exercise_name_9'
p334
I0
sg90
I2
sg55
I0
sg91
I0
sS'velocities_arr_11'
p335
I0
sg59
I0
sg36
F0.0
sa(dp336
g13
I4
sS'velocities_arr_0'
p337
F0.66
sS'velocities_arr_2'
p338
F0.6
sS'velocities_arr_3'
p339
F0.55
sS'velocities_arr_4'
p340
F0.51
sS'velocities_arr_5'
p341
F0.52
sS'velocities_arr_6'
p342
I0
sS'velocities_arr_1'
p343
F0.6
sS'velocities_arr_8'
p344
I0
sS'velocities_arr_9'
p345
I0
sg54
I153
sg72
I205
sS'velocities_arr_7'
p346
I0
sS'category_exercise_name_12'
p347
I0
sS'category_exercise_name_13'
p348
I0
sS'category_exercise_name_10'
p349
I0
sS'category_exercise_name_11'
p350
I0
sS'velocities_arr_10'
p351
I0
sg52
I6
sg79
I6
sS'category_exercise_name_0'
p352
I0
sS'category_exercise_name_1'
p353
I0
sS'category_exercise_name_2'
p354
I1
sS'category_exercise_name_3'
p355
I0
sS'category_exercise_name_4'
p356
I0
sS'category_exercise_name_5'
p357
I0
sS'category_exercise_name_6'
p358
I0
sS'category_exercise_name_7'
p359
I0
sS'category_exercise_name_8'
p360
I0
sS'category_exercise_name_9'
p361
I0
sg90
I3
sg55
I0
sg91
I0
sS'velocities_arr_11'
p362
I0
sg59
I0
sg36
F0.0
sa(dp363
g13
I4
sS'velocities_arr_0'
p364
F0.56
sS'velocities_arr_2'
p365
F0.51
sS'velocities_arr_3'
p366
F0.51
sS'velocities_arr_4'
p367
F0.46
sS'velocities_arr_5'
p368
F0.45
sS'velocities_arr_6'
p369
I0
sS'velocities_arr_1'
p370
F0.55
sS'velocities_arr_8'
p371
I0
sS'velocities_arr_9'
p372
I0
sg54
I157
sg72
I225
sS'velocities_arr_7'
p373
I0
sS'category_exercise_name_12'
p374
I0
sS'category_exercise_name_13'
p375
I0
sS'category_exercise_name_10'
p376
I0
sS'category_exercise_name_11'
p377
I0
sS'velocities_arr_10'
p378
I0
sg52
I6
sg79
I6
sS'category_exercise_name_0'
p379
I0
sS'category_exercise_name_1'
p380
I0
sS'category_exercise_name_2'
p381
I1
sS'category_exercise_name_3'
p382
I0
sS'category_exercise_name_4'
p383
I0
sS'category_exercise_name_5'
p384
I0
sS'category_exercise_name_6'
p385
I0
sS'category_exercise_name_7'
p386
I0
sS'category_exercise_name_8'
p387
I0
sS'category_exercise_name_9'
p388
I0
sg90
I4
sg55
I0
sg91
I0
sS'velocities_arr_11'
p389
I0
sg59
I0
sg36
F0.0
sa(dp390
g13
I4
sg63
I0
sg64
I0
sg65
I0
sg66
I0
sg67
I0
sg68
I0
sg69
I0
sg70
I0
sg71
I0
sg54
I-1
sg72
I45
sg73
I0
sg74
I0
sg75
I0
sg76
I0
sg77
I0
sg52
I-1
sg79
I8
sg80
I0
sg81
I0
sg82
I0
sg83
I1
sg84
I0
sg85
I0
sg86
I0
sg87
I0
sg88
I0
sg89
I0
sg90
I5
sg55
I-1
sg78
I0
sg91
I0
sg92
I0
sg59
I-1
sg36
F0.0
sas.