(dp0
S'userx'
p1
(dp2
S'wrist_width_inches'
p3
I7
sS'height_inches'
p4
F70.0
sS'harris_benedict_bmr'
p5
I-1
sS'genetically_gifted'
p6
I0
sS'years_old'
p7
I31
sS'ankle_width_inches'
p8
I9
sS'sex_is_male'
p9
I1
ssS'dayseriesx'
p10
(lp11
(dp12
S'day_number'
p13
I-1
sS'sleeptime_awake_hrs'
p14
I-1
sS'withings_body_water_percent'
p15
I-1
sS'heart_rate_variability_rmssd'
p16
I-1
sS'sleeptime_deep_rem_hrs'
p17
I-1
sS'withings_body_fat_percent'
p18
I-1
sS'withings_weight_lbs'
p19
I-1
sS'sleeptime_efficiency_percent'
p20
I-1
sS'post_day_calories_in'
p21
I-1
sS'post_day_fat_g'
p22
I-1
sS'sleeptime_bed_time_ampm_index'
p23
I-1
sS'withings_muscle_mass_percent'
p24
I-1
sS'days_since_last_recorded_day'
p25
I-1
sS'sleeptime_alarm_ring_ampm_index'
p26
I-1
sS'withings_bone_mass_percent'
p27
I-1
sS'sleeptime_snoozed'
p28
I-1
sS'sleeptime_light_sleep_hrs'
p29
I-1
sS'withings_heart_rate_bpm'
p30
I-1
sS'sleeptime_alarm_set_ampm_index'
p31
I-1
sS'post_day_protein_g'
p32
I-1
sS'post_day_wearable_calories_burned'
p33
I-1
sS'withings_pulse_wave_velocity_m_per_s'
p34
I-1
sS'sleeptime_rise_time_ampm_index'
p35
I-1
sS'days_since_last_workout'
p36
I-1
sS'post_day_carbs_g'
p37
I-1
sag12
ag12
ag12
ag12
ag12
ag12
ag12
ag12
ag12
a(dp38
g13
I0
sg14
F4.833333333333333
sg15
F55.7
sg16
I-1
sg17
F2.9166666666666665
sg18
F16.0
sg19
F163.5
sg20
F47.0
sg21
I-1
sg22
I-1
sg23
I566
sg24
F80.0
sg25
F0.0
sg26
I1440
sg27
F4.0
sg28
I0
sg29
F1.3666666666666667
sg30
I77
sg31
I421
sg32
I-1
sg33
I-1
sg34
F7.8
sg35
I395
sg36
I0
sg37
I-1
sasS'workouty'
p39
(dp40
S'velocities_arr_0'
p41
F0.56
sS'velocities_arr_1'
p42
F0.62
sS'velocities_arr_2'
p43
F0.59
sS'velocities_arr_3'
p44
F0.61
sS'velocities_arr_4'
p45
F0.59
sS'velocities_arr_5'
p46
F0.57
sS'velocities_arr_6'
p47
F0.52
sS'velocities_arr_7'
p48
F0.46
sS'reps_completed'
p49
I8
sS'velocities_arr_9'
p50
I0
sS'postset_heartrate'
p51
I114
sS'went_to_failure'
p52
I0
sS'velocities_arr_8'
p53
I0
sS'velocities_arr_10'
p54
I0
sS'velocities_arr_11'
p55
I0
sS'did_pull_muscle'
p56
I0
ssS'workoutxseries'
p57
(lp58
(dp59
g13
I1
sS'velocities_arr_0'
p60
I0
sS'velocities_arr_2'
p61
I0
sS'velocities_arr_3'
p62
I0
sS'velocities_arr_4'
p63
I0
sS'velocities_arr_5'
p64
I0
sS'velocities_arr_6'
p65
I0
sS'velocities_arr_1'
p66
I0
sS'velocities_arr_8'
p67
I0
sS'velocities_arr_9'
p68
I0
sg51
I-1
sS'weight_lbs'
p69
I-1
sS'velocities_arr_7'
p70
I0
sS'category_exercise_name_10'
p71
I0
sS'category_exercise_name_2'
p72
I0
sg49
I-1
sS'reps_planned'
p73
I-1
sS'category_exercise_name_0'
p74
I0
sS'category_exercise_name_1'
p75
I0
sS'velocities_arr_10'
p76
I0
sS'category_exercise_name_3'
p77
I0
sS'category_exercise_name_4'
p78
I0
sS'category_exercise_name_5'
p79
I0
sS'category_exercise_name_6'
p80
I0
sS'category_exercise_name_7'
p81
I0
sS'category_exercise_name_8'
p82
I0
sS'category_exercise_name_9'
p83
I0
sS'set_number_of_the_day'
p84
I6
sg52
I0
sS'used_lifting_gear'
p85
I0
sS'velocities_arr_11'
p86
I0
sg56
I0
sg36
I0
sag59
ag59
ag59
ag59
ag59
ag59
ag59
ag59
ag59
ag59
ag59
ag59
ag59
ag59
ag59
ag59
ag59
ag59
ag59
ag59
ag59
ag59
ag59
ag59
ag59
a(dp87
g13
I1
sS'velocities_arr_0'
p88
F1.11
sS'velocities_arr_2'
p89
F1.08
sS'velocities_arr_3'
p90
F1.12
sS'velocities_arr_4'
p91
F1.62
sS'velocities_arr_5'
p92
I0
sS'velocities_arr_6'
p93
I0
sS'velocities_arr_1'
p94
F1.07
sS'velocities_arr_8'
p95
I0
sS'velocities_arr_9'
p96
I0
sg51
I107
sg69
I45
sS'velocities_arr_7'
p97
I0
sS'category_exercise_name_10'
p98
I0
sS'velocities_arr_10'
p99
I0
sg49
I5
sg73
I5
sS'category_exercise_name_0'
p100
I0
sS'category_exercise_name_1'
p101
I0
sS'category_exercise_name_2'
p102
I1
sS'category_exercise_name_3'
p103
I0
sS'category_exercise_name_4'
p104
I0
sS'category_exercise_name_5'
p105
I0
sS'category_exercise_name_6'
p106
I0
sS'category_exercise_name_7'
p107
I0
sS'category_exercise_name_8'
p108
I0
sS'category_exercise_name_9'
p109
I0
sg84
I0
sg52
I0
sg85
I0
sS'velocities_arr_11'
p110
I0
sg56
I0
sg36
I0
sa(dp111
g13
I1
sS'velocities_arr_0'
p112
F0.77
sS'velocities_arr_2'
p113
F0.83
sS'velocities_arr_3'
p114
F0.79
sS'velocities_arr_4'
p115
F0.77
sS'velocities_arr_5'
p116
I0
sS'velocities_arr_6'
p117
I0
sS'velocities_arr_1'
p118
F0.82
sS'velocities_arr_8'
p119
I0
sS'velocities_arr_9'
p120
I0
sg51
I125
sg69
I135
sS'velocities_arr_7'
p121
I0
sS'category_exercise_name_10'
p122
I0
sS'velocities_arr_10'
p123
I0
sg49
I5
sg73
I5
sS'category_exercise_name_0'
p124
I0
sS'category_exercise_name_1'
p125
I0
sS'category_exercise_name_2'
p126
I1
sS'category_exercise_name_3'
p127
I0
sS'category_exercise_name_4'
p128
I0
sS'category_exercise_name_5'
p129
I0
sS'category_exercise_name_6'
p130
I0
sS'category_exercise_name_7'
p131
I0
sS'category_exercise_name_8'
p132
I0
sS'category_exercise_name_9'
p133
I0
sg84
I1
sg52
I0
sg85
I0
sS'velocities_arr_11'
p134
I0
sg56
I0
sg36
I0
sa(dp135
g13
I1
sS'velocities_arr_0'
p136
F0.68
sS'velocities_arr_2'
p137
F0.65
sS'velocities_arr_3'
p138
F0.63
sS'velocities_arr_4'
p139
F0.61
sS'velocities_arr_5'
p140
I0
sS'velocities_arr_6'
p141
I0
sS'velocities_arr_1'
p142
F0.69
sS'velocities_arr_8'
p143
I0
sS'velocities_arr_9'
p144
I0
sg51
I131
sg69
I185
sS'velocities_arr_7'
p145
I0
sS'category_exercise_name_10'
p146
I0
sS'velocities_arr_10'
p147
I0
sg49
I5
sg73
I5
sS'category_exercise_name_0'
p148
I0
sS'category_exercise_name_1'
p149
I0
sS'category_exercise_name_2'
p150
I1
sS'category_exercise_name_3'
p151
I0
sS'category_exercise_name_4'
p152
I0
sS'category_exercise_name_5'
p153
I0
sS'category_exercise_name_6'
p154
I0
sS'category_exercise_name_7'
p155
I0
sS'category_exercise_name_8'
p156
I0
sS'category_exercise_name_9'
p157
I0
sg84
I2
sg52
I0
sg85
I0
sS'velocities_arr_11'
p158
I0
sg56
I0
sg36
I0
sa(dp159
g13
I1
sS'velocities_arr_0'
p160
F0.64
sS'velocities_arr_2'
p161
F0.62
sS'velocities_arr_3'
p162
F0.57
sS'velocities_arr_4'
p163
F0.56
sS'velocities_arr_5'
p164
I0
sS'velocities_arr_6'
p165
I0
sS'velocities_arr_1'
p166
F0.63
sS'velocities_arr_8'
p167
I0
sS'velocities_arr_9'
p168
I0
sg51
I141
sg69
I205
sS'velocities_arr_7'
p169
I0
sS'category_exercise_name_10'
p170
I0
sS'velocities_arr_10'
p171
I0
sg49
I5
sg73
I5
sS'category_exercise_name_0'
p172
I0
sS'category_exercise_name_1'
p173
I0
sS'category_exercise_name_2'
p174
I1
sS'category_exercise_name_3'
p175
I0
sS'category_exercise_name_4'
p176
I0
sS'category_exercise_name_5'
p177
I0
sS'category_exercise_name_6'
p178
I0
sS'category_exercise_name_7'
p179
I0
sS'category_exercise_name_8'
p180
I0
sS'category_exercise_name_9'
p181
I0
sg84
I3
sg52
I0
sg85
I0
sS'velocities_arr_11'
p182
I0
sg56
I0
sg36
I0
sa(dp183
g13
I1
sS'velocities_arr_0'
p184
F0.62
sS'velocities_arr_2'
p185
F0.52
sS'velocities_arr_3'
p186
F0.51
sS'velocities_arr_4'
p187
F0.46
sS'velocities_arr_5'
p188
I0
sS'velocities_arr_6'
p189
I0
sS'velocities_arr_1'
p190
F0.57
sS'velocities_arr_8'
p191
I0
sS'velocities_arr_9'
p192
I0
sg51
I148
sg69
I225
sS'velocities_arr_7'
p193
I0
sS'category_exercise_name_10'
p194
I0
sS'velocities_arr_10'
p195
I0
sg49
I5
sg73
I5
sS'category_exercise_name_0'
p196
I0
sS'category_exercise_name_1'
p197
I0
sS'category_exercise_name_2'
p198
I1
sS'category_exercise_name_3'
p199
I0
sS'category_exercise_name_4'
p200
I0
sS'category_exercise_name_5'
p201
I0
sS'category_exercise_name_6'
p202
I0
sS'category_exercise_name_7'
p203
I0
sS'category_exercise_name_8'
p204
I0
sS'category_exercise_name_9'
p205
I0
sg84
I4
sg52
I0
sg85
I0
sS'velocities_arr_11'
p206
I0
sg56
I0
sg36
I0
sa(dp207
g13
I1
sS'velocities_arr_0'
p208
F0.71
sS'velocities_arr_2'
p209
F0.65
sS'velocities_arr_3'
p210
F0.65
sS'velocities_arr_4'
p211
F0.62
sS'velocities_arr_5'
p212
F0.61
sS'velocities_arr_6'
p213
F0.54
sS'velocities_arr_1'
p214
F0.57
sS'velocities_arr_8'
p215
F0.52
sS'velocities_arr_9'
p216
F0.49
sg51
I111
sg69
I105
sS'velocities_arr_7'
p217
F0.61
sS'category_exercise_name_10'
p218
I0
sS'velocities_arr_10'
p219
F0.47
sg49
I12
sg73
I12
sS'category_exercise_name_0'
p220
I0
sS'category_exercise_name_1'
p221
I0
sS'category_exercise_name_2'
p222
I0
sS'category_exercise_name_3'
p223
I1
sS'category_exercise_name_4'
p224
I0
sS'category_exercise_name_5'
p225
I0
sS'category_exercise_name_6'
p226
I0
sS'category_exercise_name_7'
p227
I0
sS'category_exercise_name_8'
p228
I0
sS'category_exercise_name_9'
p229
I0
sg84
I5
sg52
I0
sg85
I0
sS'velocities_arr_11'
p230
F0.47
sg56
I0
sg36
I0
sa(dp231
g13
I1
sg60
I0
sg61
I0
sg62
I0
sg63
I0
sg64
I0
sg65
I0
sg66
I0
sg67
I0
sg68
I0
sg51
I-1
sg69
I115
sg70
I0
sg71
I0
sg49
I-1
sg73
I8
sg74
I0
sg75
I0
sg76
I0
sg77
I1
sg78
I0
sg79
I0
sg80
I0
sg81
I0
sg82
I0
sg83
I0
sg84
I6
sg52
I-1
sg72
I0
sg85
I0
sg86
I0
sg56
I-1
sg36
I0
sas.