(dp0
S'userx'
p1
(dp2
S'wrist_width_inches'
p3
I7
sS'height_inches'
p4
F70.0
sS'harris_benedict_bmr'
p5
I-1
sS'genetically_gifted'
p6
I0
sS'years_old'
p7
I31
sS'ankle_width_inches'
p8
I9
sS'sex_is_male'
p9
I1
ssS'dayseriesx'
p10
(lp11
(dp12
S'day_number'
p13
I-1
sS'sleeptime_awake_hrs'
p14
I-1
sS'withings_body_water_percent'
p15
I-1
sS'heart_rate_variability_rmssd'
p16
I-1
sS'sleeptime_deep_rem_hrs'
p17
I-1
sS'withings_body_fat_percent'
p18
I-1
sS'withings_weight_lbs'
p19
I-1
sS'sleeptime_efficiency_percent'
p20
I-1
sS'post_day_calories_in'
p21
I-1
sS'post_day_fat_g'
p22
I-1
sS'sleeptime_bed_time_ampm_index'
p23
I-1
sS'withings_muscle_mass_percent'
p24
I-1
sS'sleeptime_alarm_ring_ampm_index'
p25
I-1
sS'withings_bone_mass_percent'
p26
I-1
sS'sleeptime_snoozed'
p27
I-1
sS'sleeptime_light_sleep_hrs'
p28
I-1
sS'withings_heart_rate_bpm'
p29
I-1
sS'sleeptime_alarm_set_ampm_index'
p30
I-1
sS'post_day_protein_g'
p31
I-1
sS'post_day_wearable_calories_burned'
p32
I-1
sS'withings_pulse_wave_velocity_m_per_s'
p33
I-1
sS'sleeptime_rise_time_ampm_index'
p34
I-1
sS'days_since_last_workout'
p35
I-1
sS'post_day_carbs_g'
p36
I-1
sag12
ag12
ag12
ag12
ag12
ag12
a(dp37
g13
I0
sg14
F4.833333333333333
sg15
F55.7
sg16
I-1
sg17
F2.9166666666666665
sg18
F16.0
sg19
F163.5
sg20
F47.0
sg21
I-1
sg22
I-1
sg23
I566
sg24
F80.0
sg25
I1440
sg26
F4.0
sg27
I0
sg28
F1.3666666666666667
sg29
I77
sg30
I421
sg31
I-1
sg32
I-1
sg33
F7.8
sg34
I395
sg35
I0
sg36
I-1
sa(dp38
g13
I1
sg14
F0.3333333333333333
sg15
F55.4
sg16
I-1
sg17
F2.8
sg18
F16.6
sg19
F162.5
sg20
F96.0
sg21
I-1
sg22
I-1
sg23
I710
sg24
F79.4
sg25
I1440
sg26
F4.0
sg27
I0
sg28
F5.866666666666667
sg29
I75
sg30
I589
sg31
I-1
sg32
I-1
sg33
F7.7
sg34
I532
sg35
F1.0
sg36
I-1
sa(dp39
g13
I2
sg14
F0.9833333333333333
sg15
F55.9
sg16
I-1
sg17
F4.466666666666667
sg18
F15.7
sg19
F163.5
sg20
F89.0
sg21
I-1
sg22
I-1
sg23
I1419
sg24
F80.4
sg25
I1440
sg26
F4.0
sg27
I0
sg28
F4.016666666666667
sg29
I-1
sg30
I589
sg31
I-1
sg32
I-1
sg33
I-1
sg34
I548
sg35
F2.0
sg36
I-1
sa(dp40
g13
I3
sg14
F0.9166666666666666
sg15
F56.4
sg16
I-1
sg17
F4.1
sg18
F14.8
sg19
F163.7
sg20
F88.0
sg21
I-1
sg22
I-1
sg23
I1389
sg24
F81.2
sg25
I411
sg26
F4.0
sg27
I4
sg28
F3.1666666666666665
sg29
I86
sg30
I425
sg31
I-1
sg32
I-1
sg33
F7.4
sg34
I441
sg35
F3.0
sg36
I-1
sasS'workouty'
p41
(dp42
S'velocities_arr_0'
p43
F0.59
sS'velocities_arr_1'
p44
F0.55
sS'velocities_arr_2'
p45
F1.29
sS'velocities_arr_3'
p46
F1.29
sS'velocities_arr_4'
p47
F1.29
sS'velocities_arr_5'
p48
I0
sS'velocities_arr_6'
p49
I0
sS'velocities_arr_7'
p50
I0
sS'reps_completed'
p51
I5
sS'velocities_arr_9'
p52
I0
sS'postset_heartrate'
p53
I115
sS'went_to_failure'
p54
I0
sS'velocities_arr_8'
p55
I0
sS'velocities_arr_10'
p56
I0
sS'velocities_arr_11'
p57
I0
sS'did_pull_muscle'
p58
I0
ssS'workoutxseries'
p59
(lp60
(dp61
g13
I4
sS'velocities_arr_0'
p62
I0
sS'velocities_arr_2'
p63
I0
sS'velocities_arr_3'
p64
I0
sS'velocities_arr_4'
p65
I0
sS'velocities_arr_5'
p66
I0
sS'velocities_arr_6'
p67
I0
sS'velocities_arr_1'
p68
I0
sS'velocities_arr_8'
p69
I0
sS'velocities_arr_9'
p70
I0
sg53
I-1
sS'weight_lbs'
p71
I-1
sS'velocities_arr_7'
p72
I0
sS'category_exercise_name_10'
p73
I0
sS'category_exercise_name_2'
p74
I0
sg51
I-1
sS'reps_planned'
p75
I-1
sS'category_exercise_name_0'
p76
I0
sS'category_exercise_name_1'
p77
I0
sS'velocities_arr_10'
p78
I0
sS'category_exercise_name_3'
p79
I0
sS'category_exercise_name_4'
p80
I0
sS'category_exercise_name_5'
p81
I0
sS'category_exercise_name_6'
p82
I0
sS'category_exercise_name_7'
p83
I0
sS'category_exercise_name_8'
p84
I0
sS'category_exercise_name_9'
p85
I0
sS'set_number_of_the_day'
p86
I1
sg54
I0
sS'used_lifting_gear'
p87
I0
sS'velocities_arr_11'
p88
I0
sg58
I0
sg35
I0
sag61
ag61
ag61
ag61
ag61
ag61
ag61
ag61
ag61
ag61
ag61
ag61
ag61
ag61
ag61
ag61
ag61
ag61
ag61
ag61
ag61
ag61
a(dp89
g13
I1
sS'velocities_arr_0'
p90
F1.11
sS'velocities_arr_2'
p91
F1.08
sS'velocities_arr_3'
p92
F1.12
sS'velocities_arr_4'
p93
F1.62
sS'velocities_arr_5'
p94
I0
sS'velocities_arr_6'
p95
I0
sS'velocities_arr_1'
p96
F1.07
sS'velocities_arr_8'
p97
I0
sS'velocities_arr_9'
p98
I0
sg53
I107
sg71
I45
sS'velocities_arr_7'
p99
I0
sS'category_exercise_name_10'
p100
I0
sS'velocities_arr_10'
p101
I0
sg51
I5
sg75
I5
sS'category_exercise_name_0'
p102
I0
sS'category_exercise_name_1'
p103
I0
sS'category_exercise_name_2'
p104
I1
sS'category_exercise_name_3'
p105
I0
sS'category_exercise_name_4'
p106
I0
sS'category_exercise_name_5'
p107
I0
sS'category_exercise_name_6'
p108
I0
sS'category_exercise_name_7'
p109
I0
sS'category_exercise_name_8'
p110
I0
sS'category_exercise_name_9'
p111
I0
sg86
I0
sg54
I0
sg87
I0
sS'velocities_arr_11'
p112
I0
sg58
I0
sg35
I0
sa(dp113
g13
I1
sS'velocities_arr_0'
p114
F0.77
sS'velocities_arr_2'
p115
F0.83
sS'velocities_arr_3'
p116
F0.79
sS'velocities_arr_4'
p117
F0.77
sS'velocities_arr_5'
p118
I0
sS'velocities_arr_6'
p119
I0
sS'velocities_arr_1'
p120
F0.82
sS'velocities_arr_8'
p121
I0
sS'velocities_arr_9'
p122
I0
sg53
I125
sg71
I135
sS'velocities_arr_7'
p123
I0
sS'category_exercise_name_10'
p124
I0
sS'velocities_arr_10'
p125
I0
sg51
I5
sg75
I5
sS'category_exercise_name_0'
p126
I0
sS'category_exercise_name_1'
p127
I0
sS'category_exercise_name_2'
p128
I1
sS'category_exercise_name_3'
p129
I0
sS'category_exercise_name_4'
p130
I0
sS'category_exercise_name_5'
p131
I0
sS'category_exercise_name_6'
p132
I0
sS'category_exercise_name_7'
p133
I0
sS'category_exercise_name_8'
p134
I0
sS'category_exercise_name_9'
p135
I0
sg86
I1
sg54
I0
sg87
I0
sS'velocities_arr_11'
p136
I0
sg58
I0
sg35
I0
sa(dp137
g13
I1
sS'velocities_arr_0'
p138
F0.68
sS'velocities_arr_2'
p139
F0.65
sS'velocities_arr_3'
p140
F0.63
sS'velocities_arr_4'
p141
F0.61
sS'velocities_arr_5'
p142
I0
sS'velocities_arr_6'
p143
I0
sS'velocities_arr_1'
p144
F0.69
sS'velocities_arr_8'
p145
I0
sS'velocities_arr_9'
p146
I0
sg53
I131
sg71
I185
sS'velocities_arr_7'
p147
I0
sS'category_exercise_name_10'
p148
I0
sS'velocities_arr_10'
p149
I0
sg51
I5
sg75
I5
sS'category_exercise_name_0'
p150
I0
sS'category_exercise_name_1'
p151
I0
sS'category_exercise_name_2'
p152
I1
sS'category_exercise_name_3'
p153
I0
sS'category_exercise_name_4'
p154
I0
sS'category_exercise_name_5'
p155
I0
sS'category_exercise_name_6'
p156
I0
sS'category_exercise_name_7'
p157
I0
sS'category_exercise_name_8'
p158
I0
sS'category_exercise_name_9'
p159
I0
sg86
I2
sg54
I0
sg87
I0
sS'velocities_arr_11'
p160
I0
sg58
I0
sg35
I0
sa(dp161
g13
I1
sS'velocities_arr_0'
p162
F0.64
sS'velocities_arr_2'
p163
F0.62
sS'velocities_arr_3'
p164
F0.57
sS'velocities_arr_4'
p165
F0.56
sS'velocities_arr_5'
p166
I0
sS'velocities_arr_6'
p167
I0
sS'velocities_arr_1'
p168
F0.63
sS'velocities_arr_8'
p169
I0
sS'velocities_arr_9'
p170
I0
sg53
I141
sg71
I205
sS'velocities_arr_7'
p171
I0
sS'category_exercise_name_10'
p172
I0
sS'velocities_arr_10'
p173
I0
sg51
I5
sg75
I5
sS'category_exercise_name_0'
p174
I0
sS'category_exercise_name_1'
p175
I0
sS'category_exercise_name_2'
p176
I1
sS'category_exercise_name_3'
p177
I0
sS'category_exercise_name_4'
p178
I0
sS'category_exercise_name_5'
p179
I0
sS'category_exercise_name_6'
p180
I0
sS'category_exercise_name_7'
p181
I0
sS'category_exercise_name_8'
p182
I0
sS'category_exercise_name_9'
p183
I0
sg86
I3
sg54
I0
sg87
I0
sS'velocities_arr_11'
p184
I0
sg58
I0
sg35
I0
sa(dp185
g13
I1
sS'velocities_arr_0'
p186
F0.62
sS'velocities_arr_2'
p187
F0.52
sS'velocities_arr_3'
p188
F0.51
sS'velocities_arr_4'
p189
F0.46
sS'velocities_arr_5'
p190
I0
sS'velocities_arr_6'
p191
I0
sS'velocities_arr_1'
p192
F0.57
sS'velocities_arr_8'
p193
I0
sS'velocities_arr_9'
p194
I0
sg53
I148
sg71
I225
sS'velocities_arr_7'
p195
I0
sS'category_exercise_name_10'
p196
I0
sS'velocities_arr_10'
p197
I0
sg51
I5
sg75
I5
sS'category_exercise_name_0'
p198
I0
sS'category_exercise_name_1'
p199
I0
sS'category_exercise_name_2'
p200
I1
sS'category_exercise_name_3'
p201
I0
sS'category_exercise_name_4'
p202
I0
sS'category_exercise_name_5'
p203
I0
sS'category_exercise_name_6'
p204
I0
sS'category_exercise_name_7'
p205
I0
sS'category_exercise_name_8'
p206
I0
sS'category_exercise_name_9'
p207
I0
sg86
I4
sg54
I0
sg87
I0
sS'velocities_arr_11'
p208
I0
sg58
I0
sg35
I0
sa(dp209
g13
I1
sS'velocities_arr_0'
p210
F0.71
sS'velocities_arr_2'
p211
F0.65
sS'velocities_arr_3'
p212
F0.65
sS'velocities_arr_4'
p213
F0.62
sS'velocities_arr_5'
p214
F0.61
sS'velocities_arr_6'
p215
F0.54
sS'velocities_arr_1'
p216
F0.57
sS'velocities_arr_8'
p217
F0.52
sS'velocities_arr_9'
p218
F0.49
sg53
I111
sg71
I105
sS'velocities_arr_7'
p219
F0.61
sS'category_exercise_name_10'
p220
I0
sS'velocities_arr_10'
p221
F0.47
sg51
I12
sg75
I12
sS'category_exercise_name_0'
p222
I0
sS'category_exercise_name_1'
p223
I0
sS'category_exercise_name_2'
p224
I0
sS'category_exercise_name_3'
p225
I1
sS'category_exercise_name_4'
p226
I0
sS'category_exercise_name_5'
p227
I0
sS'category_exercise_name_6'
p228
I0
sS'category_exercise_name_7'
p229
I0
sS'category_exercise_name_8'
p230
I0
sS'category_exercise_name_9'
p231
I0
sg86
I5
sg54
I0
sg87
I0
sS'velocities_arr_11'
p232
F0.47
sg58
I0
sg35
I0
sa(dp233
g13
I1
sS'velocities_arr_0'
p234
F0.56
sS'velocities_arr_2'
p235
F0.59
sS'velocities_arr_3'
p236
F0.61
sS'velocities_arr_4'
p237
F0.59
sS'velocities_arr_5'
p238
F0.57
sS'velocities_arr_6'
p239
F0.52
sS'velocities_arr_1'
p240
F0.62
sS'velocities_arr_8'
p241
I0
sS'velocities_arr_9'
p242
I0
sg53
I114
sg71
I115
sS'velocities_arr_7'
p243
F0.46
sS'category_exercise_name_10'
p244
I0
sS'velocities_arr_10'
p245
I0
sg51
I8
sg75
I8
sS'category_exercise_name_0'
p246
I0
sS'category_exercise_name_1'
p247
I0
sS'category_exercise_name_2'
p248
I0
sS'category_exercise_name_3'
p249
I1
sS'category_exercise_name_4'
p250
I0
sS'category_exercise_name_5'
p251
I0
sS'category_exercise_name_6'
p252
I0
sS'category_exercise_name_7'
p253
I0
sS'category_exercise_name_8'
p254
I0
sS'category_exercise_name_9'
p255
I0
sg86
I6
sg54
I0
sg87
I0
sS'velocities_arr_11'
p256
I0
sg58
I0
sg35
I0
sa(dp257
g13
I1
sS'velocities_arr_0'
p258
F0.49
sS'velocities_arr_2'
p259
F0.46
sS'velocities_arr_3'
p260
F0.43
sS'velocities_arr_4'
p261
F0.39
sS'velocities_arr_5'
p262
I0
sS'velocities_arr_6'
p263
I0
sS'velocities_arr_1'
p264
F0.51
sS'velocities_arr_8'
p265
I0
sS'velocities_arr_9'
p266
I0
sg53
I130
sg71
I125
sS'velocities_arr_7'
p267
I0
sS'category_exercise_name_10'
p268
I0
sS'velocities_arr_10'
p269
I0
sg51
I5
sg75
I5
sS'category_exercise_name_0'
p270
I0
sS'category_exercise_name_1'
p271
I0
sS'category_exercise_name_2'
p272
I0
sS'category_exercise_name_3'
p273
I1
sS'category_exercise_name_4'
p274
I0
sS'category_exercise_name_5'
p275
I0
sS'category_exercise_name_6'
p276
I0
sS'category_exercise_name_7'
p277
I0
sS'category_exercise_name_8'
p278
I0
sS'category_exercise_name_9'
p279
I0
sg86
I7
sg54
I0
sg87
I0
sS'velocities_arr_11'
p280
I0
sg58
I0
sg35
I0
sa(dp281
g13
I4
sS'velocities_arr_0'
p282
F0.49
sS'velocities_arr_2'
p283
F0.68
sS'velocities_arr_3'
p284
F0.61
sS'velocities_arr_4'
p285
F0.56
sS'velocities_arr_5'
p286
I0
sS'velocities_arr_6'
p287
I0
sS'velocities_arr_1'
p288
F0.82
sS'velocities_arr_8'
p289
I0
sS'velocities_arr_9'
p290
I0
sg53
I116
sg71
I185
sS'velocities_arr_7'
p291
I0
sS'category_exercise_name_10'
p292
I0
sS'velocities_arr_10'
p293
I0
sg51
I5
sg75
I5
sS'category_exercise_name_0'
p294
I1
sS'category_exercise_name_1'
p295
I0
sS'category_exercise_name_2'
p296
I0
sS'category_exercise_name_3'
p297
I0
sS'category_exercise_name_4'
p298
I0
sS'category_exercise_name_5'
p299
I0
sS'category_exercise_name_6'
p300
I0
sS'category_exercise_name_7'
p301
I0
sS'category_exercise_name_8'
p302
I0
sS'category_exercise_name_9'
p303
I0
sg86
I0
sg54
I0
sg87
I0
sS'velocities_arr_11'
p304
I0
sg58
I0
sg35
F3.0
sa(dp305
g13
I4
sg62
I0
sg63
I0
sg64
I0
sg65
I0
sg66
I0
sg67
I0
sg68
I0
sg69
I0
sg70
I0
sg53
I-1
sg71
I225
sg72
I0
sg73
I0
sg51
I-1
sg75
I5
sg76
I1
sg77
I0
sg78
I0
sg79
I0
sg80
I0
sg81
I0
sg82
I0
sg83
I0
sg84
I0
sg85
I0
sg86
I1
sg54
I-1
sg74
I0
sg87
I0
sg88
I0
sg58
I-1
sg35
F3.0
sas.