(dp0
S'userx'
p1
(dp2
S'wrist_width_inches'
p3
I7
sS'height_inches'
p4
F70.0
sS'harris_benedict_bmr'
p5
I-1
sS'genetically_gifted'
p6
I0
sS'years_old'
p7
I31
sS'ankle_width_inches'
p8
I9
sS'sex_is_male'
p9
I1
ssS'dayseriesx'
p10
(lp11
(dp12
S'day_number'
p13
I-1
sS'sleeptime_awake_hrs'
p14
I-1
sS'withings_body_water_percent'
p15
I-1
sS'heart_rate_variability_rmssd'
p16
I-1
sS'sleeptime_deep_rem_hrs'
p17
I-1
sS'withings_body_fat_percent'
p18
I-1
sS'withings_weight_lbs'
p19
I-1
sS'sleeptime_efficiency_percent'
p20
I-1
sS'post_day_calories_in'
p21
I-1
sS'post_day_fat_g'
p22
I-1
sS'sleeptime_bed_time_ampm_index'
p23
I-1
sS'withings_muscle_mass_percent'
p24
I-1
sS'days_since_last_recorded_day'
p25
I-1
sS'sleeptime_alarm_ring_ampm_index'
p26
I-1
sS'withings_bone_mass_percent'
p27
I-1
sS'sleeptime_snoozed'
p28
I-1
sS'sleeptime_light_sleep_hrs'
p29
I-1
sS'withings_heart_rate_bpm'
p30
I-1
sS'sleeptime_alarm_set_ampm_index'
p31
I-1
sS'post_day_protein_g'
p32
I-1
sS'post_day_wearable_calories_burned'
p33
I-1
sS'withings_pulse_wave_velocity_m_per_s'
p34
I-1
sS'sleeptime_rise_time_ampm_index'
p35
I-1
sS'days_since_last_workout'
p36
I-1
sS'post_day_carbs_g'
p37
I-1
sag12
ag12
ag12
ag12
ag12
ag12
ag12
ag12
ag12
a(dp38
g13
I0
sg14
F0.31666666666666665
sg15
F56.3
sg16
I-1
sg17
F3.9833333333333334
sg18
F14.9
sg19
F163.2
sg20
F95.0
sg21
I-1
sg22
I-1
sg23
I1430
sg24
F81.1
sg25
F0.0
sg26
I469
sg27
F4.0
sg28
I0
sg29
F3.65
sg30
I87
sg31
I470
sg32
I-1
sg33
I-1
sg34
F7.4
sg35
I469
sg36
I0
sg37
I-1
sasS'workouty'
p39
(dp40
S'velocities_arr_0'
p41
F0.61
sS'velocities_arr_1'
p42
F0.52
sS'velocities_arr_2'
p43
F0.52
sS'velocities_arr_3'
p44
F0.52
sS'velocities_arr_4'
p45
F0.52
sS'velocities_arr_5'
p46
I0
sS'velocities_arr_6'
p47
I0
sS'velocities_arr_7'
p48
I0
sS'reps_completed'
p49
I5
sS'velocities_arr_9'
p50
I0
sS'postset_heartrate'
p51
I147
sS'went_to_failure'
p52
I0
sS'velocities_arr_8'
p53
I0
sS'velocities_arr_10'
p54
I0
sS'velocities_arr_11'
p55
I0
sS'did_pull_muscle'
p56
I0
ssS'workoutxseries'
p57
(lp58
(dp59
g13
I1
sS'velocities_arr_0'
p60
I0
sS'velocities_arr_2'
p61
I0
sS'velocities_arr_3'
p62
I0
sS'velocities_arr_4'
p63
I0
sS'velocities_arr_5'
p64
I0
sS'velocities_arr_6'
p65
I0
sS'velocities_arr_1'
p66
I0
sS'velocities_arr_8'
p67
I0
sS'velocities_arr_9'
p68
I0
sg51
I-1
sS'weight_lbs'
p69
I-1
sS'velocities_arr_7'
p70
I0
sS'category_exercise_name_12'
p71
I0
sS'category_exercise_name_10'
p72
I0
sS'category_exercise_name_11'
p73
I0
sS'category_exercise_name_2'
p74
I0
sg49
I-1
sS'reps_planned'
p75
I-1
sS'category_exercise_name_0'
p76
I0
sS'category_exercise_name_1'
p77
I0
sS'velocities_arr_10'
p78
I0
sS'category_exercise_name_3'
p79
I0
sS'category_exercise_name_4'
p80
I0
sS'category_exercise_name_5'
p81
I0
sS'category_exercise_name_6'
p82
I0
sS'category_exercise_name_7'
p83
I0
sS'category_exercise_name_8'
p84
I0
sS'category_exercise_name_9'
p85
I0
sS'set_number_of_the_day'
p86
I4
sg52
I0
sS'used_lifting_gear'
p87
I0
sS'velocities_arr_11'
p88
I0
sg56
I0
sg36
I0
sag59
ag59
ag59
ag59
ag59
ag59
ag59
ag59
ag59
ag59
ag59
ag59
ag59
ag59
ag59
ag59
ag59
ag59
ag59
ag59
ag59
ag59
ag59
ag59
ag59
ag59
ag59
ag59
ag59
ag59
ag59
ag59
ag59
a(dp89
g13
I1
sS'velocities_arr_0'
p90
F1.07
sS'velocities_arr_2'
p91
F1.07
sS'velocities_arr_3'
p92
F1.13
sS'velocities_arr_4'
p93
F0.71
sS'velocities_arr_5'
p94
I0
sS'velocities_arr_6'
p95
I0
sS'velocities_arr_1'
p96
F1.2
sS'velocities_arr_8'
p97
I0
sS'velocities_arr_9'
p98
I0
sg51
I99
sg69
I45
sS'velocities_arr_7'
p99
I0
sS'category_exercise_name_12'
p100
I0
sS'category_exercise_name_10'
p101
I0
sS'category_exercise_name_11'
p102
I0
sS'velocities_arr_10'
p103
I0
sg49
I5
sg75
I5
sS'category_exercise_name_0'
p104
I0
sS'category_exercise_name_1'
p105
I0
sS'category_exercise_name_2'
p106
I1
sS'category_exercise_name_3'
p107
I0
sS'category_exercise_name_4'
p108
I0
sS'category_exercise_name_5'
p109
I0
sS'category_exercise_name_6'
p110
I0
sS'category_exercise_name_7'
p111
I0
sS'category_exercise_name_8'
p112
I0
sS'category_exercise_name_9'
p113
I0
sg86
I0
sg52
I0
sg87
I0
sS'velocities_arr_11'
p114
I0
sg56
I0
sg36
I0
sa(dp115
g13
I1
sS'velocities_arr_0'
p116
F0.8
sS'velocities_arr_2'
p117
F0.78
sS'velocities_arr_3'
p118
F0.77
sS'velocities_arr_4'
p119
F0.74
sS'velocities_arr_5'
p120
I0
sS'velocities_arr_6'
p121
I0
sS'velocities_arr_1'
p122
F0.89
sS'velocities_arr_8'
p123
I0
sS'velocities_arr_9'
p124
I0
sg51
I120
sg69
I135
sS'velocities_arr_7'
p125
I0
sS'category_exercise_name_12'
p126
I0
sS'category_exercise_name_10'
p127
I0
sS'category_exercise_name_11'
p128
I0
sS'velocities_arr_10'
p129
I0
sg49
I5
sg75
I5
sS'category_exercise_name_0'
p130
I0
sS'category_exercise_name_1'
p131
I0
sS'category_exercise_name_2'
p132
I1
sS'category_exercise_name_3'
p133
I0
sS'category_exercise_name_4'
p134
I0
sS'category_exercise_name_5'
p135
I0
sS'category_exercise_name_6'
p136
I0
sS'category_exercise_name_7'
p137
I0
sS'category_exercise_name_8'
p138
I0
sS'category_exercise_name_9'
p139
I0
sg86
I1
sg52
I0
sg87
I0
sS'velocities_arr_11'
p140
I0
sg56
I0
sg36
I0
sa(dp141
g13
I1
sS'velocities_arr_0'
p142
F0.67
sS'velocities_arr_2'
p143
F0.64
sS'velocities_arr_3'
p144
F0.62
sS'velocities_arr_4'
p145
F0.6
sS'velocities_arr_5'
p146
F0.57
sS'velocities_arr_6'
p147
I0
sS'velocities_arr_1'
p148
F0.66
sS'velocities_arr_8'
p149
I0
sS'velocities_arr_9'
p150
I0
sg51
I139
sg69
I185
sS'velocities_arr_7'
p151
I0
sS'category_exercise_name_12'
p152
I0
sS'category_exercise_name_10'
p153
I0
sS'category_exercise_name_11'
p154
I0
sS'velocities_arr_10'
p155
I0
sg49
I6
sg75
I6
sS'category_exercise_name_0'
p156
I0
sS'category_exercise_name_1'
p157
I0
sS'category_exercise_name_2'
p158
I1
sS'category_exercise_name_3'
p159
I0
sS'category_exercise_name_4'
p160
I0
sS'category_exercise_name_5'
p161
I0
sS'category_exercise_name_6'
p162
I0
sS'category_exercise_name_7'
p163
I0
sS'category_exercise_name_8'
p164
I0
sS'category_exercise_name_9'
p165
I0
sg86
I2
sg52
I0
sg87
I0
sS'velocities_arr_11'
p166
I0
sg56
I0
sg36
I0
sa(dp167
g13
I1
sS'velocities_arr_0'
p168
F0.64
sS'velocities_arr_2'
p169
F0.57
sS'velocities_arr_3'
p170
F0.53
sS'velocities_arr_4'
p171
F0.53
sS'velocities_arr_5'
p172
I0
sS'velocities_arr_6'
p173
I0
sS'velocities_arr_1'
p174
F0.61
sS'velocities_arr_8'
p175
I0
sS'velocities_arr_9'
p176
I0
sg51
I144
sg69
I205
sS'velocities_arr_7'
p177
I0
sS'category_exercise_name_12'
p178
I0
sS'category_exercise_name_10'
p179
I0
sS'category_exercise_name_11'
p180
I0
sS'velocities_arr_10'
p181
I0
sg49
I5
sg75
I5
sS'category_exercise_name_0'
p182
I0
sS'category_exercise_name_1'
p183
I0
sS'category_exercise_name_2'
p184
I1
sS'category_exercise_name_3'
p185
I0
sS'category_exercise_name_4'
p186
I0
sS'category_exercise_name_5'
p187
I0
sS'category_exercise_name_6'
p188
I0
sS'category_exercise_name_7'
p189
I0
sS'category_exercise_name_8'
p190
I0
sS'category_exercise_name_9'
p191
I0
sg86
I3
sg52
I0
sg87
I0
sS'velocities_arr_11'
p192
I0
sg56
I0
sg36
I0
sa(dp193
g13
I1
sg60
I0
sg61
I0
sg62
I0
sg63
I0
sg64
I0
sg65
I0
sg66
I0
sg67
I0
sg68
I0
sg51
I-1
sg69
I235
sg70
I0
sg71
I0
sg72
I0
sg73
I0
sg49
I-1
sg75
I5
sg76
I0
sg77
I0
sg78
I0
sg79
I0
sg80
I0
sg81
I0
sg82
I0
sg83
I0
sg84
I0
sg85
I0
sg86
I4
sg52
I-1
sg74
I1
sg87
I0
sg88
I0
sg56
I-1
sg36
I0
sas.