(dp0
S'userx'
p1
(dp2
S'wrist_width_inches'
p3
I7
sS'height_inches'
p4
F70.0
sS'harris_benedict_bmr'
p5
I-1
sS'genetically_gifted'
p6
I0
sS'years_old'
p7
I31
sS'ankle_width_inches'
p8
I9
sS'sex_is_male'
p9
I1
ssS'dayseriesx'
p10
(lp11
(dp12
S'day_number'
p13
I-1
sS'sleeptime_awake_hrs'
p14
I-1
sS'withings_body_water_percent'
p15
I-1
sS'heart_rate_variability_rmssd'
p16
I-1
sS'sleeptime_deep_rem_hrs'
p17
I-1
sS'withings_body_fat_percent'
p18
I-1
sS'withings_weight_lbs'
p19
I-1
sS'sleeptime_efficiency_percent'
p20
I-1
sS'post_day_calories_in'
p21
I-1
sS'post_day_fat_g'
p22
I-1
sS'sleeptime_bed_time_ampm_index'
p23
I-1
sS'withings_muscle_mass_percent'
p24
I-1
sS'days_since_last_recorded_day'
p25
I-1
sS'sleeptime_alarm_ring_ampm_index'
p26
I-1
sS'withings_bone_mass_percent'
p27
I-1
sS'sleeptime_snoozed'
p28
I-1
sS'sleeptime_light_sleep_hrs'
p29
I-1
sS'withings_heart_rate_bpm'
p30
I-1
sS'sleeptime_alarm_set_ampm_index'
p31
I-1
sS'post_day_protein_g'
p32
I-1
sS'post_day_wearable_calories_burned'
p33
I-1
sS'withings_pulse_wave_velocity_m_per_s'
p34
I-1
sS'sleeptime_rise_time_ampm_index'
p35
I-1
sS'days_since_last_workout'
p36
I-1
sS'post_day_carbs_g'
p37
I-1
sag12
ag12
ag12
ag12
ag12
a(dp38
g13
I0
sg14
F0.4
sg15
F56.5
sg16
I-1
sg17
F1.6666666666666665
sg18
F15.0
sg19
F162.6
sg20
F94.0
sg21
I-1
sg22
I-1
sg23
I1435
sg24
F81.4
sg25
F0.0
sg26
I406
sg27
F4.0
sg28
I3
sg29
F5.216666666666667
sg30
I82
sg31
I425
sg32
I-1
sg33
I-1
sg34
F7.4
sg35
I432
sg36
I0
sg37
I-1
sa(dp39
g13
I1
sg14
I-1
sg15
F56.3
sg16
I-1
sg17
I-1
sg18
F14.7
sg19
F164.4
sg20
I-1
sg21
I-1
sg22
I-1
sg23
I1440
sg24
F81.0
sg25
F1.0
sg26
I1440
sg27
F4.0
sg28
I-1
sg29
I-1
sg30
I86
sg31
I1440
sg32
I-1
sg33
I-1
sg34
F7.4
sg35
I1440
sg36
F1.0
sg37
I-1
sa(dp40
g13
I2
sg14
F0.9833333333333333
sg15
F57.1
sg16
I-1
sg17
F2.65
sg18
F13.7
sg19
F165.0
sg20
F86.0
sg21
I-1
sg22
I-1
sg23
I1427
sg24
F82.2
sg25
F1.0
sg26
I418
sg27
F4.0
sg28
I2
sg29
F3.65
sg30
I93
sg31
I425
sg32
I-1
sg33
I-1
sg34
F7.3
sg35
I425
sg36
F2.0
sg37
I-1
sa(dp41
g13
I3
sg14
F3.8333333333333335
sg15
F56.6
sg16
I-1
sg17
F1.4
sg18
F14.4
sg19
F164.4
sg20
F47.0
sg21
I-1
sg22
I-1
sg23
I1426
sg24
F81.6
sg25
F1.0
sg26
I411
sg27
F4.0
sg28
I2
sg29
F2.1333333333333333
sg30
I77
sg31
I426
sg32
I-1
sg33
I-1
sg34
F7.5
sg35
I429
sg36
F3.0
sg37
I-1
sa(dp42
g13
I4
sg14
F0.2833333333333333
sg15
F56.0
sg16
I-1
sg17
F2.1333333333333333
sg18
F15.6
sg19
F164.1
sg20
F96.0
sg21
I-1
sg22
I-1
sg23
I1
sg24
F80.4
sg25
F1.0
sg26
I1440
sg27
F4.0
sg28
I0
sg29
F4.85
sg30
I76
sg31
I480
sg32
I-1
sg33
I-1
sg34
F7.5
sg35
I438
sg36
F0.0
sg37
I-1
sasS'workouty'
p43
(dp44
S'velocities_arr_0'
p45
F0.65
sS'velocities_arr_1'
p46
I0
sS'velocities_arr_2'
p47
I0
sS'velocities_arr_3'
p48
I0
sS'velocities_arr_4'
p49
I0
sS'velocities_arr_5'
p50
I0
sS'velocities_arr_6'
p51
I0
sS'velocities_arr_7'
p52
I0
sS'reps_completed'
p53
I1
sS'velocities_arr_9'
p54
I0
sS'postset_heartrate'
p55
I125
sS'went_to_failure'
p56
I0
sS'velocities_arr_8'
p57
I0
sS'velocities_arr_10'
p58
I0
sS'velocities_arr_11'
p59
I0
sS'did_pull_muscle'
p60
I0
ssS'workoutxseries'
p61
(lp62
(dp63
g13
I5
sS'velocities_arr_0'
p64
I0
sS'velocities_arr_2'
p65
I0
sS'velocities_arr_3'
p66
I0
sS'velocities_arr_4'
p67
I0
sS'velocities_arr_5'
p68
I0
sS'velocities_arr_6'
p69
I0
sS'velocities_arr_1'
p70
I0
sS'velocities_arr_8'
p71
I0
sS'velocities_arr_9'
p72
I0
sg55
I-1
sS'weight_lbs'
p73
I-1
sS'velocities_arr_7'
p74
I0
sS'category_exercise_name_12'
p75
I0
sS'category_exercise_name_10'
p76
I0
sS'category_exercise_name_11'
p77
I0
sS'category_exercise_name_2'
p78
I0
sg53
I-1
sS'reps_planned'
p79
I-1
sS'category_exercise_name_0'
p80
I0
sS'category_exercise_name_1'
p81
I0
sS'velocities_arr_10'
p82
I0
sS'category_exercise_name_3'
p83
I0
sS'category_exercise_name_4'
p84
I0
sS'category_exercise_name_5'
p85
I0
sS'category_exercise_name_6'
p86
I0
sS'category_exercise_name_7'
p87
I0
sS'category_exercise_name_8'
p88
I0
sS'category_exercise_name_9'
p89
I0
sS'set_number_of_the_day'
p90
I19
sg56
I0
sS'used_lifting_gear'
p91
I0
sS'velocities_arr_11'
p92
I0
sg60
I0
sg36
I0
sag63
ag63
ag63
ag63
ag63
ag63
ag63
ag63
ag63
ag63
ag63
ag63
ag63
a(dp93
g13
I1
sS'velocities_arr_0'
p94
F1.82
sS'velocities_arr_2'
p95
F1.71
sS'velocities_arr_3'
p96
F1.86
sS'velocities_arr_4'
p97
F1.82
sS'velocities_arr_5'
p98
F1.82
sS'velocities_arr_6'
p99
I0
sS'velocities_arr_1'
p100
F1.68
sS'velocities_arr_8'
p101
I0
sS'velocities_arr_9'
p102
I0
sg55
I80
sg73
I45
sS'velocities_arr_7'
p103
I0
sS'category_exercise_name_12'
p104
I0
sS'category_exercise_name_10'
p105
I0
sS'category_exercise_name_11'
p106
I0
sS'velocities_arr_10'
p107
I0
sg53
I6
sg79
I6
sS'category_exercise_name_0'
p108
I0
sS'category_exercise_name_1'
p109
I0
sS'category_exercise_name_2'
p110
I0
sS'category_exercise_name_3'
p111
I1
sS'category_exercise_name_4'
p112
I0
sS'category_exercise_name_5'
p113
I0
sS'category_exercise_name_6'
p114
I0
sS'category_exercise_name_7'
p115
I0
sS'category_exercise_name_8'
p116
I0
sS'category_exercise_name_9'
p117
I0
sg90
I0
sg56
I0
sg91
I0
sS'velocities_arr_11'
p118
I0
sg60
I0
sg36
I0
sa(dp119
g13
I1
sS'velocities_arr_0'
p120
F0.79
sS'velocities_arr_2'
p121
F0.71
sS'velocities_arr_3'
p122
F0.7
sS'velocities_arr_4'
p123
F0.62
sS'velocities_arr_5'
p124
F0.6
sS'velocities_arr_6'
p125
I0
sS'velocities_arr_1'
p126
F0.71
sS'velocities_arr_8'
p127
I0
sS'velocities_arr_9'
p128
I0
sg55
I92
sg73
I105
sS'velocities_arr_7'
p129
I0
sS'category_exercise_name_12'
p130
I0
sS'category_exercise_name_10'
p131
I0
sS'category_exercise_name_11'
p132
I0
sS'velocities_arr_10'
p133
I0
sg53
I6
sg79
I6
sS'category_exercise_name_0'
p134
I0
sS'category_exercise_name_1'
p135
I0
sS'category_exercise_name_2'
p136
I0
sS'category_exercise_name_3'
p137
I1
sS'category_exercise_name_4'
p138
I0
sS'category_exercise_name_5'
p139
I0
sS'category_exercise_name_6'
p140
I0
sS'category_exercise_name_7'
p141
I0
sS'category_exercise_name_8'
p142
I0
sS'category_exercise_name_9'
p143
I0
sg90
I1
sg56
I0
sg91
I0
sS'velocities_arr_11'
p144
I0
sg60
I0
sg36
I0
sa(dp145
g13
I1
sS'velocities_arr_0'
p146
F0.71
sS'velocities_arr_2'
p147
F0.62
sS'velocities_arr_3'
p148
F0.65
sS'velocities_arr_4'
p149
F0.64
sS'velocities_arr_5'
p150
F0.64
sS'velocities_arr_6'
p151
I0
sS'velocities_arr_1'
p152
F0.66
sS'velocities_arr_8'
p153
I0
sS'velocities_arr_9'
p154
I0
sg55
I93
sg73
I105
sS'velocities_arr_7'
p155
I0
sS'category_exercise_name_12'
p156
I0
sS'category_exercise_name_10'
p157
I0
sS'category_exercise_name_11'
p158
I0
sS'velocities_arr_10'
p159
I0
sg53
I6
sg79
I6
sS'category_exercise_name_0'
p160
I0
sS'category_exercise_name_1'
p161
I0
sS'category_exercise_name_2'
p162
I0
sS'category_exercise_name_3'
p163
I1
sS'category_exercise_name_4'
p164
I0
sS'category_exercise_name_5'
p165
I0
sS'category_exercise_name_6'
p166
I0
sS'category_exercise_name_7'
p167
I0
sS'category_exercise_name_8'
p168
I0
sS'category_exercise_name_9'
p169
I0
sg90
I2
sg56
I0
sg91
I0
sS'velocities_arr_11'
p170
I0
sg60
I0
sg36
I0
sa(dp171
g13
I1
sS'velocities_arr_0'
p172
F0.67
sS'velocities_arr_2'
p173
F0.59
sS'velocities_arr_3'
p174
F0.7
sS'velocities_arr_4'
p175
F0.6
sS'velocities_arr_5'
p176
F0.68
sS'velocities_arr_6'
p177
I0
sS'velocities_arr_1'
p178
F0.67
sS'velocities_arr_8'
p179
I0
sS'velocities_arr_9'
p180
I0
sg55
I83
sg73
I105
sS'velocities_arr_7'
p181
I0
sS'category_exercise_name_12'
p182
I0
sS'category_exercise_name_10'
p183
I0
sS'category_exercise_name_11'
p184
I0
sS'velocities_arr_10'
p185
I0
sg53
I6
sg79
I6
sS'category_exercise_name_0'
p186
I0
sS'category_exercise_name_1'
p187
I0
sS'category_exercise_name_2'
p188
I0
sS'category_exercise_name_3'
p189
I1
sS'category_exercise_name_4'
p190
I0
sS'category_exercise_name_5'
p191
I0
sS'category_exercise_name_6'
p192
I0
sS'category_exercise_name_7'
p193
I0
sS'category_exercise_name_8'
p194
I0
sS'category_exercise_name_9'
p195
I0
sg90
I3
sg56
I0
sg91
I0
sS'velocities_arr_11'
p196
I0
sg60
I0
sg36
I0
sa(dp197
g13
I1
sS'velocities_arr_0'
p198
F0.71
sS'velocities_arr_2'
p199
F0.66
sS'velocities_arr_3'
p200
F0.71
sS'velocities_arr_4'
p201
F0.71
sS'velocities_arr_5'
p202
F0.61
sS'velocities_arr_6'
p203
I0
sS'velocities_arr_1'
p204
F0.71
sS'velocities_arr_8'
p205
I0
sS'velocities_arr_9'
p206
I0
sg55
I90
sg73
I105
sS'velocities_arr_7'
p207
I0
sS'category_exercise_name_12'
p208
I0
sS'category_exercise_name_10'
p209
I0
sS'category_exercise_name_11'
p210
I0
sS'velocities_arr_10'
p211
I0
sg53
I6
sg79
I6
sS'category_exercise_name_0'
p212
I0
sS'category_exercise_name_1'
p213
I0
sS'category_exercise_name_2'
p214
I0
sS'category_exercise_name_3'
p215
I1
sS'category_exercise_name_4'
p216
I0
sS'category_exercise_name_5'
p217
I0
sS'category_exercise_name_6'
p218
I0
sS'category_exercise_name_7'
p219
I0
sS'category_exercise_name_8'
p220
I0
sS'category_exercise_name_9'
p221
I0
sg90
I4
sg56
I0
sg91
I0
sS'velocities_arr_11'
p222
I0
sg60
I0
sg36
I0
sa(dp223
g13
I5
sS'velocities_arr_0'
p224
F1.16
sS'velocities_arr_2'
p225
F1.36
sS'velocities_arr_3'
p226
F1.18
sS'velocities_arr_4'
p227
F1.12
sS'velocities_arr_5'
p228
F1.1
sS'velocities_arr_6'
p229
I0
sS'velocities_arr_1'
p230
F1.25
sS'velocities_arr_8'
p231
I0
sS'velocities_arr_9'
p232
I0
sg55
I103
sg73
I45
sS'velocities_arr_7'
p233
I0
sS'category_exercise_name_12'
p234
I0
sS'category_exercise_name_10'
p235
I0
sS'category_exercise_name_11'
p236
I0
sS'velocities_arr_10'
p237
I0
sg53
I6
sg79
I6
sS'category_exercise_name_0'
p238
I0
sS'category_exercise_name_1'
p239
I0
sS'category_exercise_name_2'
p240
I1
sS'category_exercise_name_3'
p241
I0
sS'category_exercise_name_4'
p242
I0
sS'category_exercise_name_5'
p243
I0
sS'category_exercise_name_6'
p244
I0
sS'category_exercise_name_7'
p245
I0
sS'category_exercise_name_8'
p246
I0
sS'category_exercise_name_9'
p247
I0
sg90
I0
sg56
I0
sg91
I0
sS'velocities_arr_11'
p248
I0
sg60
I0
sg36
F0.0
sa(dp249
g13
I5
sS'velocities_arr_0'
p250
F0.89
sS'velocities_arr_2'
p251
F0.81
sS'velocities_arr_3'
p252
F0.8
sS'velocities_arr_4'
p253
F0.81
sS'velocities_arr_5'
p254
F0.81
sS'velocities_arr_6'
p255
I0
sS'velocities_arr_1'
p256
F0.9
sS'velocities_arr_8'
p257
I0
sS'velocities_arr_9'
p258
I0
sg55
I117
sg73
I135
sS'velocities_arr_7'
p259
I0
sS'category_exercise_name_12'
p260
I0
sS'category_exercise_name_10'
p261
I0
sS'category_exercise_name_11'
p262
I0
sS'velocities_arr_10'
p263
I0
sg53
I6
sg79
I6
sS'category_exercise_name_0'
p264
I0
sS'category_exercise_name_1'
p265
I0
sS'category_exercise_name_2'
p266
I1
sS'category_exercise_name_3'
p267
I0
sS'category_exercise_name_4'
p268
I0
sS'category_exercise_name_5'
p269
I0
sS'category_exercise_name_6'
p270
I0
sS'category_exercise_name_7'
p271
I0
sS'category_exercise_name_8'
p272
I0
sS'category_exercise_name_9'
p273
I0
sg90
I1
sg56
I0
sg91
I0
sS'velocities_arr_11'
p274
I0
sg60
I0
sg36
F0.0
sa(dp275
g13
I5
sS'velocities_arr_0'
p276
F0.74
sS'velocities_arr_2'
p277
F0.68
sS'velocities_arr_3'
p278
F0.64
sS'velocities_arr_4'
p279
F0.64
sS'velocities_arr_5'
p280
F0.64
sS'velocities_arr_6'
p281
I0
sS'velocities_arr_1'
p282
F0.7
sS'velocities_arr_8'
p283
I0
sS'velocities_arr_9'
p284
I0
sg55
I130
sg73
I185
sS'velocities_arr_7'
p285
I0
sS'category_exercise_name_12'
p286
I0
sS'category_exercise_name_10'
p287
I0
sS'category_exercise_name_11'
p288
I0
sS'velocities_arr_10'
p289
I0
sg53
I6
sg79
I6
sS'category_exercise_name_0'
p290
I0
sS'category_exercise_name_1'
p291
I0
sS'category_exercise_name_2'
p292
I1
sS'category_exercise_name_3'
p293
I0
sS'category_exercise_name_4'
p294
I0
sS'category_exercise_name_5'
p295
I0
sS'category_exercise_name_6'
p296
I0
sS'category_exercise_name_7'
p297
I0
sS'category_exercise_name_8'
p298
I0
sS'category_exercise_name_9'
p299
I0
sg90
I2
sg56
I0
sg91
I0
sS'velocities_arr_11'
p300
I0
sg60
I0
sg36
F0.0
sa(dp301
g13
I5
sS'velocities_arr_0'
p302
F0.76
sS'velocities_arr_2'
p303
F0.68
sS'velocities_arr_3'
p304
F0.67
sS'velocities_arr_4'
p305
F0.62
sS'velocities_arr_5'
p306
F0.6
sS'velocities_arr_6'
p307
I0
sS'velocities_arr_1'
p308
F0.76
sS'velocities_arr_8'
p309
I0
sS'velocities_arr_9'
p310
I0
sg55
I146
sg73
I175
sS'velocities_arr_7'
p311
I0
sS'category_exercise_name_12'
p312
I0
sS'category_exercise_name_10'
p313
I0
sS'category_exercise_name_11'
p314
I0
sS'velocities_arr_10'
p315
I0
sg53
I6
sg79
I6
sS'category_exercise_name_0'
p316
I0
sS'category_exercise_name_1'
p317
I0
sS'category_exercise_name_2'
p318
I1
sS'category_exercise_name_3'
p319
I0
sS'category_exercise_name_4'
p320
I0
sS'category_exercise_name_5'
p321
I0
sS'category_exercise_name_6'
p322
I0
sS'category_exercise_name_7'
p323
I0
sS'category_exercise_name_8'
p324
I0
sS'category_exercise_name_9'
p325
I0
sg90
I3
sg56
I0
sg91
I0
sS'velocities_arr_11'
p326
I0
sg60
I0
sg36
F0.0
sa(dp327
g13
I5
sS'velocities_arr_0'
p328
F0.85
sS'velocities_arr_2'
p329
F0.77
sS'velocities_arr_3'
p330
F0.69
sS'velocities_arr_4'
p331
F0.68
sS'velocities_arr_5'
p332
F0.7
sS'velocities_arr_6'
p333
I0
sS'velocities_arr_1'
p334
F0.8
sS'velocities_arr_8'
p335
I0
sS'velocities_arr_9'
p336
I0
sg55
I149
sg73
I165
sS'velocities_arr_7'
p337
I0
sS'category_exercise_name_12'
p338
I0
sS'category_exercise_name_10'
p339
I0
sS'category_exercise_name_11'
p340
I0
sS'velocities_arr_10'
p341
I0
sg53
I6
sg79
I6
sS'category_exercise_name_0'
p342
I0
sS'category_exercise_name_1'
p343
I0
sS'category_exercise_name_2'
p344
I1
sS'category_exercise_name_3'
p345
I0
sS'category_exercise_name_4'
p346
I0
sS'category_exercise_name_5'
p347
I0
sS'category_exercise_name_6'
p348
I0
sS'category_exercise_name_7'
p349
I0
sS'category_exercise_name_8'
p350
I0
sS'category_exercise_name_9'
p351
I0
sg90
I4
sg56
I0
sg91
I0
sS'velocities_arr_11'
p352
I0
sg60
I0
sg36
F0.0
sa(dp353
g13
I5
sS'velocities_arr_0'
p354
F0.76
sS'velocities_arr_2'
p355
F0.69
sS'velocities_arr_3'
p356
F0.59
sS'velocities_arr_4'
p357
F0.58
sS'velocities_arr_5'
p358
F0.62
sS'velocities_arr_6'
p359
I0
sS'velocities_arr_1'
p360
F0.74
sS'velocities_arr_8'
p361
I0
sS'velocities_arr_9'
p362
I0
sg55
I149
sg73
I170
sS'velocities_arr_7'
p363
I0
sS'category_exercise_name_12'
p364
I0
sS'category_exercise_name_10'
p365
I0
sS'category_exercise_name_11'
p366
I0
sS'velocities_arr_10'
p367
I0
sg53
I6
sg79
I6
sS'category_exercise_name_0'
p368
I0
sS'category_exercise_name_1'
p369
I0
sS'category_exercise_name_2'
p370
I1
sS'category_exercise_name_3'
p371
I0
sS'category_exercise_name_4'
p372
I0
sS'category_exercise_name_5'
p373
I0
sS'category_exercise_name_6'
p374
I0
sS'category_exercise_name_7'
p375
I0
sS'category_exercise_name_8'
p376
I0
sS'category_exercise_name_9'
p377
I0
sg90
I5
sg56
I0
sg91
I0
sS'velocities_arr_11'
p378
I0
sg60
I0
sg36
F0.0
sa(dp379
g13
I5
sS'velocities_arr_0'
p380
F1.92
sS'velocities_arr_2'
p381
F2.41
sS'velocities_arr_3'
p382
F1.96
sS'velocities_arr_4'
p383
F1.65
sS'velocities_arr_5'
p384
F1.68
sS'velocities_arr_6'
p385
I0
sS'velocities_arr_1'
p386
F2.12
sS'velocities_arr_8'
p387
I0
sS'velocities_arr_9'
p388
I0
sg55
I116
sg73
I45
sS'velocities_arr_7'
p389
I0
sS'category_exercise_name_12'
p390
I0
sS'category_exercise_name_10'
p391
I0
sS'category_exercise_name_11'
p392
I0
sS'velocities_arr_10'
p393
I0
sg53
I6
sg79
I6
sS'category_exercise_name_0'
p394
I0
sS'category_exercise_name_1'
p395
I0
sS'category_exercise_name_2'
p396
I0
sS'category_exercise_name_3'
p397
I1
sS'category_exercise_name_4'
p398
I0
sS'category_exercise_name_5'
p399
I0
sS'category_exercise_name_6'
p400
I0
sS'category_exercise_name_7'
p401
I0
sS'category_exercise_name_8'
p402
I0
sS'category_exercise_name_9'
p403
I0
sg90
I6
sg56
I0
sg91
I0
sS'velocities_arr_11'
p404
I0
sg60
I0
sg36
F0.0
sa(dp405
g13
I5
sS'velocities_arr_0'
p406
F0.94
sS'velocities_arr_2'
p407
F0.88
sS'velocities_arr_3'
p408
F0.9
sS'velocities_arr_4'
p409
F0.0
sS'velocities_arr_5'
p410
F0.84
sS'velocities_arr_6'
p411
I0
sS'velocities_arr_1'
p412
F0.84
sS'velocities_arr_8'
p413
I0
sS'velocities_arr_9'
p414
I0
sg55
I125
sg73
I95
sS'velocities_arr_7'
p415
I0
sS'category_exercise_name_12'
p416
I0
sS'category_exercise_name_10'
p417
I0
sS'category_exercise_name_11'
p418
I0
sS'velocities_arr_10'
p419
I0
sg53
I6
sg79
I6
sS'category_exercise_name_0'
p420
I0
sS'category_exercise_name_1'
p421
I0
sS'category_exercise_name_2'
p422
I0
sS'category_exercise_name_3'
p423
I1
sS'category_exercise_name_4'
p424
I0
sS'category_exercise_name_5'
p425
I0
sS'category_exercise_name_6'
p426
I0
sS'category_exercise_name_7'
p427
I0
sS'category_exercise_name_8'
p428
I0
sS'category_exercise_name_9'
p429
I0
sg90
I7
sg56
I0
sg91
I0
sS'velocities_arr_11'
p430
I0
sg60
I0
sg36
F0.0
sa(dp431
g13
I5
sS'velocities_arr_0'
p432
F0.85
sS'velocities_arr_2'
p433
F0.73
sS'velocities_arr_3'
p434
F0.71
sS'velocities_arr_4'
p435
F0.69
sS'velocities_arr_5'
p436
F0.64
sS'velocities_arr_6'
p437
I0
sS'velocities_arr_1'
p438
F0.78
sS'velocities_arr_8'
p439
I0
sS'velocities_arr_9'
p440
I0
sg55
I118
sg73
I105
sS'velocities_arr_7'
p441
I0
sS'category_exercise_name_12'
p442
I0
sS'category_exercise_name_10'
p443
I0
sS'category_exercise_name_11'
p444
I0
sS'velocities_arr_10'
p445
I0
sg53
I6
sg79
I6
sS'category_exercise_name_0'
p446
I0
sS'category_exercise_name_1'
p447
I0
sS'category_exercise_name_2'
p448
I0
sS'category_exercise_name_3'
p449
I1
sS'category_exercise_name_4'
p450
I0
sS'category_exercise_name_5'
p451
I0
sS'category_exercise_name_6'
p452
I0
sS'category_exercise_name_7'
p453
I0
sS'category_exercise_name_8'
p454
I0
sS'category_exercise_name_9'
p455
I0
sg90
I8
sg56
I0
sg91
I0
sS'velocities_arr_11'
p456
I0
sg60
I0
sg36
F0.0
sa(dp457
g13
I5
sS'velocities_arr_0'
p458
F0.9
sS'velocities_arr_2'
p459
F0.78
sS'velocities_arr_3'
p460
F0.76
sS'velocities_arr_4'
p461
F0.73
sS'velocities_arr_5'
p462
F0.73
sS'velocities_arr_6'
p463
I0
sS'velocities_arr_1'
p464
F0.83
sS'velocities_arr_8'
p465
I0
sS'velocities_arr_9'
p466
I0
sg55
I122
sg73
I105
sS'velocities_arr_7'
p467
I0
sS'category_exercise_name_12'
p468
I0
sS'category_exercise_name_10'
p469
I0
sS'category_exercise_name_11'
p470
I0
sS'velocities_arr_10'
p471
I0
sg53
I6
sg79
I6
sS'category_exercise_name_0'
p472
I0
sS'category_exercise_name_1'
p473
I0
sS'category_exercise_name_2'
p474
I0
sS'category_exercise_name_3'
p475
I1
sS'category_exercise_name_4'
p476
I0
sS'category_exercise_name_5'
p477
I0
sS'category_exercise_name_6'
p478
I0
sS'category_exercise_name_7'
p479
I0
sS'category_exercise_name_8'
p480
I0
sS'category_exercise_name_9'
p481
I0
sg90
I9
sg56
I0
sg91
I0
sS'velocities_arr_11'
p482
I0
sg60
I0
sg36
F0.0
sa(dp483
g13
I5
sS'velocities_arr_0'
p484
F0.85
sS'velocities_arr_2'
p485
F0.66
sS'velocities_arr_3'
p486
F0.69
sS'velocities_arr_4'
p487
F0.62
sS'velocities_arr_5'
p488
F0.62
sS'velocities_arr_6'
p489
I0
sS'velocities_arr_1'
p490
F0.81
sS'velocities_arr_8'
p491
I0
sS'velocities_arr_9'
p492
I0
sg55
I130
sg73
I110
sS'velocities_arr_7'
p493
I0
sS'category_exercise_name_12'
p494
I0
sS'category_exercise_name_10'
p495
I0
sS'category_exercise_name_11'
p496
I0
sS'velocities_arr_10'
p497
I0
sg53
I6
sg79
I6
sS'category_exercise_name_0'
p498
I0
sS'category_exercise_name_1'
p499
I0
sS'category_exercise_name_2'
p500
I0
sS'category_exercise_name_3'
p501
I1
sS'category_exercise_name_4'
p502
I0
sS'category_exercise_name_5'
p503
I0
sS'category_exercise_name_6'
p504
I0
sS'category_exercise_name_7'
p505
I0
sS'category_exercise_name_8'
p506
I0
sS'category_exercise_name_9'
p507
I0
sg90
I10
sg56
I0
sg91
I0
sS'velocities_arr_11'
p508
I0
sg60
I0
sg36
F0.0
sa(dp509
g13
I5
sS'velocities_arr_0'
p510
F0.76
sS'velocities_arr_2'
p511
F0.63
sS'velocities_arr_3'
p512
F0.59
sS'velocities_arr_4'
p513
F0.58
sS'velocities_arr_5'
p514
F0.63
sS'velocities_arr_6'
p515
I0
sS'velocities_arr_1'
p516
F0.75
sS'velocities_arr_8'
p517
I0
sS'velocities_arr_9'
p518
I0
sg55
I124
sg73
I110
sS'velocities_arr_7'
p519
I0
sS'category_exercise_name_12'
p520
I0
sS'category_exercise_name_10'
p521
I0
sS'category_exercise_name_11'
p522
I0
sS'velocities_arr_10'
p523
I0
sg53
I6
sg79
I6
sS'category_exercise_name_0'
p524
I0
sS'category_exercise_name_1'
p525
I0
sS'category_exercise_name_2'
p526
I0
sS'category_exercise_name_3'
p527
I1
sS'category_exercise_name_4'
p528
I0
sS'category_exercise_name_5'
p529
I0
sS'category_exercise_name_6'
p530
I0
sS'category_exercise_name_7'
p531
I0
sS'category_exercise_name_8'
p532
I0
sS'category_exercise_name_9'
p533
I0
sg90
I11
sg56
I0
sg91
I0
sS'velocities_arr_11'
p534
I0
sg60
I0
sg36
F0.0
sa(dp535
g13
I5
sS'velocities_arr_0'
p536
F0.7
sS'velocities_arr_2'
p537
I0
sS'velocities_arr_3'
p538
I0
sS'velocities_arr_4'
p539
I0
sS'velocities_arr_5'
p540
I0
sS'velocities_arr_6'
p541
I0
sS'velocities_arr_1'
p542
I0
sS'velocities_arr_8'
p543
I0
sS'velocities_arr_9'
p544
I0
sg55
I131
sg73
I135
sS'velocities_arr_7'
p545
I0
sS'category_exercise_name_12'
p546
I0
sS'category_exercise_name_10'
p547
I0
sS'category_exercise_name_11'
p548
I0
sS'velocities_arr_10'
p549
I0
sg53
I1
sg79
I1
sS'category_exercise_name_0'
p550
I1
sS'category_exercise_name_1'
p551
I0
sS'category_exercise_name_2'
p552
I0
sS'category_exercise_name_3'
p553
I0
sS'category_exercise_name_4'
p554
I0
sS'category_exercise_name_5'
p555
I0
sS'category_exercise_name_6'
p556
I0
sS'category_exercise_name_7'
p557
I0
sS'category_exercise_name_8'
p558
I0
sS'category_exercise_name_9'
p559
I0
sg90
I12
sg56
I0
sg91
I0
sS'velocities_arr_11'
p560
I0
sg60
I0
sg36
F0.0
sa(dp561
g13
I5
sS'velocities_arr_0'
p562
F0.67
sS'velocities_arr_2'
p563
I0
sS'velocities_arr_3'
p564
I0
sS'velocities_arr_4'
p565
I0
sS'velocities_arr_5'
p566
I0
sS'velocities_arr_6'
p567
I0
sS'velocities_arr_1'
p568
I0
sS'velocities_arr_8'
p569
I0
sS'velocities_arr_9'
p570
I0
sg55
I128
sg73
I135
sS'velocities_arr_7'
p571
I0
sS'category_exercise_name_12'
p572
I0
sS'category_exercise_name_10'
p573
I0
sS'category_exercise_name_11'
p574
I0
sS'velocities_arr_10'
p575
I0
sg53
I1
sg79
I1
sS'category_exercise_name_0'
p576
I1
sS'category_exercise_name_1'
p577
I0
sS'category_exercise_name_2'
p578
I0
sS'category_exercise_name_3'
p579
I0
sS'category_exercise_name_4'
p580
I0
sS'category_exercise_name_5'
p581
I0
sS'category_exercise_name_6'
p582
I0
sS'category_exercise_name_7'
p583
I0
sS'category_exercise_name_8'
p584
I0
sS'category_exercise_name_9'
p585
I0
sg90
I13
sg56
I0
sg91
I0
sS'velocities_arr_11'
p586
I0
sg60
I0
sg36
F0.0
sa(dp587
g13
I5
sS'velocities_arr_0'
p588
F0.71
sS'velocities_arr_2'
p589
I0
sS'velocities_arr_3'
p590
I0
sS'velocities_arr_4'
p591
I0
sS'velocities_arr_5'
p592
I0
sS'velocities_arr_6'
p593
I0
sS'velocities_arr_1'
p594
I0
sS'velocities_arr_8'
p595
I0
sS'velocities_arr_9'
p596
I0
sg55
I131
sg73
I135
sS'velocities_arr_7'
p597
I0
sS'category_exercise_name_12'
p598
I0
sS'category_exercise_name_10'
p599
I0
sS'category_exercise_name_11'
p600
I0
sS'velocities_arr_10'
p601
I0
sg53
I1
sg79
I1
sS'category_exercise_name_0'
p602
I1
sS'category_exercise_name_1'
p603
I0
sS'category_exercise_name_2'
p604
I0
sS'category_exercise_name_3'
p605
I0
sS'category_exercise_name_4'
p606
I0
sS'category_exercise_name_5'
p607
I0
sS'category_exercise_name_6'
p608
I0
sS'category_exercise_name_7'
p609
I0
sS'category_exercise_name_8'
p610
I0
sS'category_exercise_name_9'
p611
I0
sg90
I14
sg56
I0
sg91
I0
sS'velocities_arr_11'
p612
I0
sg60
I0
sg36
F0.0
sa(dp613
g13
I5
sS'velocities_arr_0'
p614
F0.9
sS'velocities_arr_2'
p615
I0
sS'velocities_arr_3'
p616
I0
sS'velocities_arr_4'
p617
I0
sS'velocities_arr_5'
p618
I0
sS'velocities_arr_6'
p619
I0
sS'velocities_arr_1'
p620
I0
sS'velocities_arr_8'
p621
I0
sS'velocities_arr_9'
p622
I0
sg55
I125
sg73
I145
sS'velocities_arr_7'
p623
I0
sS'category_exercise_name_12'
p624
I0
sS'category_exercise_name_10'
p625
I0
sS'category_exercise_name_11'
p626
I0
sS'velocities_arr_10'
p627
I0
sg53
I1
sg79
I1
sS'category_exercise_name_0'
p628
I1
sS'category_exercise_name_1'
p629
I0
sS'category_exercise_name_2'
p630
I0
sS'category_exercise_name_3'
p631
I0
sS'category_exercise_name_4'
p632
I0
sS'category_exercise_name_5'
p633
I0
sS'category_exercise_name_6'
p634
I0
sS'category_exercise_name_7'
p635
I0
sS'category_exercise_name_8'
p636
I0
sS'category_exercise_name_9'
p637
I0
sg90
I15
sg56
I0
sg91
I0
sS'velocities_arr_11'
p638
I0
sg60
I0
sg36
F0.0
sa(dp639
g13
I5
sS'velocities_arr_0'
p640
F0.77
sS'velocities_arr_2'
p641
I0
sS'velocities_arr_3'
p642
I0
sS'velocities_arr_4'
p643
I0
sS'velocities_arr_5'
p644
I0
sS'velocities_arr_6'
p645
I0
sS'velocities_arr_1'
p646
I0
sS'velocities_arr_8'
p647
I0
sS'velocities_arr_9'
p648
I0
sg55
I125
sg73
I155
sS'velocities_arr_7'
p649
I0
sS'category_exercise_name_12'
p650
I0
sS'category_exercise_name_10'
p651
I0
sS'category_exercise_name_11'
p652
I0
sS'velocities_arr_10'
p653
I0
sg53
I1
sg79
I1
sS'category_exercise_name_0'
p654
I1
sS'category_exercise_name_1'
p655
I0
sS'category_exercise_name_2'
p656
I0
sS'category_exercise_name_3'
p657
I0
sS'category_exercise_name_4'
p658
I0
sS'category_exercise_name_5'
p659
I0
sS'category_exercise_name_6'
p660
I0
sS'category_exercise_name_7'
p661
I0
sS'category_exercise_name_8'
p662
I0
sS'category_exercise_name_9'
p663
I0
sg90
I16
sg56
I0
sg91
I0
sS'velocities_arr_11'
p664
I0
sg60
I0
sg36
F0.0
sa(dp665
g13
I5
sS'velocities_arr_0'
p666
F1.46
sS'velocities_arr_2'
p667
I0
sS'velocities_arr_3'
p668
I0
sS'velocities_arr_4'
p669
I0
sS'velocities_arr_5'
p670
I0
sS'velocities_arr_6'
p671
I0
sS'velocities_arr_1'
p672
I0
sS'velocities_arr_8'
p673
I0
sS'velocities_arr_9'
p674
I0
sg55
I123
sg73
I175
sS'velocities_arr_7'
p675
I0
sS'category_exercise_name_12'
p676
I0
sS'category_exercise_name_10'
p677
I0
sS'category_exercise_name_11'
p678
I0
sS'velocities_arr_10'
p679
I0
sg53
I1
sg79
I1
sS'category_exercise_name_0'
p680
I1
sS'category_exercise_name_1'
p681
I0
sS'category_exercise_name_2'
p682
I0
sS'category_exercise_name_3'
p683
I0
sS'category_exercise_name_4'
p684
I0
sS'category_exercise_name_5'
p685
I0
sS'category_exercise_name_6'
p686
I0
sS'category_exercise_name_7'
p687
I0
sS'category_exercise_name_8'
p688
I0
sS'category_exercise_name_9'
p689
I0
sg90
I17
sg56
I0
sg91
I0
sS'velocities_arr_11'
p690
I0
sg60
I0
sg36
F0.0
sa(dp691
g13
I5
sS'velocities_arr_0'
p692
F0.61
sS'velocities_arr_2'
p693
I0
sS'velocities_arr_3'
p694
I0
sS'velocities_arr_4'
p695
I0
sS'velocities_arr_5'
p696
I0
sS'velocities_arr_6'
p697
I0
sS'velocities_arr_1'
p698
I0
sS'velocities_arr_8'
p699
I0
sS'velocities_arr_9'
p700
I0
sg55
I125
sg73
I185
sS'velocities_arr_7'
p701
I0
sS'category_exercise_name_12'
p702
I0
sS'category_exercise_name_10'
p703
I0
sS'category_exercise_name_11'
p704
I0
sS'velocities_arr_10'
p705
I0
sg53
I1
sg79
I1
sS'category_exercise_name_0'
p706
I1
sS'category_exercise_name_1'
p707
I0
sS'category_exercise_name_2'
p708
I0
sS'category_exercise_name_3'
p709
I0
sS'category_exercise_name_4'
p710
I0
sS'category_exercise_name_5'
p711
I0
sS'category_exercise_name_6'
p712
I0
sS'category_exercise_name_7'
p713
I0
sS'category_exercise_name_8'
p714
I0
sS'category_exercise_name_9'
p715
I0
sg90
I18
sg56
I0
sg91
I0
sS'velocities_arr_11'
p716
I0
sg60
I0
sg36
F0.0
sa(dp717
g13
I5
sg64
I0
sg65
I0
sg66
I0
sg67
I0
sg68
I0
sg69
I0
sg70
I0
sg71
I0
sg72
I0
sg55
I-1
sg73
I175
sg74
I0
sg75
I0
sg76
I0
sg77
I0
sg53
I-1
sg79
I1
sg80
I1
sg81
I0
sg82
I0
sg83
I0
sg84
I0
sg85
I0
sg86
I0
sg87
I0
sg88
I0
sg89
I0
sg90
I19
sg56
I-1
sg78
I0
sg91
I0
sg92
I0
sg60
I-1
sg36
F0.0
sas.