(dp0
S'userx'
p1
(dp2
S'wrist_width_inches'
p3
I7
sS'height_inches'
p4
F70.0
sS'harris_benedict_bmr'
p5
I-1
sS'genetically_gifted'
p6
I0
sS'years_old'
p7
I31
sS'ankle_width_inches'
p8
I9
sS'sex_is_male'
p9
I1
ssS'dayseriesx'
p10
(lp11
(dp12
S'day_number'
p13
I-1
sS'sleeptime_awake_hrs'
p14
I-1
sS'withings_body_water_percent'
p15
I-1
sS'heart_rate_variability_rmssd'
p16
I-1
sS'sleeptime_deep_rem_hrs'
p17
I-1
sS'withings_body_fat_percent'
p18
I-1
sS'withings_weight_lbs'
p19
I-1
sS'sleeptime_efficiency_percent'
p20
I-1
sS'post_day_calories_in'
p21
I-1
sS'post_day_fat_g'
p22
I-1
sS'sleeptime_bed_time_ampm_index'
p23
I-1
sS'withings_muscle_mass_percent'
p24
I-1
sS'days_since_last_recorded_day'
p25
I-1
sS'sleeptime_alarm_ring_ampm_index'
p26
I-1
sS'withings_bone_mass_percent'
p27
I-1
sS'sleeptime_snoozed'
p28
I-1
sS'sleeptime_light_sleep_hrs'
p29
I-1
sS'withings_heart_rate_bpm'
p30
I-1
sS'sleeptime_alarm_set_ampm_index'
p31
I-1
sS'post_day_protein_g'
p32
I-1
sS'post_day_wearable_calories_burned'
p33
I-1
sS'withings_pulse_wave_velocity_m_per_s'
p34
I-1
sS'sleeptime_rise_time_ampm_index'
p35
I-1
sS'days_since_last_workout'
p36
I-1
sS'post_day_carbs_g'
p37
I-1
sag12
ag12
ag12
ag12
ag12
ag12
ag12
ag12
ag12
ag12
a(dp38
g13
I0
sg14
F0.7333333333333333
sg15
F56.0
sg16
I-1
sg17
F4.733333333333333
sg18
F15.5
sg19
F163.1
sg20
F91.0
sg21
I-1
sg22
I-1
sg23
I1339
sg24
F80.5
sg25
F0.0
sg26
I425
sg27
F3.9
sg28
I4
sg29
F3.55
sg30
F72.0
sg31
I428
sg32
I-1
sg33
I-1
sg34
F7.4
sg35
I440
sg36
I0
sg37
I-1
sa(dp39
g13
I1
sg14
F0.35
sg15
F56.0
sg16
I-1
sg17
F4.233333333333333
sg18
F15.4
sg19
F162.4
sg20
F95.0
sg21
I-1
sg22
I-1
sg23
I1355
sg24
F80.6
sg25
F1.0
sg26
I412
sg27
F3.9
sg28
I4
sg29
F4.15
sg30
F88.0
sg31
I428
sg32
I-1
sg33
I-1
sg34
F7.5
sg35
I440
sg36
F0.0
sg37
I-1
sasS'workouty'
p40
(dp41
S'velocities_arr_0'
p42
F2.58
sS'velocities_arr_1'
p43
F2.08
sS'velocities_arr_2'
p44
F1.89
sS'velocities_arr_3'
p45
F2.2
sS'velocities_arr_4'
p46
F1.89
sS'velocities_arr_5'
p47
F2.2
sS'velocities_arr_6'
p48
F1.89
sS'velocities_arr_7'
p49
F1.89
sS'reps_completed'
p50
I8
sS'velocities_arr_9'
p51
F0.47
sS'postset_heartrate'
p52
I88
sS'went_to_failure'
p53
I0
sS'velocities_arr_8'
p54
F1.76
sS'velocities_arr_10'
p55
I0
sS'velocities_arr_11'
p56
I0
sS'did_pull_muscle'
p57
I0
ssS'workoutxseries'
p58
(lp59
(dp60
g13
I2
sS'velocities_arr_0'
p61
I0
sS'velocities_arr_2'
p62
I0
sS'velocities_arr_3'
p63
I0
sS'velocities_arr_4'
p64
I0
sS'velocities_arr_5'
p65
I0
sS'velocities_arr_6'
p66
I0
sS'velocities_arr_1'
p67
I0
sS'velocities_arr_8'
p68
I0
sS'velocities_arr_9'
p69
I0
sg52
I-1
sS'weight_lbs'
p70
I-1
sS'velocities_arr_7'
p71
I0
sS'category_exercise_name_12'
p72
I0
sS'category_exercise_name_13'
p73
I0
sS'category_exercise_name_10'
p74
I0
sS'category_exercise_name_11'
p75
I0
sS'category_exercise_name_2'
p76
I0
sg50
I-1
sS'reps_planned'
p77
I-1
sS'category_exercise_name_0'
p78
I0
sS'category_exercise_name_1'
p79
I0
sS'velocities_arr_10'
p80
I0
sS'category_exercise_name_3'
p81
I0
sS'category_exercise_name_4'
p82
I0
sS'category_exercise_name_5'
p83
I0
sS'category_exercise_name_6'
p84
I0
sS'category_exercise_name_7'
p85
I0
sS'category_exercise_name_8'
p86
I0
sS'category_exercise_name_9'
p87
I0
sS'set_number_of_the_day'
p88
I0
sg53
I0
sS'used_lifting_gear'
p89
I0
sS'velocities_arr_11'
p90
I0
sg57
I0
sg36
I0
sag60
ag60
ag60
ag60
ag60
ag60
ag60
ag60
ag60
ag60
ag60
ag60
ag60
ag60
ag60
ag60
ag60
ag60
ag60
ag60
ag60
ag60
ag60
ag60
ag60
ag60
ag60
ag60
ag60
ag60
ag60
ag60
ag60
ag60
a(dp91
g13
I1
sS'velocities_arr_0'
p92
F1.23
sS'velocities_arr_2'
p93
F1.16
sS'velocities_arr_3'
p94
F1.13
sS'velocities_arr_4'
p95
F1.18
sS'velocities_arr_5'
p96
F1.18
sS'velocities_arr_6'
p97
F1.18
sS'velocities_arr_1'
p98
F1.3
sS'velocities_arr_8'
p99
I0
sS'velocities_arr_9'
p100
I0
sg52
I107
sg70
I45
sS'velocities_arr_7'
p101
F1.18
sS'category_exercise_name_12'
p102
I0
sS'category_exercise_name_13'
p103
I0
sS'category_exercise_name_10'
p104
I0
sS'category_exercise_name_11'
p105
I0
sS'velocities_arr_10'
p106
I0
sg50
I8
sg77
I8
sS'category_exercise_name_0'
p107
I0
sS'category_exercise_name_1'
p108
I0
sS'category_exercise_name_2'
p109
I1
sS'category_exercise_name_3'
p110
I0
sS'category_exercise_name_4'
p111
I0
sS'category_exercise_name_5'
p112
I0
sS'category_exercise_name_6'
p113
I0
sS'category_exercise_name_7'
p114
I0
sS'category_exercise_name_8'
p115
I0
sS'category_exercise_name_9'
p116
I0
sg88
I0
sg53
I0
sg89
I0
sS'velocities_arr_11'
p117
I0
sg57
I0
sg36
I0
sa(dp118
g13
I1
sS'velocities_arr_0'
p119
F0.84
sS'velocities_arr_2'
p120
F0.82
sS'velocities_arr_3'
p121
F0.8
sS'velocities_arr_4'
p122
F0.8
sS'velocities_arr_5'
p123
F0.77
sS'velocities_arr_6'
p124
F0.74
sS'velocities_arr_1'
p125
F0.91
sS'velocities_arr_8'
p126
I0
sS'velocities_arr_9'
p127
I0
sg52
I109
sg70
I135
sS'velocities_arr_7'
p128
F0.72
sS'category_exercise_name_12'
p129
I0
sS'category_exercise_name_13'
p130
I0
sS'category_exercise_name_10'
p131
I0
sS'category_exercise_name_11'
p132
I0
sS'velocities_arr_10'
p133
I0
sg50
I8
sg77
I8
sS'category_exercise_name_0'
p134
I0
sS'category_exercise_name_1'
p135
I0
sS'category_exercise_name_2'
p136
I1
sS'category_exercise_name_3'
p137
I0
sS'category_exercise_name_4'
p138
I0
sS'category_exercise_name_5'
p139
I0
sS'category_exercise_name_6'
p140
I0
sS'category_exercise_name_7'
p141
I0
sS'category_exercise_name_8'
p142
I0
sS'category_exercise_name_9'
p143
I0
sg88
I1
sg53
I0
sg89
I0
sS'velocities_arr_11'
p144
I0
sg57
I0
sg36
I0
sa(dp145
g13
I1
sS'velocities_arr_0'
p146
F0.77
sS'velocities_arr_2'
p147
F0.69
sS'velocities_arr_3'
p148
F0.74
sS'velocities_arr_4'
p149
F0.68
sS'velocities_arr_5'
p150
F0.68
sS'velocities_arr_6'
p151
F0.65
sS'velocities_arr_1'
p152
F0.76
sS'velocities_arr_8'
p153
I0
sS'velocities_arr_9'
p154
I0
sg52
I142
sg70
I155
sS'velocities_arr_7'
p155
F0.59
sS'category_exercise_name_12'
p156
I0
sS'category_exercise_name_13'
p157
I0
sS'category_exercise_name_10'
p158
I0
sS'category_exercise_name_11'
p159
I0
sS'velocities_arr_10'
p160
I0
sg50
I8
sg77
I8
sS'category_exercise_name_0'
p161
I0
sS'category_exercise_name_1'
p162
I0
sS'category_exercise_name_2'
p163
I1
sS'category_exercise_name_3'
p164
I0
sS'category_exercise_name_4'
p165
I0
sS'category_exercise_name_5'
p166
I0
sS'category_exercise_name_6'
p167
I0
sS'category_exercise_name_7'
p168
I0
sS'category_exercise_name_8'
p169
I0
sS'category_exercise_name_9'
p170
I0
sg88
I2
sg53
I0
sg89
I0
sS'velocities_arr_11'
p171
I0
sg57
I0
sg36
I0
sa(dp172
g13
I1
sS'velocities_arr_0'
p173
F0.64
sS'velocities_arr_2'
p174
F0.63
sS'velocities_arr_3'
p175
F0.57
sS'velocities_arr_4'
p176
F0.59
sS'velocities_arr_5'
p177
F0.53
sS'velocities_arr_6'
p178
F0.52
sS'velocities_arr_1'
p179
F0.62
sS'velocities_arr_8'
p180
I0
sS'velocities_arr_9'
p181
I0
sg52
I153
sg70
I185
sS'velocities_arr_7'
p182
F0.47
sS'category_exercise_name_12'
p183
I0
sS'category_exercise_name_13'
p184
I0
sS'category_exercise_name_10'
p185
I0
sS'category_exercise_name_11'
p186
I0
sS'velocities_arr_10'
p187
I0
sg50
I8
sg77
I8
sS'category_exercise_name_0'
p188
I0
sS'category_exercise_name_1'
p189
I0
sS'category_exercise_name_2'
p190
I1
sS'category_exercise_name_3'
p191
I0
sS'category_exercise_name_4'
p192
I0
sS'category_exercise_name_5'
p193
I0
sS'category_exercise_name_6'
p194
I0
sS'category_exercise_name_7'
p195
I0
sS'category_exercise_name_8'
p196
I0
sS'category_exercise_name_9'
p197
I0
sg88
I3
sg53
I0
sg89
I0
sS'velocities_arr_11'
p198
I0
sg57
I0
sg36
I0
sa(dp199
g13
I2
sg61
I0
sg62
I0
sg63
I0
sg64
I0
sg65
I0
sg66
I0
sg67
I0
sg68
I0
sg69
I0
sg52
I-1
sg70
I45
sg71
I0
sg72
I0
sg73
I0
sg74
I0
sg75
I0
sg50
I-1
sg77
I8
sg78
I0
sg79
I0
sg80
I0
sg81
I1
sg82
I0
sg83
I0
sg84
I0
sg85
I0
sg86
I0
sg87
I0
sg88
I0
sg53
I-1
sg76
I0
sg89
I0
sg90
I0
sg57
I-1
sg36
F0.0
sas.