(dp0
S'userx'
p1
(dp2
S'wrist_width_inches'
p3
I7
sS'height_inches'
p4
F70.0
sS'harris_benedict_bmr'
p5
I-1
sS'genetically_gifted'
p6
I0
sS'years_old'
p7
I31
sS'ankle_width_inches'
p8
I9
sS'sex_is_male'
p9
I1
ssS'dayseriesx'
p10
(lp11
(dp12
S'day_number'
p13
I-1
sS'sleeptime_awake_hrs'
p14
I-1
sS'withings_body_water_percent'
p15
I-1
sS'heart_rate_variability_rmssd'
p16
I-1
sS'sleeptime_deep_rem_hrs'
p17
I-1
sS'withings_body_fat_percent'
p18
I-1
sS'withings_weight_lbs'
p19
I-1
sS'sleeptime_efficiency_percent'
p20
I-1
sS'post_day_calories_in'
p21
I-1
sS'post_day_fat_g'
p22
I-1
sS'sleeptime_bed_time_ampm_index'
p23
I-1
sS'withings_muscle_mass_percent'
p24
I-1
sS'sleeptime_alarm_ring_ampm_index'
p25
I-1
sS'withings_bone_mass_percent'
p26
I-1
sS'sleeptime_snoozed'
p27
I-1
sS'sleeptime_light_sleep_hrs'
p28
I-1
sS'withings_heart_rate_bpm'
p29
I-1
sS'sleeptime_alarm_set_ampm_index'
p30
I-1
sS'post_day_protein_g'
p31
I-1
sS'post_day_wearable_calories_burned'
p32
I-1
sS'withings_pulse_wave_velocity_m_per_s'
p33
I-1
sS'sleeptime_rise_time_ampm_index'
p34
I-1
sS'days_since_last_workout'
p35
I-1
sS'post_day_carbs_g'
p36
I-1
sag12
ag12
a(dp37
g13
I0
sg14
F4.833333333333333
sg15
F55.7
sg16
I-1
sg17
F2.9166666666666665
sg18
F16.0
sg19
F163.5
sg20
F47.0
sg21
I-1
sg22
I-1
sg23
I566
sg24
F80.0
sg25
I1440
sg26
F4.0
sg27
I0
sg28
F1.3666666666666667
sg29
I77
sg30
I421
sg31
I-1
sg32
I-1
sg33
F7.8
sg34
I395
sg35
I0
sg36
I-1
sa(dp38
g13
I1
sg14
F0.3333333333333333
sg15
F55.4
sg16
I-1
sg17
F2.8
sg18
F16.6
sg19
F162.5
sg20
F96.0
sg21
I-1
sg22
I-1
sg23
I710
sg24
F79.4
sg25
I1440
sg26
F4.0
sg27
I0
sg28
F5.866666666666667
sg29
I75
sg30
I589
sg31
I-1
sg32
I-1
sg33
F7.7
sg34
I532
sg35
F1.0
sg36
I-1
sa(dp39
g13
I2
sg14
F0.9833333333333333
sg15
F55.9
sg16
I-1
sg17
F4.466666666666667
sg18
F15.7
sg19
F163.5
sg20
F89.0
sg21
I-1
sg22
I-1
sg23
I1419
sg24
F80.4
sg25
I1440
sg26
F4.0
sg27
I0
sg28
F4.016666666666667
sg29
I-1
sg30
I589
sg31
I-1
sg32
I-1
sg33
I-1
sg34
I548
sg35
F2.0
sg36
I-1
sa(dp40
g13
I3
sg14
F0.9166666666666666
sg15
F56.4
sg16
I-1
sg17
F4.1
sg18
F14.8
sg19
F163.7
sg20
F88.0
sg21
I-1
sg22
I-1
sg23
I1389
sg24
F81.2
sg25
I411
sg26
F4.0
sg27
I4
sg28
F3.1666666666666665
sg29
I86
sg30
I425
sg31
I-1
sg32
I-1
sg33
F7.4
sg34
I441
sg35
F3.0
sg36
I-1
sa(dp41
g13
I4
sg14
F1.5166666666666666
sg15
F55.9
sg16
I-1
sg17
F3.8666666666666667
sg18
F14.8
sg19
F163.8
sg20
F79.0
sg21
I-1
sg22
I-1
sg23
I1434
sg24
F80.4
sg25
I407
sg26
F4.0
sg27
I5
sg28
F2.033333333333333
sg29
I87
sg30
I425
sg31
I-1
sg32
I-1
sg33
F7.4
sg34
I441
sg35
F1.0
sg36
I-1
sa(dp42
g13
I5
sg14
F1.25
sg15
F56.4
sg16
I-1
sg17
F1.8
sg18
F14.8
sg19
F163.2
sg20
F84.0
sg21
I-1
sg22
I-1
sg23
I1393
sg24
F81.2
sg25
I424
sg26
F4.0
sg27
I2
sg28
F5.033333333333333
sg29
I84
sg30
I425
sg31
I-1
sg32
I-1
sg33
F7.5
sg34
I440
sg35
F2.0
sg36
I-1
sa(dp43
g13
I6
sg14
F1.9833333333333334
sg15
F56.4
sg16
I-1
sg17
F3.7333333333333334
sg18
F14.8
sg19
F163.2
sg20
F73.0
sg21
I-1
sg22
I-1
sg23
I1426
sg24
F81.1
sg25
I396
sg26
F4.0
sg27
I5
sg28
F1.85
sg29
I86
sg30
I425
sg31
I-1
sg32
I-1
sg33
F7.4
sg34
I441
sg35
F3.0
sg36
I-1
sa(dp44
g13
I7
sg14
F0.31666666666666665
sg15
F56.3
sg16
I-1
sg17
F3.9833333333333334
sg18
F14.9
sg19
F163.2
sg20
F95.0
sg21
I-1
sg22
I-1
sg23
I1430
sg24
F81.1
sg25
I469
sg26
F4.0
sg27
I0
sg28
F3.65
sg29
I87
sg30
I470
sg31
I-1
sg32
I-1
sg33
F7.4
sg34
I469
sg35
F4.0
sg36
I-1
sasS'workouty'
p45
(dp46
S'velocities_arr_0'
p47
F1.07
sS'velocities_arr_1'
p48
F1.2
sS'velocities_arr_2'
p49
F1.07
sS'velocities_arr_3'
p50
F1.13
sS'velocities_arr_4'
p51
F0.71
sS'velocities_arr_5'
p52
I0
sS'velocities_arr_6'
p53
I0
sS'velocities_arr_7'
p54
I0
sS'reps_completed'
p55
I5
sS'velocities_arr_9'
p56
I0
sS'postset_heartrate'
p57
I99
sS'went_to_failure'
p58
I0
sS'velocities_arr_8'
p59
I0
sS'velocities_arr_10'
p60
I0
sS'velocities_arr_11'
p61
I0
sS'did_pull_muscle'
p62
I0
ssS'workoutxseries'
p63
(lp64
(dp65
g13
I8
sS'velocities_arr_0'
p66
I0
sS'velocities_arr_2'
p67
I0
sS'velocities_arr_3'
p68
I0
sS'velocities_arr_4'
p69
I0
sS'velocities_arr_5'
p70
I0
sS'velocities_arr_6'
p71
I0
sS'velocities_arr_1'
p72
I0
sS'velocities_arr_8'
p73
I0
sS'velocities_arr_9'
p74
I0
sg57
I-1
sS'weight_lbs'
p75
I-1
sS'velocities_arr_7'
p76
I0
sS'category_exercise_name_10'
p77
I0
sS'category_exercise_name_2'
p78
I0
sg55
I-1
sS'reps_planned'
p79
I-1
sS'category_exercise_name_0'
p80
I0
sS'category_exercise_name_1'
p81
I0
sS'velocities_arr_10'
p82
I0
sS'category_exercise_name_3'
p83
I0
sS'category_exercise_name_4'
p84
I0
sS'category_exercise_name_5'
p85
I0
sS'category_exercise_name_6'
p86
I0
sS'category_exercise_name_7'
p87
I0
sS'category_exercise_name_8'
p88
I0
sS'category_exercise_name_9'
p89
I0
sS'set_number_of_the_day'
p90
I0
sg58
I0
sS'used_lifting_gear'
p91
I0
sS'velocities_arr_11'
p92
I0
sg62
I0
sg35
I0
sag65
ag65
ag65
ag65
ag65
ag65
ag65
ag65
ag65
ag65
ag65
ag65
ag65
ag65
ag65
ag65
ag65
ag65
ag65
a(dp93
g13
I1
sS'velocities_arr_0'
p94
F1.11
sS'velocities_arr_2'
p95
F1.08
sS'velocities_arr_3'
p96
F1.12
sS'velocities_arr_4'
p97
F1.62
sS'velocities_arr_5'
p98
I0
sS'velocities_arr_6'
p99
I0
sS'velocities_arr_1'
p100
F1.07
sS'velocities_arr_8'
p101
I0
sS'velocities_arr_9'
p102
I0
sg57
I107
sg75
I45
sS'velocities_arr_7'
p103
I0
sS'category_exercise_name_10'
p104
I0
sS'velocities_arr_10'
p105
I0
sg55
I5
sg79
I5
sS'category_exercise_name_0'
p106
I0
sS'category_exercise_name_1'
p107
I0
sS'category_exercise_name_2'
p108
I1
sS'category_exercise_name_3'
p109
I0
sS'category_exercise_name_4'
p110
I0
sS'category_exercise_name_5'
p111
I0
sS'category_exercise_name_6'
p112
I0
sS'category_exercise_name_7'
p113
I0
sS'category_exercise_name_8'
p114
I0
sS'category_exercise_name_9'
p115
I0
sg90
I0
sg58
I0
sg91
I0
sS'velocities_arr_11'
p116
I0
sg62
I0
sg35
I0
sa(dp117
g13
I1
sS'velocities_arr_0'
p118
F0.77
sS'velocities_arr_2'
p119
F0.83
sS'velocities_arr_3'
p120
F0.79
sS'velocities_arr_4'
p121
F0.77
sS'velocities_arr_5'
p122
I0
sS'velocities_arr_6'
p123
I0
sS'velocities_arr_1'
p124
F0.82
sS'velocities_arr_8'
p125
I0
sS'velocities_arr_9'
p126
I0
sg57
I125
sg75
I135
sS'velocities_arr_7'
p127
I0
sS'category_exercise_name_10'
p128
I0
sS'velocities_arr_10'
p129
I0
sg55
I5
sg79
I5
sS'category_exercise_name_0'
p130
I0
sS'category_exercise_name_1'
p131
I0
sS'category_exercise_name_2'
p132
I1
sS'category_exercise_name_3'
p133
I0
sS'category_exercise_name_4'
p134
I0
sS'category_exercise_name_5'
p135
I0
sS'category_exercise_name_6'
p136
I0
sS'category_exercise_name_7'
p137
I0
sS'category_exercise_name_8'
p138
I0
sS'category_exercise_name_9'
p139
I0
sg90
I1
sg58
I0
sg91
I0
sS'velocities_arr_11'
p140
I0
sg62
I0
sg35
I0
sa(dp141
g13
I1
sS'velocities_arr_0'
p142
F0.68
sS'velocities_arr_2'
p143
F0.65
sS'velocities_arr_3'
p144
F0.63
sS'velocities_arr_4'
p145
F0.61
sS'velocities_arr_5'
p146
I0
sS'velocities_arr_6'
p147
I0
sS'velocities_arr_1'
p148
F0.69
sS'velocities_arr_8'
p149
I0
sS'velocities_arr_9'
p150
I0
sg57
I131
sg75
I185
sS'velocities_arr_7'
p151
I0
sS'category_exercise_name_10'
p152
I0
sS'velocities_arr_10'
p153
I0
sg55
I5
sg79
I5
sS'category_exercise_name_0'
p154
I0
sS'category_exercise_name_1'
p155
I0
sS'category_exercise_name_2'
p156
I1
sS'category_exercise_name_3'
p157
I0
sS'category_exercise_name_4'
p158
I0
sS'category_exercise_name_5'
p159
I0
sS'category_exercise_name_6'
p160
I0
sS'category_exercise_name_7'
p161
I0
sS'category_exercise_name_8'
p162
I0
sS'category_exercise_name_9'
p163
I0
sg90
I2
sg58
I0
sg91
I0
sS'velocities_arr_11'
p164
I0
sg62
I0
sg35
I0
sa(dp165
g13
I1
sS'velocities_arr_0'
p166
F0.64
sS'velocities_arr_2'
p167
F0.62
sS'velocities_arr_3'
p168
F0.57
sS'velocities_arr_4'
p169
F0.56
sS'velocities_arr_5'
p170
I0
sS'velocities_arr_6'
p171
I0
sS'velocities_arr_1'
p172
F0.63
sS'velocities_arr_8'
p173
I0
sS'velocities_arr_9'
p174
I0
sg57
I141
sg75
I205
sS'velocities_arr_7'
p175
I0
sS'category_exercise_name_10'
p176
I0
sS'velocities_arr_10'
p177
I0
sg55
I5
sg79
I5
sS'category_exercise_name_0'
p178
I0
sS'category_exercise_name_1'
p179
I0
sS'category_exercise_name_2'
p180
I1
sS'category_exercise_name_3'
p181
I0
sS'category_exercise_name_4'
p182
I0
sS'category_exercise_name_5'
p183
I0
sS'category_exercise_name_6'
p184
I0
sS'category_exercise_name_7'
p185
I0
sS'category_exercise_name_8'
p186
I0
sS'category_exercise_name_9'
p187
I0
sg90
I3
sg58
I0
sg91
I0
sS'velocities_arr_11'
p188
I0
sg62
I0
sg35
I0
sa(dp189
g13
I1
sS'velocities_arr_0'
p190
F0.62
sS'velocities_arr_2'
p191
F0.52
sS'velocities_arr_3'
p192
F0.51
sS'velocities_arr_4'
p193
F0.46
sS'velocities_arr_5'
p194
I0
sS'velocities_arr_6'
p195
I0
sS'velocities_arr_1'
p196
F0.57
sS'velocities_arr_8'
p197
I0
sS'velocities_arr_9'
p198
I0
sg57
I148
sg75
I225
sS'velocities_arr_7'
p199
I0
sS'category_exercise_name_10'
p200
I0
sS'velocities_arr_10'
p201
I0
sg55
I5
sg79
I5
sS'category_exercise_name_0'
p202
I0
sS'category_exercise_name_1'
p203
I0
sS'category_exercise_name_2'
p204
I1
sS'category_exercise_name_3'
p205
I0
sS'category_exercise_name_4'
p206
I0
sS'category_exercise_name_5'
p207
I0
sS'category_exercise_name_6'
p208
I0
sS'category_exercise_name_7'
p209
I0
sS'category_exercise_name_8'
p210
I0
sS'category_exercise_name_9'
p211
I0
sg90
I4
sg58
I0
sg91
I0
sS'velocities_arr_11'
p212
I0
sg62
I0
sg35
I0
sa(dp213
g13
I1
sS'velocities_arr_0'
p214
F0.71
sS'velocities_arr_2'
p215
F0.65
sS'velocities_arr_3'
p216
F0.65
sS'velocities_arr_4'
p217
F0.62
sS'velocities_arr_5'
p218
F0.61
sS'velocities_arr_6'
p219
F0.54
sS'velocities_arr_1'
p220
F0.57
sS'velocities_arr_8'
p221
F0.52
sS'velocities_arr_9'
p222
F0.49
sg57
I111
sg75
I105
sS'velocities_arr_7'
p223
F0.61
sS'category_exercise_name_10'
p224
I0
sS'velocities_arr_10'
p225
F0.47
sg55
I12
sg79
I12
sS'category_exercise_name_0'
p226
I0
sS'category_exercise_name_1'
p227
I0
sS'category_exercise_name_2'
p228
I0
sS'category_exercise_name_3'
p229
I1
sS'category_exercise_name_4'
p230
I0
sS'category_exercise_name_5'
p231
I0
sS'category_exercise_name_6'
p232
I0
sS'category_exercise_name_7'
p233
I0
sS'category_exercise_name_8'
p234
I0
sS'category_exercise_name_9'
p235
I0
sg90
I5
sg58
I0
sg91
I0
sS'velocities_arr_11'
p236
F0.47
sg62
I0
sg35
I0
sa(dp237
g13
I1
sS'velocities_arr_0'
p238
F0.56
sS'velocities_arr_2'
p239
F0.59
sS'velocities_arr_3'
p240
F0.61
sS'velocities_arr_4'
p241
F0.59
sS'velocities_arr_5'
p242
F0.57
sS'velocities_arr_6'
p243
F0.52
sS'velocities_arr_1'
p244
F0.62
sS'velocities_arr_8'
p245
I0
sS'velocities_arr_9'
p246
I0
sg57
I114
sg75
I115
sS'velocities_arr_7'
p247
F0.46
sS'category_exercise_name_10'
p248
I0
sS'velocities_arr_10'
p249
I0
sg55
I8
sg79
I8
sS'category_exercise_name_0'
p250
I0
sS'category_exercise_name_1'
p251
I0
sS'category_exercise_name_2'
p252
I0
sS'category_exercise_name_3'
p253
I1
sS'category_exercise_name_4'
p254
I0
sS'category_exercise_name_5'
p255
I0
sS'category_exercise_name_6'
p256
I0
sS'category_exercise_name_7'
p257
I0
sS'category_exercise_name_8'
p258
I0
sS'category_exercise_name_9'
p259
I0
sg90
I6
sg58
I0
sg91
I0
sS'velocities_arr_11'
p260
I0
sg62
I0
sg35
I0
sa(dp261
g13
I1
sS'velocities_arr_0'
p262
F0.49
sS'velocities_arr_2'
p263
F0.46
sS'velocities_arr_3'
p264
F0.43
sS'velocities_arr_4'
p265
F0.39
sS'velocities_arr_5'
p266
I0
sS'velocities_arr_6'
p267
I0
sS'velocities_arr_1'
p268
F0.51
sS'velocities_arr_8'
p269
I0
sS'velocities_arr_9'
p270
I0
sg57
I130
sg75
I125
sS'velocities_arr_7'
p271
I0
sS'category_exercise_name_10'
p272
I0
sS'velocities_arr_10'
p273
I0
sg55
I5
sg79
I5
sS'category_exercise_name_0'
p274
I0
sS'category_exercise_name_1'
p275
I0
sS'category_exercise_name_2'
p276
I0
sS'category_exercise_name_3'
p277
I1
sS'category_exercise_name_4'
p278
I0
sS'category_exercise_name_5'
p279
I0
sS'category_exercise_name_6'
p280
I0
sS'category_exercise_name_7'
p281
I0
sS'category_exercise_name_8'
p282
I0
sS'category_exercise_name_9'
p283
I0
sg90
I7
sg58
I0
sg91
I0
sS'velocities_arr_11'
p284
I0
sg62
I0
sg35
I0
sa(dp285
g13
I4
sS'velocities_arr_0'
p286
F0.49
sS'velocities_arr_2'
p287
F0.68
sS'velocities_arr_3'
p288
F0.61
sS'velocities_arr_4'
p289
F0.56
sS'velocities_arr_5'
p290
I0
sS'velocities_arr_6'
p291
I0
sS'velocities_arr_1'
p292
F0.82
sS'velocities_arr_8'
p293
I0
sS'velocities_arr_9'
p294
I0
sg57
I116
sg75
I185
sS'velocities_arr_7'
p295
I0
sS'category_exercise_name_10'
p296
I0
sS'velocities_arr_10'
p297
I0
sg55
I5
sg79
I5
sS'category_exercise_name_0'
p298
I1
sS'category_exercise_name_1'
p299
I0
sS'category_exercise_name_2'
p300
I0
sS'category_exercise_name_3'
p301
I0
sS'category_exercise_name_4'
p302
I0
sS'category_exercise_name_5'
p303
I0
sS'category_exercise_name_6'
p304
I0
sS'category_exercise_name_7'
p305
I0
sS'category_exercise_name_8'
p306
I0
sS'category_exercise_name_9'
p307
I0
sg90
I0
sg58
I0
sg91
I0
sS'velocities_arr_11'
p308
I0
sg62
I0
sg35
F3.0
sa(dp309
g13
I4
sS'velocities_arr_0'
p310
F0.59
sS'velocities_arr_2'
p311
F1.29
sS'velocities_arr_3'
p312
F1.29
sS'velocities_arr_4'
p313
F1.29
sS'velocities_arr_5'
p314
I0
sS'velocities_arr_6'
p315
I0
sS'velocities_arr_1'
p316
F0.55
sS'velocities_arr_8'
p317
I0
sS'velocities_arr_9'
p318
I0
sg57
I115
sg75
I225
sS'velocities_arr_7'
p319
I0
sS'category_exercise_name_10'
p320
I0
sS'velocities_arr_10'
p321
I0
sg55
I5
sg79
I5
sS'category_exercise_name_0'
p322
I1
sS'category_exercise_name_1'
p323
I0
sS'category_exercise_name_2'
p324
I0
sS'category_exercise_name_3'
p325
I0
sS'category_exercise_name_4'
p326
I0
sS'category_exercise_name_5'
p327
I0
sS'category_exercise_name_6'
p328
I0
sS'category_exercise_name_7'
p329
I0
sS'category_exercise_name_8'
p330
I0
sS'category_exercise_name_9'
p331
I0
sg90
I1
sg58
I0
sg91
I0
sS'velocities_arr_11'
p332
I0
sg62
I0
sg35
F3.0
sa(dp333
g13
I4
sS'velocities_arr_0'
p334
F0.53
sS'velocities_arr_2'
p335
F0.59
sS'velocities_arr_3'
p336
F0.54
sS'velocities_arr_4'
p337
F0.54
sS'velocities_arr_5'
p338
I0
sS'velocities_arr_6'
p339
I0
sS'velocities_arr_1'
p340
F0.56
sS'velocities_arr_8'
p341
I0
sS'velocities_arr_9'
p342
I0
sg57
I130
sg75
I245
sS'velocities_arr_7'
p343
I0
sS'category_exercise_name_10'
p344
I0
sS'velocities_arr_10'
p345
I0
sg55
I5
sg79
I5
sS'category_exercise_name_0'
p346
I1
sS'category_exercise_name_1'
p347
I0
sS'category_exercise_name_2'
p348
I0
sS'category_exercise_name_3'
p349
I0
sS'category_exercise_name_4'
p350
I0
sS'category_exercise_name_5'
p351
I0
sS'category_exercise_name_6'
p352
I0
sS'category_exercise_name_7'
p353
I0
sS'category_exercise_name_8'
p354
I0
sS'category_exercise_name_9'
p355
I0
sg90
I2
sg58
I0
sg91
I0
sS'velocities_arr_11'
p356
I0
sg62
I0
sg35
F3.0
sa(dp357
g13
I4
sS'velocities_arr_0'
p358
F0.5
sS'velocities_arr_2'
p359
I0
sS'velocities_arr_3'
p360
I0
sS'velocities_arr_4'
p361
I0
sS'velocities_arr_5'
p362
I0
sS'velocities_arr_6'
p363
I0
sS'velocities_arr_1'
p364
F0.5
sS'velocities_arr_8'
p365
I0
sS'velocities_arr_9'
p366
I0
sg57
I121
sg75
I265
sS'velocities_arr_7'
p367
I0
sS'category_exercise_name_10'
p368
I0
sS'velocities_arr_10'
p369
I0
sg55
I2
sg79
I2
sS'category_exercise_name_0'
p370
I1
sS'category_exercise_name_1'
p371
I0
sS'category_exercise_name_2'
p372
I0
sS'category_exercise_name_3'
p373
I0
sS'category_exercise_name_4'
p374
I0
sS'category_exercise_name_5'
p375
I0
sS'category_exercise_name_6'
p376
I0
sS'category_exercise_name_7'
p377
I0
sS'category_exercise_name_8'
p378
I0
sS'category_exercise_name_9'
p379
I0
sg90
I3
sg58
I0
sg91
I0
sS'velocities_arr_11'
p380
I0
sg62
I0
sg35
F3.0
sa(dp381
g13
I8
sg66
I0
sg67
I0
sg68
I0
sg69
I0
sg70
I0
sg71
I0
sg72
I0
sg73
I0
sg74
I0
sg57
I-1
sg75
I45
sg76
I0
sg77
I0
sg55
I-1
sg79
I5
sg80
I0
sg81
I0
sg82
I0
sg83
I0
sg84
I0
sg85
I0
sg86
I0
sg87
I0
sg88
I0
sg89
I0
sg90
I0
sg58
I-1
sg78
I1
sg91
I0
sg92
I0
sg62
I-1
sg35
F4.0
sas.