(dp0
S'userx'
p1
(dp2
S'wrist_width_inches'
p3
I7
sS'height_inches'
p4
F70.0
sS'harris_benedict_bmr'
p5
I-1
sS'genetically_gifted'
p6
I0
sS'years_old'
p7
I31
sS'ankle_width_inches'
p8
I9
sS'sex_is_male'
p9
I1
ssS'dayseriesx'
p10
(lp11
(dp12
S'day_number'
p13
I-1
sS'sleeptime_awake_hrs'
p14
I-1
sS'withings_body_water_percent'
p15
I-1
sS'heart_rate_variability_rmssd'
p16
I-1
sS'sleeptime_deep_rem_hrs'
p17
I-1
sS'withings_body_fat_percent'
p18
I-1
sS'withings_weight_lbs'
p19
I-1
sS'sleeptime_efficiency_percent'
p20
I-1
sS'post_day_calories_in'
p21
I-1
sS'post_day_fat_g'
p22
I-1
sS'sleeptime_bed_time_ampm_index'
p23
I-1
sS'withings_muscle_mass_percent'
p24
I-1
sS'days_since_last_recorded_day'
p25
I-1
sS'sleeptime_alarm_ring_ampm_index'
p26
I-1
sS'withings_bone_mass_percent'
p27
I-1
sS'sleeptime_snoozed'
p28
I-1
sS'sleeptime_light_sleep_hrs'
p29
I-1
sS'withings_heart_rate_bpm'
p30
I-1
sS'sleeptime_alarm_set_ampm_index'
p31
I-1
sS'post_day_protein_g'
p32
I-1
sS'post_day_wearable_calories_burned'
p33
I-1
sS'withings_pulse_wave_velocity_m_per_s'
p34
I-1
sS'sleeptime_rise_time_ampm_index'
p35
I-1
sS'days_since_last_workout'
p36
I-1
sS'post_day_carbs_g'
p37
I-1
sag12
ag12
ag12
ag12
ag12
ag12
a(dp38
g13
I0
sg14
F0.31666666666666665
sg15
F56.3
sg16
I-1
sg17
F3.9833333333333334
sg18
F14.9
sg19
F163.2
sg20
F95.0
sg21
I-1
sg22
I-1
sg23
I1430
sg24
F81.1
sg25
F0.0
sg26
I469
sg27
F4.0
sg28
I0
sg29
F3.65
sg30
I87
sg31
I470
sg32
I-1
sg33
I-1
sg34
F7.4
sg35
I469
sg36
I0
sg37
I-1
sa(dp39
g13
I1
sg14
F1.0166666666666666
sg15
F55.6
sg16
I-1
sg17
F2.3166666666666664
sg18
F16.3
sg19
F162.2
sg20
F84.0
sg21
I-1
sg22
I-1
sg23
I242
sg24
F79.7
sg25
F1.0
sg26
I638
sg27
F4.0
sg28
I0
sg29
F3.2666666666666666
sg30
I73
sg31
I660
sg32
I-1
sg33
I-1
sg34
F7.3
sg35
I639
sg36
F1.0
sg37
I-1
sa(dp40
g13
I2
sg14
F2.283333333333333
sg15
F56.5
sg16
I-1
sg17
F1.9833333333333334
sg18
F14.6
sg19
F163.0
sg20
F70.0
sg21
I-1
sg22
I-1
sg23
I919
sg24
F81.4
sg25
F1.0
sg26
I1440
sg27
F4.0
sg28
I0
sg29
F3.4
sg30
I88
sg31
I685
sg32
I-1
sg33
I-1
sg34
F7.3
sg35
I660
sg36
F2.0
sg37
I-1
sa(dp41
g13
I3
sg14
F0.4
sg15
F56.5
sg16
I-1
sg17
F1.6666666666666665
sg18
F15.0
sg19
F162.6
sg20
F94.0
sg21
I-1
sg22
I-1
sg23
I1435
sg24
F81.4
sg25
F1.0
sg26
I406
sg27
F4.0
sg28
I3
sg29
F5.216666666666667
sg30
I82
sg31
I425
sg32
I-1
sg33
I-1
sg34
F7.4
sg35
I432
sg36
F0.0
sg37
I-1
sasS'workouty'
p42
(dp43
S'velocities_arr_0'
p44
F0.71
sS'velocities_arr_1'
p45
F0.71
sS'velocities_arr_2'
p46
F0.66
sS'velocities_arr_3'
p47
F0.71
sS'velocities_arr_4'
p48
F0.71
sS'velocities_arr_5'
p49
F0.61
sS'velocities_arr_6'
p50
I0
sS'velocities_arr_7'
p51
I0
sS'reps_completed'
p52
I6
sS'velocities_arr_9'
p53
I0
sS'postset_heartrate'
p54
I90
sS'went_to_failure'
p55
I0
sS'velocities_arr_8'
p56
I0
sS'velocities_arr_10'
p57
I0
sS'velocities_arr_11'
p58
I0
sS'did_pull_muscle'
p59
I0
ssS'workoutxseries'
p60
(lp61
(dp62
g13
I4
sS'velocities_arr_0'
p63
I0
sS'velocities_arr_2'
p64
I0
sS'velocities_arr_3'
p65
I0
sS'velocities_arr_4'
p66
I0
sS'velocities_arr_5'
p67
I0
sS'velocities_arr_6'
p68
I0
sS'velocities_arr_1'
p69
I0
sS'velocities_arr_8'
p70
I0
sS'velocities_arr_9'
p71
I0
sg54
I-1
sS'weight_lbs'
p72
I-1
sS'velocities_arr_7'
p73
I0
sS'category_exercise_name_10'
p74
I0
sS'category_exercise_name_2'
p75
I0
sg52
I-1
sS'reps_planned'
p76
I-1
sS'category_exercise_name_0'
p77
I0
sS'category_exercise_name_1'
p78
I0
sS'velocities_arr_10'
p79
I0
sS'category_exercise_name_3'
p80
I0
sS'category_exercise_name_4'
p81
I0
sS'category_exercise_name_5'
p82
I0
sS'category_exercise_name_6'
p83
I0
sS'category_exercise_name_7'
p84
I0
sS'category_exercise_name_8'
p85
I0
sS'category_exercise_name_9'
p86
I0
sS'set_number_of_the_day'
p87
I4
sg55
I0
sS'used_lifting_gear'
p88
I0
sS'velocities_arr_11'
p89
I0
sg59
I0
sg36
I0
sag62
ag62
ag62
ag62
ag62
ag62
ag62
ag62
ag62
ag62
ag62
ag62
ag62
ag62
ag62
ag62
ag62
ag62
ag62
ag62
ag62
a(dp90
g13
I1
sS'velocities_arr_0'
p91
F1.07
sS'velocities_arr_2'
p92
F1.07
sS'velocities_arr_3'
p93
F1.13
sS'velocities_arr_4'
p94
F0.71
sS'velocities_arr_5'
p95
I0
sS'velocities_arr_6'
p96
I0
sS'velocities_arr_1'
p97
F1.2
sS'velocities_arr_8'
p98
I0
sS'velocities_arr_9'
p99
I0
sg54
I99
sg72
I45
sS'velocities_arr_7'
p100
I0
sS'category_exercise_name_10'
p101
I0
sS'velocities_arr_10'
p102
I0
sg52
I5
sg76
I5
sS'category_exercise_name_0'
p103
I0
sS'category_exercise_name_1'
p104
I0
sS'category_exercise_name_2'
p105
I1
sS'category_exercise_name_3'
p106
I0
sS'category_exercise_name_4'
p107
I0
sS'category_exercise_name_5'
p108
I0
sS'category_exercise_name_6'
p109
I0
sS'category_exercise_name_7'
p110
I0
sS'category_exercise_name_8'
p111
I0
sS'category_exercise_name_9'
p112
I0
sg87
I0
sg55
I0
sg88
I0
sS'velocities_arr_11'
p113
I0
sg59
I0
sg36
I0
sa(dp114
g13
I1
sS'velocities_arr_0'
p115
F0.8
sS'velocities_arr_2'
p116
F0.78
sS'velocities_arr_3'
p117
F0.77
sS'velocities_arr_4'
p118
F0.74
sS'velocities_arr_5'
p119
I0
sS'velocities_arr_6'
p120
I0
sS'velocities_arr_1'
p121
F0.89
sS'velocities_arr_8'
p122
I0
sS'velocities_arr_9'
p123
I0
sg54
I120
sg72
I135
sS'velocities_arr_7'
p124
I0
sS'category_exercise_name_10'
p125
I0
sS'velocities_arr_10'
p126
I0
sg52
I5
sg76
I5
sS'category_exercise_name_0'
p127
I0
sS'category_exercise_name_1'
p128
I0
sS'category_exercise_name_2'
p129
I1
sS'category_exercise_name_3'
p130
I0
sS'category_exercise_name_4'
p131
I0
sS'category_exercise_name_5'
p132
I0
sS'category_exercise_name_6'
p133
I0
sS'category_exercise_name_7'
p134
I0
sS'category_exercise_name_8'
p135
I0
sS'category_exercise_name_9'
p136
I0
sg87
I1
sg55
I0
sg88
I0
sS'velocities_arr_11'
p137
I0
sg59
I0
sg36
I0
sa(dp138
g13
I1
sS'velocities_arr_0'
p139
F0.67
sS'velocities_arr_2'
p140
F0.64
sS'velocities_arr_3'
p141
F0.62
sS'velocities_arr_4'
p142
F0.6
sS'velocities_arr_5'
p143
F0.57
sS'velocities_arr_6'
p144
I0
sS'velocities_arr_1'
p145
F0.66
sS'velocities_arr_8'
p146
I0
sS'velocities_arr_9'
p147
I0
sg54
I139
sg72
I185
sS'velocities_arr_7'
p148
I0
sS'category_exercise_name_10'
p149
I0
sS'velocities_arr_10'
p150
I0
sg52
I6
sg76
I6
sS'category_exercise_name_0'
p151
I0
sS'category_exercise_name_1'
p152
I0
sS'category_exercise_name_2'
p153
I1
sS'category_exercise_name_3'
p154
I0
sS'category_exercise_name_4'
p155
I0
sS'category_exercise_name_5'
p156
I0
sS'category_exercise_name_6'
p157
I0
sS'category_exercise_name_7'
p158
I0
sS'category_exercise_name_8'
p159
I0
sS'category_exercise_name_9'
p160
I0
sg87
I2
sg55
I0
sg88
I0
sS'velocities_arr_11'
p161
I0
sg59
I0
sg36
I0
sa(dp162
g13
I1
sS'velocities_arr_0'
p163
F0.64
sS'velocities_arr_2'
p164
F0.57
sS'velocities_arr_3'
p165
F0.53
sS'velocities_arr_4'
p166
F0.53
sS'velocities_arr_5'
p167
I0
sS'velocities_arr_6'
p168
I0
sS'velocities_arr_1'
p169
F0.61
sS'velocities_arr_8'
p170
I0
sS'velocities_arr_9'
p171
I0
sg54
I144
sg72
I205
sS'velocities_arr_7'
p172
I0
sS'category_exercise_name_10'
p173
I0
sS'velocities_arr_10'
p174
I0
sg52
I5
sg76
I5
sS'category_exercise_name_0'
p175
I0
sS'category_exercise_name_1'
p176
I0
sS'category_exercise_name_2'
p177
I1
sS'category_exercise_name_3'
p178
I0
sS'category_exercise_name_4'
p179
I0
sS'category_exercise_name_5'
p180
I0
sS'category_exercise_name_6'
p181
I0
sS'category_exercise_name_7'
p182
I0
sS'category_exercise_name_8'
p183
I0
sS'category_exercise_name_9'
p184
I0
sg87
I3
sg55
I0
sg88
I0
sS'velocities_arr_11'
p185
I0
sg59
I0
sg36
I0
sa(dp186
g13
I1
sS'velocities_arr_0'
p187
F0.61
sS'velocities_arr_2'
p188
F0.52
sS'velocities_arr_3'
p189
F0.52
sS'velocities_arr_4'
p190
F0.52
sS'velocities_arr_5'
p191
I0
sS'velocities_arr_6'
p192
I0
sS'velocities_arr_1'
p193
F0.52
sS'velocities_arr_8'
p194
I0
sS'velocities_arr_9'
p195
I0
sg54
I147
sg72
I235
sS'velocities_arr_7'
p196
I0
sS'category_exercise_name_10'
p197
I0
sS'velocities_arr_10'
p198
I0
sg52
I5
sg76
I5
sS'category_exercise_name_0'
p199
I0
sS'category_exercise_name_1'
p200
I0
sS'category_exercise_name_2'
p201
I1
sS'category_exercise_name_3'
p202
I0
sS'category_exercise_name_4'
p203
I0
sS'category_exercise_name_5'
p204
I0
sS'category_exercise_name_6'
p205
I0
sS'category_exercise_name_7'
p206
I0
sS'category_exercise_name_8'
p207
I0
sS'category_exercise_name_9'
p208
I0
sg87
I4
sg55
I0
sg88
I0
sS'velocities_arr_11'
p209
I0
sg59
I0
sg36
I0
sa(dp210
g13
I1
sS'velocities_arr_0'
p211
I0
sS'velocities_arr_2'
p212
I0
sS'velocities_arr_3'
p213
I0
sS'velocities_arr_4'
p214
I0
sS'velocities_arr_5'
p215
I0
sS'velocities_arr_6'
p216
I0
sS'velocities_arr_1'
p217
I0
sS'velocities_arr_8'
p218
I0
sS'velocities_arr_9'
p219
I0
sg54
I-1
sg72
F163.2
sS'velocities_arr_7'
p220
I0
sS'category_exercise_name_10'
p221
I0
sS'velocities_arr_10'
p222
I0
sg52
I2
sg76
I2
sS'category_exercise_name_0'
p223
I0
sS'category_exercise_name_1'
p224
I0
sS'category_exercise_name_2'
p225
I0
sS'category_exercise_name_3'
p226
I0
sS'category_exercise_name_4'
p227
I0
sS'category_exercise_name_5'
p228
I1
sS'category_exercise_name_6'
p229
I0
sS'category_exercise_name_7'
p230
I0
sS'category_exercise_name_8'
p231
I0
sS'category_exercise_name_9'
p232
I0
sg87
I5
sg55
I0
sg88
I0
sS'velocities_arr_11'
p233
I0
sg59
I0
sg36
I0
sa(dp234
g13
I4
sS'velocities_arr_0'
p235
F1.82
sS'velocities_arr_2'
p236
F1.71
sS'velocities_arr_3'
p237
F1.86
sS'velocities_arr_4'
p238
F1.82
sS'velocities_arr_5'
p239
F1.82
sS'velocities_arr_6'
p240
I0
sS'velocities_arr_1'
p241
F1.68
sS'velocities_arr_8'
p242
I0
sS'velocities_arr_9'
p243
I0
sg54
I80
sg72
I45
sS'velocities_arr_7'
p244
I0
sS'category_exercise_name_10'
p245
I0
sS'velocities_arr_10'
p246
I0
sg52
I6
sg76
I6
sS'category_exercise_name_0'
p247
I0
sS'category_exercise_name_1'
p248
I0
sS'category_exercise_name_2'
p249
I0
sS'category_exercise_name_3'
p250
I1
sS'category_exercise_name_4'
p251
I0
sS'category_exercise_name_5'
p252
I0
sS'category_exercise_name_6'
p253
I0
sS'category_exercise_name_7'
p254
I0
sS'category_exercise_name_8'
p255
I0
sS'category_exercise_name_9'
p256
I0
sg87
I0
sg55
I0
sg88
I0
sS'velocities_arr_11'
p257
I0
sg59
I0
sg36
F0.0
sa(dp258
g13
I4
sS'velocities_arr_0'
p259
F0.79
sS'velocities_arr_2'
p260
F0.71
sS'velocities_arr_3'
p261
F0.7
sS'velocities_arr_4'
p262
F0.62
sS'velocities_arr_5'
p263
F0.6
sS'velocities_arr_6'
p264
I0
sS'velocities_arr_1'
p265
F0.71
sS'velocities_arr_8'
p266
I0
sS'velocities_arr_9'
p267
I0
sg54
I92
sg72
I105
sS'velocities_arr_7'
p268
I0
sS'category_exercise_name_10'
p269
I0
sS'velocities_arr_10'
p270
I0
sg52
I6
sg76
I6
sS'category_exercise_name_0'
p271
I0
sS'category_exercise_name_1'
p272
I0
sS'category_exercise_name_2'
p273
I0
sS'category_exercise_name_3'
p274
I1
sS'category_exercise_name_4'
p275
I0
sS'category_exercise_name_5'
p276
I0
sS'category_exercise_name_6'
p277
I0
sS'category_exercise_name_7'
p278
I0
sS'category_exercise_name_8'
p279
I0
sS'category_exercise_name_9'
p280
I0
sg87
I1
sg55
I0
sg88
I0
sS'velocities_arr_11'
p281
I0
sg59
I0
sg36
F0.0
sa(dp282
g13
I4
sS'velocities_arr_0'
p283
F0.71
sS'velocities_arr_2'
p284
F0.62
sS'velocities_arr_3'
p285
F0.65
sS'velocities_arr_4'
p286
F0.64
sS'velocities_arr_5'
p287
F0.64
sS'velocities_arr_6'
p288
I0
sS'velocities_arr_1'
p289
F0.66
sS'velocities_arr_8'
p290
I0
sS'velocities_arr_9'
p291
I0
sg54
I93
sg72
I105
sS'velocities_arr_7'
p292
I0
sS'category_exercise_name_10'
p293
I0
sS'velocities_arr_10'
p294
I0
sg52
I6
sg76
I6
sS'category_exercise_name_0'
p295
I0
sS'category_exercise_name_1'
p296
I0
sS'category_exercise_name_2'
p297
I0
sS'category_exercise_name_3'
p298
I1
sS'category_exercise_name_4'
p299
I0
sS'category_exercise_name_5'
p300
I0
sS'category_exercise_name_6'
p301
I0
sS'category_exercise_name_7'
p302
I0
sS'category_exercise_name_8'
p303
I0
sS'category_exercise_name_9'
p304
I0
sg87
I2
sg55
I0
sg88
I0
sS'velocities_arr_11'
p305
I0
sg59
I0
sg36
F0.0
sa(dp306
g13
I4
sS'velocities_arr_0'
p307
F0.67
sS'velocities_arr_2'
p308
F0.59
sS'velocities_arr_3'
p309
F0.7
sS'velocities_arr_4'
p310
F0.6
sS'velocities_arr_5'
p311
F0.68
sS'velocities_arr_6'
p312
I0
sS'velocities_arr_1'
p313
F0.67
sS'velocities_arr_8'
p314
I0
sS'velocities_arr_9'
p315
I0
sg54
I83
sg72
I105
sS'velocities_arr_7'
p316
I0
sS'category_exercise_name_10'
p317
I0
sS'velocities_arr_10'
p318
I0
sg52
I6
sg76
I6
sS'category_exercise_name_0'
p319
I0
sS'category_exercise_name_1'
p320
I0
sS'category_exercise_name_2'
p321
I0
sS'category_exercise_name_3'
p322
I1
sS'category_exercise_name_4'
p323
I0
sS'category_exercise_name_5'
p324
I0
sS'category_exercise_name_6'
p325
I0
sS'category_exercise_name_7'
p326
I0
sS'category_exercise_name_8'
p327
I0
sS'category_exercise_name_9'
p328
I0
sg87
I3
sg55
I0
sg88
I0
sS'velocities_arr_11'
p329
I0
sg59
I0
sg36
F0.0
sa(dp330
g13
I4
sg63
I0
sg64
I0
sg65
I0
sg66
I0
sg67
I0
sg68
I0
sg69
I0
sg70
I0
sg71
I0
sg54
I-1
sg72
I105
sg73
I0
sg74
I0
sg52
I-1
sg76
I6
sg77
I0
sg78
I0
sg79
I0
sg80
I1
sg81
I0
sg82
I0
sg83
I0
sg84
I0
sg85
I0
sg86
I0
sg87
I4
sg55
I-1
sg75
I0
sg88
I0
sg89
I0
sg59
I-1
sg36
F0.0
sas.