(dp0
S'userx'
p1
(dp2
S'wrist_width_inches'
p3
I7
sS'height_inches'
p4
F70.0
sS'harris_benedict_bmr'
p5
I-1
sS'genetically_gifted'
p6
I0
sS'years_old'
p7
I31
sS'ankle_width_inches'
p8
I9
sS'sex_is_male'
p9
I1
ssS'dayseriesx'
p10
(lp11
(dp12
S'day_number'
p13
I-1
sS'sleeptime_awake_hrs'
p14
I-1
sS'withings_body_water_percent'
p15
I-1
sS'heart_rate_variability_rmssd'
p16
I-1
sS'sleeptime_deep_rem_hrs'
p17
I-1
sS'withings_body_fat_percent'
p18
I-1
sS'withings_weight_lbs'
p19
I-1
sS'sleeptime_efficiency_percent'
p20
I-1
sS'post_day_calories_in'
p21
I-1
sS'post_day_fat_g'
p22
I-1
sS'sleeptime_bed_time_ampm_index'
p23
I-1
sS'withings_muscle_mass_percent'
p24
I-1
sS'days_since_last_recorded_day'
p25
I-1
sS'sleeptime_alarm_ring_ampm_index'
p26
I-1
sS'withings_bone_mass_percent'
p27
I-1
sS'sleeptime_snoozed'
p28
I-1
sS'sleeptime_light_sleep_hrs'
p29
I-1
sS'withings_heart_rate_bpm'
p30
I-1
sS'sleeptime_alarm_set_ampm_index'
p31
I-1
sS'post_day_protein_g'
p32
I-1
sS'post_day_wearable_calories_burned'
p33
I-1
sS'withings_pulse_wave_velocity_m_per_s'
p34
I-1
sS'sleeptime_rise_time_ampm_index'
p35
I-1
sS'days_since_last_workout'
p36
I-1
sS'post_day_carbs_g'
p37
I-1
sag12
ag12
ag12
ag12
ag12
ag12
ag12
ag12
ag12
ag12
ag12
ag12
ag12
ag12
ag12
ag12
ag12
a(dp38
g13
I0
sg14
F2.05
sg15
F56.3
sg16
I-1
sg17
F2.6666666666666665
sg18
F15.0
sg19
F162.7
sg20
F75.0
sg21
I-1
sg22
I-1
sg23
I1382
sg24
F81.0
sg25
F0.0
sg26
I423
sg27
F4.0
sg28
I3
sg29
F3.5666666666666664
sg30
F81.0
sg31
I425
sg32
I-1
sg33
I-1
sg34
F7.1
sg35
I440
sg36
I0
sg37
I-1
sa(dp39
g13
I1
sg14
F0.7833333333333333
sg15
F56.2
sg16
I-1
sg17
F1.8166666666666667
sg18
F15.1
sg19
F162.3
sg20
F90.0
sg21
I-1
sg22
I-1
sg23
I1397
sg24
F80.8
sg25
F1.0
sg26
I422
sg27
F4.0
sg28
I2
sg29
F5.383333333333334
sg30
F84.0
sg31
I425
sg32
I-1
sg33
I-1
sg34
F7.3
sg35
I438
sg36
F1.0
sg37
I-1
sa(dp40
g13
I2
sg14
F0.38333333333333336
sg15
F55.1
sg16
I-1
sg17
F3.6166666666666667
sg18
F17.1
sg19
F162.0
sg20
F94.0
sg21
I-1
sg22
I-1
sg23
I92
sg24
F78.9
sg25
F1.0
sg26
I1440
sg27
F3.9
sg28
I0
sg29
F3.2333333333333334
sg30
I-1
sg31
I600
sg32
I-1
sg33
I-1
sg34
I-1
sg35
I527
sg36
F2.0
sg37
I-1
sa(dp41
g13
I3
sg14
F0.3333333333333333
sg15
I-1
sg16
I-1
sg17
F2.4333333333333336
sg18
I-1
sg19
I-1
sg20
F96.0
sg21
I-1
sg22
I-1
sg23
I2
sg24
I-1
sg25
F1.0
sg26
I1440
sg27
I-1
sg28
I0
sg29
F5.883333333333333
sg30
I-1
sg31
I600
sg32
I-1
sg33
I-1
sg34
I-1
sg35
I524
sg36
F3.0
sg37
I-1
sa(dp42
g13
I4
sg14
I-1
sg15
F55.3
sg16
I-1
sg17
I-1
sg18
F16.8
sg19
F161.2
sg20
I-1
sg21
I-1
sg22
I-1
sg23
I1440
sg24
F79.2
sg25
F1.0
sg26
I1440
sg27
F4.0
sg28
I-1
sg29
I-1
sg30
F94.0
sg31
I1440
sg32
I-1
sg33
I-1
sg34
F7.3
sg35
I1440
sg36
F4.0
sg37
I-1
sa(dp43
g13
I5
sg14
F0.31666666666666665
sg15
F56.2
sg16
I-1
sg17
F4.833333333333333
sg18
F15.1
sg19
F161.4
sg20
F96.0
sg21
I-1
sg22
I-1
sg23
I1390
sg24
F80.9
sg25
F1.0
sg26
I414
sg27
F4.0
sg28
I4
sg29
F3.0
sg30
F86.0
sg31
I425
sg32
I-1
sg33
I-1
sg34
F7.2
sg35
I440
sg36
F0.0
sg37
I-1
sasS'workouty'
p44
(dp45
S'velocities_arr_0'
p46
F0.81
sS'velocities_arr_1'
p47
F0.87
sS'velocities_arr_2'
p48
F0.77
sS'velocities_arr_3'
p49
F0.69
sS'velocities_arr_4'
p50
F0.7
sS'velocities_arr_5'
p51
I0
sS'velocities_arr_6'
p52
I0
sS'velocities_arr_7'
p53
I0
sS'reps_completed'
p54
I5
sS'velocities_arr_9'
p55
I0
sS'postset_heartrate'
p56
I112
sS'went_to_failure'
p57
I0
sS'velocities_arr_8'
p58
I0
sS'velocities_arr_10'
p59
I0
sS'velocities_arr_11'
p60
I0
sS'did_pull_muscle'
p61
I0
ssS'workoutxseries'
p62
(lp63
(dp64
g13
I6
sS'velocities_arr_0'
p65
I0
sS'velocities_arr_2'
p66
I0
sS'velocities_arr_3'
p67
I0
sS'velocities_arr_4'
p68
I0
sS'velocities_arr_5'
p69
I0
sS'velocities_arr_6'
p70
I0
sS'velocities_arr_1'
p71
I0
sS'velocities_arr_8'
p72
I0
sS'velocities_arr_9'
p73
I0
sg56
I-1
sS'weight_lbs'
p74
I-1
sS'velocities_arr_7'
p75
I0
sS'category_exercise_name_12'
p76
I0
sS'category_exercise_name_13'
p77
I0
sS'category_exercise_name_10'
p78
I0
sS'category_exercise_name_11'
p79
I0
sS'category_exercise_name_2'
p80
I0
sg54
I-1
sS'reps_planned'
p81
I-1
sS'category_exercise_name_0'
p82
I0
sS'category_exercise_name_1'
p83
I0
sS'velocities_arr_10'
p84
I0
sS'category_exercise_name_3'
p85
I0
sS'category_exercise_name_4'
p86
I0
sS'category_exercise_name_5'
p87
I0
sS'category_exercise_name_6'
p88
I0
sS'category_exercise_name_7'
p89
I0
sS'category_exercise_name_8'
p90
I0
sS'category_exercise_name_9'
p91
I0
sS'set_number_of_the_day'
p92
I12
sg57
I0
sS'used_lifting_gear'
p93
I0
sS'velocities_arr_11'
p94
I0
sg61
I0
sg36
I0
sag64
ag64
ag64
ag64
ag64
ag64
ag64
ag64
ag64
ag64
ag64
ag64
ag64
ag64
ag64
ag64
ag64
ag64
a(dp95
g13
I1
sS'velocities_arr_0'
p96
F1.04
sS'velocities_arr_2'
p97
F0.92
sS'velocities_arr_3'
p98
F0.92
sS'velocities_arr_4'
p99
F0.9
sS'velocities_arr_5'
p100
F0.9
sS'velocities_arr_6'
p101
I0
sS'velocities_arr_1'
p102
F0.96
sS'velocities_arr_8'
p103
I0
sS'velocities_arr_9'
p104
I0
sg56
I100
sg74
I45
sS'velocities_arr_7'
p105
I0
sS'category_exercise_name_12'
p106
I0
sS'category_exercise_name_13'
p107
I0
sS'category_exercise_name_10'
p108
I0
sS'category_exercise_name_11'
p109
I0
sS'velocities_arr_10'
p110
I0
sg54
I6
sg81
I6
sS'category_exercise_name_0'
p111
I0
sS'category_exercise_name_1'
p112
I0
sS'category_exercise_name_2'
p113
I1
sS'category_exercise_name_3'
p114
I0
sS'category_exercise_name_4'
p115
I0
sS'category_exercise_name_5'
p116
I0
sS'category_exercise_name_6'
p117
I0
sS'category_exercise_name_7'
p118
I0
sS'category_exercise_name_8'
p119
I0
sS'category_exercise_name_9'
p120
I0
sg92
I0
sg57
I0
sg93
I0
sS'velocities_arr_11'
p121
I0
sg61
I0
sg36
I0
sa(dp122
g13
I1
sS'velocities_arr_0'
p123
F0.78
sS'velocities_arr_2'
p124
F0.78
sS'velocities_arr_3'
p125
F0.83
sS'velocities_arr_4'
p126
F0.76
sS'velocities_arr_5'
p127
F0.73
sS'velocities_arr_6'
p128
I0
sS'velocities_arr_1'
p129
F0.82
sS'velocities_arr_8'
p130
I0
sS'velocities_arr_9'
p131
I0
sg56
I107
sg74
I95
sS'velocities_arr_7'
p132
I0
sS'category_exercise_name_12'
p133
I0
sS'category_exercise_name_13'
p134
I0
sS'category_exercise_name_10'
p135
I0
sS'category_exercise_name_11'
p136
I0
sS'velocities_arr_10'
p137
I0
sg54
I6
sg81
I6
sS'category_exercise_name_0'
p138
I0
sS'category_exercise_name_1'
p139
I0
sS'category_exercise_name_2'
p140
I1
sS'category_exercise_name_3'
p141
I0
sS'category_exercise_name_4'
p142
I0
sS'category_exercise_name_5'
p143
I0
sS'category_exercise_name_6'
p144
I0
sS'category_exercise_name_7'
p145
I0
sS'category_exercise_name_8'
p146
I0
sS'category_exercise_name_9'
p147
I0
sg92
I1
sg57
I0
sg93
I0
sS'velocities_arr_11'
p148
I0
sg61
I0
sg36
I0
sa(dp149
g13
I1
sS'velocities_arr_0'
p150
F0.7
sS'velocities_arr_2'
p151
F0.68
sS'velocities_arr_3'
p152
F0.74
sS'velocities_arr_4'
p153
F0.68
sS'velocities_arr_5'
p154
F0.67
sS'velocities_arr_6'
p155
I0
sS'velocities_arr_1'
p156
F0.74
sS'velocities_arr_8'
p157
I0
sS'velocities_arr_9'
p158
I0
sg56
I116
sg74
I115
sS'velocities_arr_7'
p159
I0
sS'category_exercise_name_12'
p160
I0
sS'category_exercise_name_13'
p161
I0
sS'category_exercise_name_10'
p162
I0
sS'category_exercise_name_11'
p163
I0
sS'velocities_arr_10'
p164
I0
sg54
I6
sg81
I6
sS'category_exercise_name_0'
p165
I0
sS'category_exercise_name_1'
p166
I0
sS'category_exercise_name_2'
p167
I1
sS'category_exercise_name_3'
p168
I0
sS'category_exercise_name_4'
p169
I0
sS'category_exercise_name_5'
p170
I0
sS'category_exercise_name_6'
p171
I0
sS'category_exercise_name_7'
p172
I0
sS'category_exercise_name_8'
p173
I0
sS'category_exercise_name_9'
p174
I0
sg92
I2
sg57
I0
sg93
I0
sS'velocities_arr_11'
p175
I0
sg61
I0
sg36
I0
sa(dp176
g13
I1
sS'velocities_arr_0'
p177
F0.74
sS'velocities_arr_2'
p178
F0.72
sS'velocities_arr_3'
p179
F0.65
sS'velocities_arr_4'
p180
F0.58
sS'velocities_arr_5'
p181
F0.58
sS'velocities_arr_6'
p182
I0
sS'velocities_arr_1'
p183
F0.73
sS'velocities_arr_8'
p184
I0
sS'velocities_arr_9'
p185
I0
sg56
I116
sg74
I115
sS'velocities_arr_7'
p186
I0
sS'category_exercise_name_12'
p187
I0
sS'category_exercise_name_13'
p188
I0
sS'category_exercise_name_10'
p189
I0
sS'category_exercise_name_11'
p190
I0
sS'velocities_arr_10'
p191
I0
sg54
I6
sg81
I6
sS'category_exercise_name_0'
p192
I0
sS'category_exercise_name_1'
p193
I0
sS'category_exercise_name_2'
p194
I1
sS'category_exercise_name_3'
p195
I0
sS'category_exercise_name_4'
p196
I0
sS'category_exercise_name_5'
p197
I0
sS'category_exercise_name_6'
p198
I0
sS'category_exercise_name_7'
p199
I0
sS'category_exercise_name_8'
p200
I0
sS'category_exercise_name_9'
p201
I0
sg92
I3
sg57
I0
sg93
I0
sS'velocities_arr_11'
p202
I0
sg61
I0
sg36
I0
sa(dp203
g13
I1
sS'velocities_arr_0'
p204
F2.46
sS'velocities_arr_2'
p205
F2.04
sS'velocities_arr_3'
p206
F0.77
sS'velocities_arr_4'
p207
F1.92
sS'velocities_arr_5'
p208
F1.68
sS'velocities_arr_6'
p209
I0
sS'velocities_arr_1'
p210
F1.86
sS'velocities_arr_8'
p211
I0
sS'velocities_arr_9'
p212
I0
sg56
I110
sg74
I45
sS'velocities_arr_7'
p213
I0
sS'category_exercise_name_12'
p214
I0
sS'category_exercise_name_13'
p215
I0
sS'category_exercise_name_10'
p216
I0
sS'category_exercise_name_11'
p217
I0
sS'velocities_arr_10'
p218
I0
sg54
I6
sg81
I6
sS'category_exercise_name_0'
p219
I0
sS'category_exercise_name_1'
p220
I0
sS'category_exercise_name_2'
p221
I0
sS'category_exercise_name_3'
p222
I1
sS'category_exercise_name_4'
p223
I0
sS'category_exercise_name_5'
p224
I0
sS'category_exercise_name_6'
p225
I0
sS'category_exercise_name_7'
p226
I0
sS'category_exercise_name_8'
p227
I0
sS'category_exercise_name_9'
p228
I0
sg92
I4
sg57
I0
sg93
I0
sS'velocities_arr_11'
p229
I0
sg61
I0
sg36
I0
sa(dp230
g13
I1
sS'velocities_arr_0'
p231
F0.89
sS'velocities_arr_2'
p232
F0.73
sS'velocities_arr_3'
p233
F0.78
sS'velocities_arr_4'
p234
F0.75
sS'velocities_arr_5'
p235
F0.75
sS'velocities_arr_6'
p236
I0
sS'velocities_arr_1'
p237
F0.79
sS'velocities_arr_8'
p238
I0
sS'velocities_arr_9'
p239
I0
sg56
I112
sg74
I95
sS'velocities_arr_7'
p240
I0
sS'category_exercise_name_12'
p241
I0
sS'category_exercise_name_13'
p242
I0
sS'category_exercise_name_10'
p243
I0
sS'category_exercise_name_11'
p244
I0
sS'velocities_arr_10'
p245
I0
sg54
I6
sg81
I6
sS'category_exercise_name_0'
p246
I0
sS'category_exercise_name_1'
p247
I0
sS'category_exercise_name_2'
p248
I0
sS'category_exercise_name_3'
p249
I1
sS'category_exercise_name_4'
p250
I0
sS'category_exercise_name_5'
p251
I0
sS'category_exercise_name_6'
p252
I0
sS'category_exercise_name_7'
p253
I0
sS'category_exercise_name_8'
p254
I0
sS'category_exercise_name_9'
p255
I0
sg92
I5
sg57
I0
sg93
I0
sS'velocities_arr_11'
p256
I0
sg61
I0
sg36
I0
sa(dp257
g13
I1
sS'velocities_arr_0'
p258
F0.73
sS'velocities_arr_2'
p259
F0.72
sS'velocities_arr_3'
p260
F0.73
sS'velocities_arr_4'
p261
F0.7
sS'velocities_arr_5'
p262
F0.65
sS'velocities_arr_6'
p263
I0
sS'velocities_arr_1'
p264
F0.75
sS'velocities_arr_8'
p265
I0
sS'velocities_arr_9'
p266
I0
sg56
I108
sg74
I105
sS'velocities_arr_7'
p267
I0
sS'category_exercise_name_12'
p268
I0
sS'category_exercise_name_13'
p269
I0
sS'category_exercise_name_10'
p270
I0
sS'category_exercise_name_11'
p271
I0
sS'velocities_arr_10'
p272
I0
sg54
I6
sg81
I6
sS'category_exercise_name_0'
p273
I0
sS'category_exercise_name_1'
p274
I0
sS'category_exercise_name_2'
p275
I0
sS'category_exercise_name_3'
p276
I1
sS'category_exercise_name_4'
p277
I0
sS'category_exercise_name_5'
p278
I0
sS'category_exercise_name_6'
p279
I0
sS'category_exercise_name_7'
p280
I0
sS'category_exercise_name_8'
p281
I0
sS'category_exercise_name_9'
p282
I0
sg92
I6
sg57
I0
sg93
I0
sS'velocities_arr_11'
p283
I0
sg61
I0
sg36
I0
sa(dp284
g13
I1
sS'velocities_arr_0'
p285
F0.64
sS'velocities_arr_2'
p286
F0.63
sS'velocities_arr_3'
p287
F0.64
sS'velocities_arr_4'
p288
F0.61
sS'velocities_arr_5'
p289
F0.57
sS'velocities_arr_6'
p290
I0
sS'velocities_arr_1'
p291
F0.7
sS'velocities_arr_8'
p292
I0
sS'velocities_arr_9'
p293
I0
sg56
I108
sg74
I105
sS'velocities_arr_7'
p294
I0
sS'category_exercise_name_12'
p295
I0
sS'category_exercise_name_13'
p296
I0
sS'category_exercise_name_10'
p297
I0
sS'category_exercise_name_11'
p298
I0
sS'velocities_arr_10'
p299
I0
sg54
I6
sg81
I6
sS'category_exercise_name_0'
p300
I0
sS'category_exercise_name_1'
p301
I0
sS'category_exercise_name_2'
p302
I0
sS'category_exercise_name_3'
p303
I1
sS'category_exercise_name_4'
p304
I0
sS'category_exercise_name_5'
p305
I0
sS'category_exercise_name_6'
p306
I0
sS'category_exercise_name_7'
p307
I0
sS'category_exercise_name_8'
p308
I0
sS'category_exercise_name_9'
p309
I0
sg92
I7
sg57
I0
sg93
I0
sS'velocities_arr_11'
p310
I0
sg61
I0
sg36
I0
sa(dp311
g13
I6
sS'velocities_arr_0'
p312
F1.07
sS'velocities_arr_2'
p313
F1.1
sS'velocities_arr_3'
p314
F0.96
sS'velocities_arr_4'
p315
F1.05
sS'velocities_arr_5'
p316
I0
sS'velocities_arr_6'
p317
I0
sS'velocities_arr_1'
p318
F0.89
sS'velocities_arr_8'
p319
I0
sS'velocities_arr_9'
p320
I0
sg56
I88
sg74
I45
sS'velocities_arr_7'
p321
I0
sS'category_exercise_name_12'
p322
I0
sS'category_exercise_name_13'
p323
I0
sS'category_exercise_name_10'
p324
I0
sS'category_exercise_name_11'
p325
I0
sS'velocities_arr_10'
p326
I0
sg54
I5
sg81
I5
sS'category_exercise_name_0'
p327
I0
sS'category_exercise_name_1'
p328
I0
sS'category_exercise_name_2'
p329
I1
sS'category_exercise_name_3'
p330
I0
sS'category_exercise_name_4'
p331
I0
sS'category_exercise_name_5'
p332
I0
sS'category_exercise_name_6'
p333
I0
sS'category_exercise_name_7'
p334
I0
sS'category_exercise_name_8'
p335
I0
sS'category_exercise_name_9'
p336
I0
sg92
I0
sg57
I0
sg93
I0
sS'velocities_arr_11'
p337
I0
sg61
I0
sg36
F0.0
sa(dp338
g13
I6
sS'velocities_arr_0'
p339
F0.87
sS'velocities_arr_2'
p340
F0.84
sS'velocities_arr_3'
p341
F0.85
sS'velocities_arr_4'
p342
F0.86
sS'velocities_arr_5'
p343
I0
sS'velocities_arr_6'
p344
I0
sS'velocities_arr_1'
p345
F0.91
sS'velocities_arr_8'
p346
I0
sS'velocities_arr_9'
p347
I0
sg56
I103
sg74
I115
sS'velocities_arr_7'
p348
I0
sS'category_exercise_name_12'
p349
I0
sS'category_exercise_name_13'
p350
I0
sS'category_exercise_name_10'
p351
I0
sS'category_exercise_name_11'
p352
I0
sS'velocities_arr_10'
p353
I0
sg54
I5
sg81
I5
sS'category_exercise_name_0'
p354
I0
sS'category_exercise_name_1'
p355
I0
sS'category_exercise_name_2'
p356
I1
sS'category_exercise_name_3'
p357
I0
sS'category_exercise_name_4'
p358
I0
sS'category_exercise_name_5'
p359
I0
sS'category_exercise_name_6'
p360
I0
sS'category_exercise_name_7'
p361
I0
sS'category_exercise_name_8'
p362
I0
sS'category_exercise_name_9'
p363
I0
sg92
I1
sg57
I0
sg93
I0
sS'velocities_arr_11'
p364
I0
sg61
I0
sg36
F0.0
sa(dp365
g13
I6
sS'velocities_arr_0'
p366
F0.81
sS'velocities_arr_2'
p367
F0.77
sS'velocities_arr_3'
p368
F0.76
sS'velocities_arr_4'
p369
F0.72
sS'velocities_arr_5'
p370
I0
sS'velocities_arr_6'
p371
I0
sS'velocities_arr_1'
p372
F0.77
sS'velocities_arr_8'
p373
I0
sS'velocities_arr_9'
p374
I0
sg56
I112
sg74
I135
sS'velocities_arr_7'
p375
I0
sS'category_exercise_name_12'
p376
I0
sS'category_exercise_name_13'
p377
I0
sS'category_exercise_name_10'
p378
I0
sS'category_exercise_name_11'
p379
I0
sS'velocities_arr_10'
p380
I0
sg54
I5
sg81
I5
sS'category_exercise_name_0'
p381
I0
sS'category_exercise_name_1'
p382
I0
sS'category_exercise_name_2'
p383
I1
sS'category_exercise_name_3'
p384
I0
sS'category_exercise_name_4'
p385
I0
sS'category_exercise_name_5'
p386
I0
sS'category_exercise_name_6'
p387
I0
sS'category_exercise_name_7'
p388
I0
sS'category_exercise_name_8'
p389
I0
sS'category_exercise_name_9'
p390
I0
sg92
I2
sg57
I0
sg93
I0
sS'velocities_arr_11'
p391
I0
sg61
I0
sg36
F0.0
sa(dp392
g13
I6
sS'velocities_arr_0'
p393
F0.88
sS'velocities_arr_2'
p394
F0.77
sS'velocities_arr_3'
p395
F0.77
sS'velocities_arr_4'
p396
F0.74
sS'velocities_arr_5'
p397
I0
sS'velocities_arr_6'
p398
I0
sS'velocities_arr_1'
p399
F0.84
sS'velocities_arr_8'
p400
I0
sS'velocities_arr_9'
p401
I0
sg56
I111
sg74
I135
sS'velocities_arr_7'
p402
I0
sS'category_exercise_name_12'
p403
I0
sS'category_exercise_name_13'
p404
I0
sS'category_exercise_name_10'
p405
I0
sS'category_exercise_name_11'
p406
I0
sS'velocities_arr_10'
p407
I0
sg54
I5
sg81
I5
sS'category_exercise_name_0'
p408
I0
sS'category_exercise_name_1'
p409
I0
sS'category_exercise_name_2'
p410
I1
sS'category_exercise_name_3'
p411
I0
sS'category_exercise_name_4'
p412
I0
sS'category_exercise_name_5'
p413
I0
sS'category_exercise_name_6'
p414
I0
sS'category_exercise_name_7'
p415
I0
sS'category_exercise_name_8'
p416
I0
sS'category_exercise_name_9'
p417
I0
sg92
I3
sg57
I0
sg93
I0
sS'velocities_arr_11'
p418
I0
sg61
I0
sg36
F0.0
sa(dp419
g13
I6
sS'velocities_arr_0'
p420
F0.82
sS'velocities_arr_2'
p421
F0.81
sS'velocities_arr_3'
p422
F0.75
sS'velocities_arr_4'
p423
F0.73
sS'velocities_arr_5'
p424
I0
sS'velocities_arr_6'
p425
I0
sS'velocities_arr_1'
p426
F0.82
sS'velocities_arr_8'
p427
I0
sS'velocities_arr_9'
p428
I0
sg56
I115
sg74
I135
sS'velocities_arr_7'
p429
I0
sS'category_exercise_name_12'
p430
I0
sS'category_exercise_name_13'
p431
I0
sS'category_exercise_name_10'
p432
I0
sS'category_exercise_name_11'
p433
I0
sS'velocities_arr_10'
p434
I0
sg54
I5
sg81
I5
sS'category_exercise_name_0'
p435
I0
sS'category_exercise_name_1'
p436
I0
sS'category_exercise_name_2'
p437
I1
sS'category_exercise_name_3'
p438
I0
sS'category_exercise_name_4'
p439
I0
sS'category_exercise_name_5'
p440
I0
sS'category_exercise_name_6'
p441
I0
sS'category_exercise_name_7'
p442
I0
sS'category_exercise_name_8'
p443
I0
sS'category_exercise_name_9'
p444
I0
sg92
I4
sg57
I0
sg93
I0
sS'velocities_arr_11'
p445
I0
sg61
I0
sg36
F0.0
sa(dp446
g13
I6
sS'velocities_arr_0'
p447
F0.87
sS'velocities_arr_2'
p448
F0.83
sS'velocities_arr_3'
p449
F0.8
sS'velocities_arr_4'
p450
F0.69
sS'velocities_arr_5'
p451
I0
sS'velocities_arr_6'
p452
I0
sS'velocities_arr_1'
p453
F0.83
sS'velocities_arr_8'
p454
I0
sS'velocities_arr_9'
p455
I0
sg56
I119
sg74
I135
sS'velocities_arr_7'
p456
I0
sS'category_exercise_name_12'
p457
I0
sS'category_exercise_name_13'
p458
I0
sS'category_exercise_name_10'
p459
I0
sS'category_exercise_name_11'
p460
I0
sS'velocities_arr_10'
p461
I0
sg54
I5
sg81
I5
sS'category_exercise_name_0'
p462
I0
sS'category_exercise_name_1'
p463
I0
sS'category_exercise_name_2'
p464
I1
sS'category_exercise_name_3'
p465
I0
sS'category_exercise_name_4'
p466
I0
sS'category_exercise_name_5'
p467
I0
sS'category_exercise_name_6'
p468
I0
sS'category_exercise_name_7'
p469
I0
sS'category_exercise_name_8'
p470
I0
sS'category_exercise_name_9'
p471
I0
sg92
I5
sg57
I0
sg93
I0
sS'velocities_arr_11'
p472
I0
sg61
I0
sg36
F0.0
sa(dp473
g13
I6
sS'velocities_arr_0'
p474
F2.65
sS'velocities_arr_2'
p475
F1.68
sS'velocities_arr_3'
p476
F2.52
sS'velocities_arr_4'
p477
F2.41
sS'velocities_arr_5'
p478
F0.96
sS'velocities_arr_6'
p479
I0
sS'velocities_arr_1'
p480
F2.58
sS'velocities_arr_8'
p481
I0
sS'velocities_arr_9'
p482
I0
sg56
I100
sg74
I45
sS'velocities_arr_7'
p483
I0
sS'category_exercise_name_12'
p484
I0
sS'category_exercise_name_13'
p485
I0
sS'category_exercise_name_10'
p486
I0
sS'category_exercise_name_11'
p487
I0
sS'velocities_arr_10'
p488
I0
sg54
I6
sg81
I6
sS'category_exercise_name_0'
p489
I0
sS'category_exercise_name_1'
p490
I0
sS'category_exercise_name_2'
p491
I0
sS'category_exercise_name_3'
p492
I1
sS'category_exercise_name_4'
p493
I0
sS'category_exercise_name_5'
p494
I0
sS'category_exercise_name_6'
p495
I0
sS'category_exercise_name_7'
p496
I0
sS'category_exercise_name_8'
p497
I0
sS'category_exercise_name_9'
p498
I0
sg92
I6
sg57
I0
sg93
I0
sS'velocities_arr_11'
p499
I0
sg61
I0
sg36
F0.0
sa(dp500
g13
I6
sS'velocities_arr_0'
p501
F0.98
sS'velocities_arr_2'
p502
F0.97
sS'velocities_arr_3'
p503
F0.83
sS'velocities_arr_4'
p504
F0.84
sS'velocities_arr_5'
p505
I0
sS'velocities_arr_6'
p506
I0
sS'velocities_arr_1'
p507
F0.87
sS'velocities_arr_8'
p508
I0
sS'velocities_arr_9'
p509
I0
sg56
I105
sg74
I95
sS'velocities_arr_7'
p510
I0
sS'category_exercise_name_12'
p511
I0
sS'category_exercise_name_13'
p512
I0
sS'category_exercise_name_10'
p513
I0
sS'category_exercise_name_11'
p514
I0
sS'velocities_arr_10'
p515
I0
sg54
I5
sg81
I5
sS'category_exercise_name_0'
p516
I0
sS'category_exercise_name_1'
p517
I0
sS'category_exercise_name_2'
p518
I0
sS'category_exercise_name_3'
p519
I1
sS'category_exercise_name_4'
p520
I0
sS'category_exercise_name_5'
p521
I0
sS'category_exercise_name_6'
p522
I0
sS'category_exercise_name_7'
p523
I0
sS'category_exercise_name_8'
p524
I0
sS'category_exercise_name_9'
p525
I0
sg92
I7
sg57
I0
sg93
I0
sS'velocities_arr_11'
p526
I0
sg61
I0
sg36
F0.0
sa(dp527
g13
I6
sS'velocities_arr_0'
p528
F0.83
sS'velocities_arr_2'
p529
F0.72
sS'velocities_arr_3'
p530
F0.7
sS'velocities_arr_4'
p531
F0.72
sS'velocities_arr_5'
p532
I0
sS'velocities_arr_6'
p533
I0
sS'velocities_arr_1'
p534
F0.78
sS'velocities_arr_8'
p535
I0
sS'velocities_arr_9'
p536
I0
sg56
I108
sg74
I105
sS'velocities_arr_7'
p537
I0
sS'category_exercise_name_12'
p538
I0
sS'category_exercise_name_13'
p539
I0
sS'category_exercise_name_10'
p540
I0
sS'category_exercise_name_11'
p541
I0
sS'velocities_arr_10'
p542
I0
sg54
I5
sg81
I5
sS'category_exercise_name_0'
p543
I0
sS'category_exercise_name_1'
p544
I0
sS'category_exercise_name_2'
p545
I0
sS'category_exercise_name_3'
p546
I1
sS'category_exercise_name_4'
p547
I0
sS'category_exercise_name_5'
p548
I0
sS'category_exercise_name_6'
p549
I0
sS'category_exercise_name_7'
p550
I0
sS'category_exercise_name_8'
p551
I0
sS'category_exercise_name_9'
p552
I0
sg92
I8
sg57
I0
sg93
I0
sS'velocities_arr_11'
p553
I0
sg61
I0
sg36
F0.0
sa(dp554
g13
I6
sS'velocities_arr_0'
p555
F0.81
sS'velocities_arr_2'
p556
F0.71
sS'velocities_arr_3'
p557
F0.72
sS'velocities_arr_4'
p558
F0.63
sS'velocities_arr_5'
p559
I0
sS'velocities_arr_6'
p560
I0
sS'velocities_arr_1'
p561
F0.77
sS'velocities_arr_8'
p562
I0
sS'velocities_arr_9'
p563
I0
sg56
I108
sg74
I105
sS'velocities_arr_7'
p564
I0
sS'category_exercise_name_12'
p565
I0
sS'category_exercise_name_13'
p566
I0
sS'category_exercise_name_10'
p567
I0
sS'category_exercise_name_11'
p568
I0
sS'velocities_arr_10'
p569
I0
sg54
I5
sg81
I5
sS'category_exercise_name_0'
p570
I0
sS'category_exercise_name_1'
p571
I0
sS'category_exercise_name_2'
p572
I0
sS'category_exercise_name_3'
p573
I1
sS'category_exercise_name_4'
p574
I0
sS'category_exercise_name_5'
p575
I0
sS'category_exercise_name_6'
p576
I0
sS'category_exercise_name_7'
p577
I0
sS'category_exercise_name_8'
p578
I0
sS'category_exercise_name_9'
p579
I0
sg92
I9
sg57
I0
sg93
I0
sS'velocities_arr_11'
p580
I0
sg61
I0
sg36
F0.0
sa(dp581
g13
I6
sS'velocities_arr_0'
p582
F0.77
sS'velocities_arr_2'
p583
F0.77
sS'velocities_arr_3'
p584
F0.76
sS'velocities_arr_4'
p585
F0.7
sS'velocities_arr_5'
p586
I0
sS'velocities_arr_6'
p587
I0
sS'velocities_arr_1'
p588
F0.76
sS'velocities_arr_8'
p589
I0
sS'velocities_arr_9'
p590
I0
sg56
I112
sg74
I105
sS'velocities_arr_7'
p591
I0
sS'category_exercise_name_12'
p592
I0
sS'category_exercise_name_13'
p593
I0
sS'category_exercise_name_10'
p594
I0
sS'category_exercise_name_11'
p595
I0
sS'velocities_arr_10'
p596
I0
sg54
I5
sg81
I5
sS'category_exercise_name_0'
p597
I0
sS'category_exercise_name_1'
p598
I0
sS'category_exercise_name_2'
p599
I0
sS'category_exercise_name_3'
p600
I1
sS'category_exercise_name_4'
p601
I0
sS'category_exercise_name_5'
p602
I0
sS'category_exercise_name_6'
p603
I0
sS'category_exercise_name_7'
p604
I0
sS'category_exercise_name_8'
p605
I0
sS'category_exercise_name_9'
p606
I0
sg92
I10
sg57
I0
sg93
I0
sS'velocities_arr_11'
p607
I0
sg61
I0
sg36
F0.0
sa(dp608
g13
I6
sS'velocities_arr_0'
p609
F0.8
sS'velocities_arr_2'
p610
F0.77
sS'velocities_arr_3'
p611
F0.73
sS'velocities_arr_4'
p612
F0.7
sS'velocities_arr_5'
p613
I0
sS'velocities_arr_6'
p614
I0
sS'velocities_arr_1'
p615
F0.77
sS'velocities_arr_8'
p616
I0
sS'velocities_arr_9'
p617
I0
sg56
I115
sg74
I105
sS'velocities_arr_7'
p618
I0
sS'category_exercise_name_12'
p619
I0
sS'category_exercise_name_13'
p620
I0
sS'category_exercise_name_10'
p621
I0
sS'category_exercise_name_11'
p622
I0
sS'velocities_arr_10'
p623
I0
sg54
I5
sg81
I5
sS'category_exercise_name_0'
p624
I0
sS'category_exercise_name_1'
p625
I0
sS'category_exercise_name_2'
p626
I0
sS'category_exercise_name_3'
p627
I1
sS'category_exercise_name_4'
p628
I0
sS'category_exercise_name_5'
p629
I0
sS'category_exercise_name_6'
p630
I0
sS'category_exercise_name_7'
p631
I0
sS'category_exercise_name_8'
p632
I0
sS'category_exercise_name_9'
p633
I0
sg92
I11
sg57
I0
sg93
I0
sS'velocities_arr_11'
p634
I0
sg61
I0
sg36
F0.0
sa(dp635
g13
I6
sg65
I0
sg66
I0
sg67
I0
sg68
I0
sg69
I0
sg70
I0
sg71
I0
sg72
I0
sg73
I0
sg56
I-1
sg74
I105
sg75
I0
sg76
I0
sg77
I0
sg78
I0
sg79
I0
sg54
I-1
sg81
I5
sg82
I0
sg83
I0
sg84
I0
sg85
I1
sg86
I0
sg87
I0
sg88
I0
sg89
I0
sg90
I0
sg91
I0
sg92
I12
sg57
I-1
sg80
I0
sg93
I0
sg94
I0
sg61
I-1
sg36
F0.0
sas.